
thesis.elf:     file format elf32-avr

Sections:
Idx Name          Size      VMA       LMA       File off  Algn
  0 .data         000000d8  00800100  00006302  00006396  2**0
                  CONTENTS, ALLOC, LOAD, DATA
  1 .text         00006302  00000000  00000000  00000094  2**1
                  CONTENTS, ALLOC, LOAD, READONLY, CODE
  2 .bss          0000057d  008001d8  008001d8  0000646e  2**0
                  ALLOC

Disassembly of section .text:

00000000 <.text>:
       0:	0c 94 b5 00 	jmp	0x16a	;  0x16a
       4:	0c 94 dd 00 	jmp	0x1ba	;  0x1ba
       8:	0c 94 dd 00 	jmp	0x1ba	;  0x1ba
       c:	0c 94 fc 23 	jmp	0x47f8	;  0x47f8
      10:	0c 94 20 24 	jmp	0x4840	;  0x4840
      14:	0c 94 44 24 	jmp	0x4888	;  0x4888
      18:	0c 94 dd 00 	jmp	0x1ba	;  0x1ba
      1c:	0c 94 dd 00 	jmp	0x1ba	;  0x1ba
      20:	0c 94 dd 00 	jmp	0x1ba	;  0x1ba
      24:	0c 94 dd 00 	jmp	0x1ba	;  0x1ba
      28:	0c 94 dd 00 	jmp	0x1ba	;  0x1ba
      2c:	0c 94 dd 00 	jmp	0x1ba	;  0x1ba
      30:	0c 94 dd 00 	jmp	0x1ba	;  0x1ba
      34:	0c 94 dd 00 	jmp	0x1ba	;  0x1ba
      38:	0c 94 dd 00 	jmp	0x1ba	;  0x1ba
      3c:	0c 94 dd 00 	jmp	0x1ba	;  0x1ba
      40:	0c 94 bb 2c 	jmp	0x5976	;  0x5976
      44:	0c 94 dd 00 	jmp	0x1ba	;  0x1ba
      48:	0c 94 4c 28 	jmp	0x5098	;  0x5098
      4c:	0c 94 93 28 	jmp	0x5126	;  0x5126
      50:	0c 94 dd 00 	jmp	0x1ba	;  0x1ba
      54:	0c 94 dd 00 	jmp	0x1ba	;  0x1ba
      58:	0c 94 dd 00 	jmp	0x1ba	;  0x1ba
      5c:	0c 94 dd 00 	jmp	0x1ba	;  0x1ba
      60:	0c 94 dd 00 	jmp	0x1ba	;  0x1ba
      64:	0c 94 dd 00 	jmp	0x1ba	;  0x1ba
      68:	7c 3c       	cpi	r23, 0xCC	; 204
      6a:	3e 5e       	subi	r19, 0xEE	; 238
      6c:	2b 3d       	cpi	r18, 0xDB	; 219
      6e:	3f 2f       	mov	r19, r31
      70:	5b 5d       	subi	r21, 0xDB	; 219
      72:	3b 2c       	mov	r3, r11
      74:	2a 22       	and	r2, r26
      76:	5c 00       	.word	0x005c	; ????
      78:	00 c2       	rjmp	.+1024   	;  0x47a
      7a:	01 00       	.word	0x0001	; ????
      7c:	01 00       	.word	0x0001	; ????
      7e:	11 00       	.word	0x0011	; ????
      80:	11 00       	.word	0x0011	; ????
      82:	0c 00       	.word	0x000c	; ????
      84:	00 e1       	ldi	r16, 0x10	; 16
      86:	00 00       	nop
      88:	0a 00       	.word	0x000a	; ????
      8a:	25 00       	.word	0x0025	; ????
      8c:	25 00       	.word	0x0025	; ????
      8e:	21 00       	.word	0x0021	; ????
      90:	00 96       	adiw	r24, 0x00	; 0
      92:	00 00       	nop
      94:	19 00       	.word	0x0019	; ????
      96:	39 00       	.word	0x0039	; ????
      98:	39 00       	.word	0x0039	; ????
      9a:	36 00       	.word	0x0036	; ????
      9c:	12 7a       	andi	r17, 0xA2	; 162
      9e:	00 00       	nop
      a0:	1f 00       	.word	0x001f	; ????
      a2:	46 00       	.word	0x0046	; ????
      a4:	46 00       	.word	0x0046	; ????
      a6:	44 00       	.word	0x0044	; ????
      a8:	80 70       	andi	r24, 0x00	; 0
      aa:	00 00       	nop
      ac:	22 00       	.word	0x0022	; ????
      ae:	4d 00       	.word	0x004d	; ????
      b0:	4d 00       	.word	0x004d	; ????
      b2:	4a 00       	.word	0x004a	; ????
      b4:	00 4b       	sbci	r16, 0xB0	; 176
      b6:	00 00       	nop
      b8:	36 00       	.word	0x0036	; ????
      ba:	75 00       	.word	0x0075	; ????
      bc:	75 00       	.word	0x0075	; ????
      be:	72 00       	.word	0x0072	; ????
      c0:	40 38       	cpi	r20, 0x80	; 128
      c2:	00 00       	nop
      c4:	4a 00       	.word	0x004a	; ????
      c6:	9c 00       	.word	0x009c	; ????
      c8:	9c 00       	.word	0x009c	; ????
      ca:	99 00       	.word	0x0099	; ????
      cc:	80 25       	eor	r24, r0
      ce:	00 00       	nop
      d0:	72 00       	.word	0x0072	; ????
      d2:	ec 00       	.word	0x00ec	; ????
      d4:	ec 00       	.word	0x00ec	; ????
      d6:	e9 00       	.word	0x00e9	; ????
      d8:	c0 12       	cpse	r12, r16
      da:	00 00       	nop
      dc:	e9 00       	.word	0x00e9	; ????
      de:	da 01       	movw	r26, r20
      e0:	da 01       	movw	r26, r20
      e2:	d7 01       	movw	r26, r14
      e4:	60 09       	sbc	r22, r0
      e6:	00 00       	nop
      e8:	d7 01       	movw	r26, r14
      ea:	b6 03       	fmuls	r19, r22
      ec:	b6 03       	fmuls	r19, r22
      ee:	b3 03       	fmuls	r19, r19
      f0:	b0 04       	cpc	r11, r0
      f2:	00 00       	nop
      f4:	b3 03       	fmuls	r19, r19
      f6:	6e 07       	cpc	r22, r30
      f8:	6e 07       	cpc	r22, r30
      fa:	6b 07       	cpc	r22, r27
      fc:	2c 01       	movw	r4, r24
      fe:	00 00       	nop
     100:	dc 0e       	add	r13, r28
     102:	c1 1d       	adc	r28, r1
     104:	c1 1d       	adc	r28, r1
     106:	be 1d       	adc	r27, r14
     108:	00 00       	nop
     10a:	00 00       	nop
     10c:	24 00       	.word	0x0024	; ????
     10e:	27 00       	.word	0x0027	; ????
     110:	2a 00       	.word	0x002a	; ????
     112:	00 00       	nop
     114:	00 00       	nop
     116:	25 00       	.word	0x0025	; ????
     118:	28 00       	.word	0x0028	; ????
     11a:	2b 00       	.word	0x002b	; ????
     11c:	00 00       	nop
     11e:	00 00       	nop
     120:	23 00       	.word	0x0023	; ????
     122:	26 00       	.word	0x0026	; ????
     124:	29 00       	.word	0x0029	; ????
     126:	04 04       	cpc	r0, r4
     128:	04 04       	cpc	r0, r4
     12a:	04 04       	cpc	r0, r4
     12c:	04 04       	cpc	r0, r4
     12e:	02 02       	muls	r16, r18
     130:	02 02       	muls	r16, r18
     132:	02 02       	muls	r16, r18
     134:	03 03       	mulsu	r16, r19
     136:	03 03       	mulsu	r16, r19
     138:	03 03       	mulsu	r16, r19
     13a:	01 02       	muls	r16, r17
     13c:	04 08       	sbc	r0, r4
     13e:	10 20       	and	r1, r0
     140:	40 80       	ld	r4, Z
     142:	01 02       	muls	r16, r17
     144:	04 08       	sbc	r0, r4
     146:	10 20       	and	r1, r0
     148:	01 02       	muls	r16, r17
     14a:	04 08       	sbc	r0, r4
     14c:	10 20       	and	r1, r0
     14e:	00 00       	nop
     150:	00 07       	cpc	r16, r16
     152:	00 02       	muls	r16, r16
     154:	01 00       	.word	0x0001	; ????
     156:	00 03       	mulsu	r16, r16
     158:	04 06       	cpc	r0, r20
	...
     162:	dd 12       	cpse	r13, r29
     164:	2e 28       	or	r2, r14
     166:	0a 2a       	or	r0, r26
     168:	d6 12       	cpse	r13, r22
     16a:	11 24       	eor	r1, r1
     16c:	1f be       	out	0x3f, r1	; 63
     16e:	cf ef       	ldi	r28, 0xFF	; 255
     170:	d8 e0       	ldi	r29, 0x08	; 8
     172:	de bf       	out	0x3e, r29	; 62
     174:	cd bf       	out	0x3d, r28	; 61
     176:	11 e0       	ldi	r17, 0x01	; 1
     178:	a0 e0       	ldi	r26, 0x00	; 0
     17a:	b1 e0       	ldi	r27, 0x01	; 1
     17c:	e2 e0       	ldi	r30, 0x02	; 2
     17e:	f3 e6       	ldi	r31, 0x63	; 99
     180:	02 c0       	rjmp	.+4      	;  0x186
     182:	05 90       	lpm	r0, Z+
     184:	0d 92       	st	X+, r0
     186:	a8 3d       	cpi	r26, 0xD8	; 216
     188:	b1 07       	cpc	r27, r17
     18a:	d9 f7       	brne	.-10     	;  0x182
     18c:	17 e0       	ldi	r17, 0x07	; 7
     18e:	a8 ed       	ldi	r26, 0xD8	; 216
     190:	b1 e0       	ldi	r27, 0x01	; 1
     192:	01 c0       	rjmp	.+2      	;  0x196
     194:	1d 92       	st	X+, r1
     196:	a5 35       	cpi	r26, 0x55	; 85
     198:	b1 07       	cpc	r27, r17
     19a:	e1 f7       	brne	.-8      	;  0x194
     19c:	11 e0       	ldi	r17, 0x01	; 1
     19e:	c8 e6       	ldi	r28, 0x68	; 104
     1a0:	d1 e0       	ldi	r29, 0x01	; 1
     1a2:	04 c0       	rjmp	.+8      	;  0x1ac
     1a4:	22 97       	sbiw	r28, 0x02	; 2
     1a6:	fe 01       	movw	r30, r28
     1a8:	0e 94 0d 2f 	call	0x5e1a	;  0x5e1a
     1ac:	c2 36       	cpi	r28, 0x62	; 98
     1ae:	d1 07       	cpc	r29, r17
     1b0:	c9 f7       	brne	.-14     	;  0x1a4
     1b2:	0e 94 a9 2c 	call	0x5952	;  0x5952
     1b6:	0c 94 74 31 	jmp	0x62e8	;  0x62e8
     1ba:	0c 94 00 00 	jmp	0	;  0x0
     1be:	cf 93       	push	r28
     1c0:	df 93       	push	r29
     1c2:	fb 01       	movw	r30, r22
     1c4:	ec 01       	movw	r28, r24
     1c6:	88 a5       	ldd	r24, Y+40	; 0x28
     1c8:	99 a5       	ldd	r25, Y+41	; 0x29
     1ca:	aa a5       	ldd	r26, Y+42	; 0x2a
     1cc:	bb a5       	ldd	r27, Y+43	; 0x2b
     1ce:	80 83       	st	Z, r24
     1d0:	91 83       	std	Z+1, r25	; 0x01
     1d2:	a2 83       	std	Z+2, r26	; 0x02
     1d4:	b3 83       	std	Z+3, r27	; 0x03
     1d6:	8c a5       	ldd	r24, Y+44	; 0x2c
     1d8:	9d a5       	ldd	r25, Y+45	; 0x2d
     1da:	ae a5       	ldd	r26, Y+46	; 0x2e
     1dc:	bf a5       	ldd	r27, Y+47	; 0x2f
     1de:	fa 01       	movw	r30, r20
     1e0:	80 83       	st	Z, r24
     1e2:	91 83       	std	Z+1, r25	; 0x01
     1e4:	a2 83       	std	Z+2, r26	; 0x02
     1e6:	b3 83       	std	Z+3, r27	; 0x03
     1e8:	df 91       	pop	r29
     1ea:	cf 91       	pop	r28
     1ec:	08 95       	ret
     1ee:	cf 93       	push	r28
     1f0:	df 93       	push	r29
     1f2:	fb 01       	movw	r30, r22
     1f4:	ec 01       	movw	r28, r24
     1f6:	88 a1       	ldd	r24, Y+32	; 0x20
     1f8:	99 a1       	ldd	r25, Y+33	; 0x21
     1fa:	aa a1       	ldd	r26, Y+34	; 0x22
     1fc:	bb a1       	ldd	r27, Y+35	; 0x23
     1fe:	80 83       	st	Z, r24
     200:	91 83       	std	Z+1, r25	; 0x01
     202:	a2 83       	std	Z+2, r26	; 0x02
     204:	b3 83       	std	Z+3, r27	; 0x03
     206:	8c a1       	ldd	r24, Y+36	; 0x24
     208:	9d a1       	ldd	r25, Y+37	; 0x25
     20a:	ae a1       	ldd	r26, Y+38	; 0x26
     20c:	bf a1       	ldd	r27, Y+39	; 0x27
     20e:	fa 01       	movw	r30, r20
     210:	80 83       	st	Z, r24
     212:	91 83       	std	Z+1, r25	; 0x01
     214:	a2 83       	std	Z+2, r26	; 0x02
     216:	b3 83       	std	Z+3, r27	; 0x03
     218:	df 91       	pop	r29
     21a:	cf 91       	pop	r28
     21c:	08 95       	ret
     21e:	fc 01       	movw	r30, r24
     220:	86 8d       	ldd	r24, Z+30	; 0x1e
     222:	97 8d       	ldd	r25, Z+31	; 0x1f
     224:	08 95       	ret
     226:	ef 92       	push	r14
     228:	ff 92       	push	r15
     22a:	0f 93       	push	r16
     22c:	1f 93       	push	r17
     22e:	cf 93       	push	r28
     230:	df 93       	push	r29
     232:	ec 01       	movw	r28, r24
     234:	81 e6       	ldi	r24, 0x61	; 97
     236:	e8 2e       	mov	r14, r24
     238:	f1 2c       	mov	r15, r1
     23a:	ec 0e       	add	r14, r28
     23c:	fd 1e       	adc	r15, r29
     23e:	ce 01       	movw	r24, r28
     240:	8d 51       	subi	r24, 0x1D	; 29
     242:	9e 4f       	sbci	r25, 0xFE	; 254
     244:	b7 01       	movw	r22, r14
     246:	0e 94 91 0c 	call	0x1922	;  0x1922
     24a:	88 83       	st	Y, r24
     24c:	1f 8a       	std	Y+23, r1	; 0x17
     24e:	1e 8a       	std	Y+22, r1	; 0x16
     250:	09 c0       	rjmp	.+18     	;  0x264
     252:	fe 01       	movw	r30, r28
     254:	e8 0f       	add	r30, r24
     256:	f9 1f       	adc	r31, r25
     258:	e8 59       	subi	r30, 0x98	; 152
     25a:	ff 4f       	sbci	r31, 0xFF	; 255
     25c:	10 82       	st	Z, r1
     25e:	01 96       	adiw	r24, 0x01	; 1
     260:	9f 8b       	std	Y+23, r25	; 0x17
     262:	8e 8b       	std	Y+22, r24	; 0x16
     264:	8e 89       	ldd	r24, Y+22	; 0x16
     266:	9f 89       	ldd	r25, Y+23	; 0x17
     268:	84 30       	cpi	r24, 0x04	; 4
     26a:	91 05       	cpc	r25, r1
     26c:	94 f3       	brlt	.-28     	;  0x252
     26e:	88 81       	ld	r24, Y
     270:	81 30       	cpi	r24, 0x01	; 1
     272:	11 f0       	breq	.+4      	;  0x278
     274:	80 e0       	ldi	r24, 0x00	; 0
     276:	25 c0       	rjmp	.+74     	;  0x2c2
     278:	c7 01       	movw	r24, r14
     27a:	61 e0       	ldi	r22, 0x01	; 1
     27c:	70 e0       	ldi	r23, 0x00	; 0
     27e:	0e 94 d4 2b 	call	0x57a8	;  0x57a8
     282:	8e 01       	movw	r16, r28
     284:	08 59       	subi	r16, 0x98	; 152
     286:	1f 4f       	sbci	r17, 0xFF	; 255
     288:	f8 01       	movw	r30, r16
     28a:	80 83       	st	Z, r24
     28c:	c7 01       	movw	r24, r14
     28e:	62 e0       	ldi	r22, 0x02	; 2
     290:	70 e0       	ldi	r23, 0x00	; 0
     292:	0e 94 d4 2b 	call	0x57a8	;  0x57a8
     296:	c7 59       	subi	r28, 0x97	; 151
     298:	df 4f       	sbci	r29, 0xFF	; 255
     29a:	89 93       	st	Y+, r24
     29c:	c7 01       	movw	r24, r14
     29e:	63 e0       	ldi	r22, 0x03	; 3
     2a0:	70 e0       	ldi	r23, 0x00	; 0
     2a2:	0e 94 d4 2b 	call	0x57a8	;  0x57a8
     2a6:	89 93       	st	Y+, r24
     2a8:	18 82       	st	Y, r1
     2aa:	cb 56       	subi	r28, 0x6B	; 107
     2ac:	d0 40       	sbci	r29, 0x00	; 0
     2ae:	c7 01       	movw	r24, r14
     2b0:	b8 01       	movw	r22, r16
     2b2:	0e 94 8a 2c 	call	0x5914	;  0x5914
     2b6:	c7 01       	movw	r24, r14
     2b8:	0e 94 f6 2b 	call	0x57ec	;  0x57ec
     2bc:	7f 8f       	std	Y+31, r23	; 0x1f
     2be:	6e 8f       	std	Y+30, r22	; 0x1e
     2c0:	81 e0       	ldi	r24, 0x01	; 1
     2c2:	df 91       	pop	r29
     2c4:	cf 91       	pop	r28
     2c6:	1f 91       	pop	r17
     2c8:	0f 91       	pop	r16
     2ca:	ff 90       	pop	r15
     2cc:	ef 90       	pop	r14
     2ce:	08 95       	ret
     2d0:	ef 92       	push	r14
     2d2:	ff 92       	push	r15
     2d4:	0f 93       	push	r16
     2d6:	1f 93       	push	r17
     2d8:	cf 93       	push	r28
     2da:	df 93       	push	r29
     2dc:	ec 01       	movw	r28, r24
     2de:	90 e3       	ldi	r25, 0x30	; 48
     2e0:	e9 2e       	mov	r14, r25
     2e2:	f1 2c       	mov	r15, r1
     2e4:	ec 0e       	add	r14, r28
     2e6:	fd 1e       	adc	r15, r29
     2e8:	c7 01       	movw	r24, r14
     2ea:	60 e0       	ldi	r22, 0x00	; 0
     2ec:	71 e0       	ldi	r23, 0x01	; 1
     2ee:	0e 94 8a 2c 	call	0x5914	;  0x5914
     2f2:	ce 01       	movw	r24, r28
     2f4:	8d 51       	subi	r24, 0x1D	; 29
     2f6:	9e 4f       	sbci	r25, 0xFE	; 254
     2f8:	b7 01       	movw	r22, r14
     2fa:	0e 94 09 0c 	call	0x1812	;  0x1812
     2fe:	8d 83       	std	Y+5, r24	; 0x05
     300:	88 23       	and	r24, r24
     302:	41 f4       	brne	.+16     	;  0x314
     304:	89 e2       	ldi	r24, 0x29	; 41
     306:	97 e0       	ldi	r25, 0x07	; 7
     308:	61 e0       	ldi	r22, 0x01	; 1
     30a:	71 e0       	ldi	r23, 0x01	; 1
     30c:	0e 94 7a 2b 	call	0x56f4	;  0x56f4
     310:	80 e0       	ldi	r24, 0x00	; 0
     312:	6d c0       	rjmp	.+218    	;  0x3ee
     314:	81 30       	cpi	r24, 0x01	; 1
     316:	09 f0       	breq	.+2      	;  0x31a
     318:	69 c0       	rjmp	.+210    	;  0x3ec
     31a:	89 e2       	ldi	r24, 0x29	; 41
     31c:	97 e0       	ldi	r25, 0x07	; 7
     31e:	b7 01       	movw	r22, r14
     320:	0e 94 c0 2b 	call	0x5780	;  0x5780
     324:	1f 8a       	std	Y+23, r1	; 0x17
     326:	1e 8a       	std	Y+22, r1	; 0x16
     328:	09 c0       	rjmp	.+18     	;  0x33c
     32a:	fe 01       	movw	r30, r28
     32c:	e8 0f       	add	r30, r24
     32e:	f9 1f       	adc	r31, r25
     330:	e4 59       	subi	r30, 0x94	; 148
     332:	ff 4f       	sbci	r31, 0xFF	; 255
     334:	10 82       	st	Z, r1
     336:	01 96       	adiw	r24, 0x01	; 1
     338:	9f 8b       	std	Y+23, r25	; 0x17
     33a:	8e 8b       	std	Y+22, r24	; 0x16
     33c:	8e 89       	ldd	r24, Y+22	; 0x16
     33e:	9f 89       	ldd	r25, Y+23	; 0x17
     340:	87 30       	cpi	r24, 0x07	; 7
     342:	91 05       	cpc	r25, r1
     344:	94 f3       	brlt	.-28     	;  0x32a
     346:	1f 8a       	std	Y+23, r1	; 0x17
     348:	1e 8a       	std	Y+22, r1	; 0x16
     34a:	0f c0       	rjmp	.+30     	;  0x36a
     34c:	c7 01       	movw	r24, r14
     34e:	b8 01       	movw	r22, r16
     350:	0e 94 d4 2b 	call	0x57a8	;  0x57a8
     354:	0c 0f       	add	r16, r28
     356:	1d 1f       	adc	r17, r29
     358:	04 59       	subi	r16, 0x94	; 148
     35a:	1f 4f       	sbci	r17, 0xFF	; 255
     35c:	f8 01       	movw	r30, r16
     35e:	80 83       	st	Z, r24
     360:	8e 89       	ldd	r24, Y+22	; 0x16
     362:	9f 89       	ldd	r25, Y+23	; 0x17
     364:	01 96       	adiw	r24, 0x01	; 1
     366:	9f 8b       	std	Y+23, r25	; 0x17
     368:	8e 8b       	std	Y+22, r24	; 0x16
     36a:	0e 89       	ldd	r16, Y+22	; 0x16
     36c:	1f 89       	ldd	r17, Y+23	; 0x17
     36e:	06 30       	cpi	r16, 0x06	; 6
     370:	11 05       	cpc	r17, r1
     372:	64 f3       	brlt	.-40     	;  0x34c
     374:	ce 58       	subi	r28, 0x8E	; 142
     376:	df 4f       	sbci	r29, 0xFF	; 255
     378:	18 82       	st	Y, r1
     37a:	26 97       	sbiw	r28, 0x06	; 6
     37c:	88 81       	ld	r24, Y
     37e:	cc 56       	subi	r28, 0x6C	; 108
     380:	d0 40       	sbci	r29, 0x00	; 0
     382:	84 32       	cpi	r24, 0x24	; 36
     384:	61 f5       	brne	.+88     	;  0x3de
     386:	c3 59       	subi	r28, 0x93	; 147
     388:	df 4f       	sbci	r29, 0xFF	; 255
     38a:	88 81       	ld	r24, Y
     38c:	cd 56       	subi	r28, 0x6D	; 109
     38e:	d0 40       	sbci	r29, 0x00	; 0
     390:	87 34       	cpi	r24, 0x47	; 71
     392:	29 f5       	brne	.+74     	;  0x3de
     394:	c2 59       	subi	r28, 0x92	; 146
     396:	df 4f       	sbci	r29, 0xFF	; 255
     398:	88 81       	ld	r24, Y
     39a:	ce 56       	subi	r28, 0x6E	; 110
     39c:	d0 40       	sbci	r29, 0x00	; 0
     39e:	80 35       	cpi	r24, 0x50	; 80
     3a0:	f1 f4       	brne	.+60     	;  0x3de
     3a2:	c1 59       	subi	r28, 0x91	; 145
     3a4:	df 4f       	sbci	r29, 0xFF	; 255
     3a6:	88 81       	ld	r24, Y
     3a8:	cf 56       	subi	r28, 0x6F	; 111
     3aa:	d0 40       	sbci	r29, 0x00	; 0
     3ac:	82 35       	cpi	r24, 0x52	; 82
     3ae:	b9 f4       	brne	.+46     	;  0x3de
     3b0:	c0 59       	subi	r28, 0x90	; 144
     3b2:	df 4f       	sbci	r29, 0xFF	; 255
     3b4:	88 81       	ld	r24, Y
     3b6:	c0 57       	subi	r28, 0x70	; 112
     3b8:	d0 40       	sbci	r29, 0x00	; 0
     3ba:	8d 34       	cpi	r24, 0x4D	; 77
     3bc:	81 f4       	brne	.+32     	;  0x3de
     3be:	cf 58       	subi	r28, 0x8F	; 143
     3c0:	df 4f       	sbci	r29, 0xFF	; 255
     3c2:	88 81       	ld	r24, Y
     3c4:	c1 57       	subi	r28, 0x71	; 113
     3c6:	d0 40       	sbci	r29, 0x00	; 0
     3c8:	83 34       	cpi	r24, 0x43	; 67
     3ca:	49 f4       	brne	.+18     	;  0x3de
     3cc:	89 e2       	ldi	r24, 0x29	; 41
     3ce:	97 e0       	ldi	r25, 0x07	; 7
     3d0:	64 e0       	ldi	r22, 0x04	; 4
     3d2:	71 e0       	ldi	r23, 0x01	; 1
     3d4:	0e 94 7a 2b 	call	0x56f4	;  0x56f4
     3d8:	81 e0       	ldi	r24, 0x01	; 1
     3da:	88 83       	st	Y, r24
     3dc:	07 c0       	rjmp	.+14     	;  0x3ec
     3de:	89 e2       	ldi	r24, 0x29	; 41
     3e0:	97 e0       	ldi	r25, 0x07	; 7
     3e2:	69 e0       	ldi	r22, 0x09	; 9
     3e4:	71 e0       	ldi	r23, 0x01	; 1
     3e6:	0e 94 7a 2b 	call	0x56f4	;  0x56f4
     3ea:	18 82       	st	Y, r1
     3ec:	88 81       	ld	r24, Y
     3ee:	df 91       	pop	r29
     3f0:	cf 91       	pop	r28
     3f2:	1f 91       	pop	r17
     3f4:	0f 91       	pop	r16
     3f6:	ff 90       	pop	r15
     3f8:	ef 90       	pop	r14
     3fa:	08 95       	ret
     3fc:	9f 92       	push	r9
     3fe:	af 92       	push	r10
     400:	bf 92       	push	r11
     402:	cf 92       	push	r12
     404:	df 92       	push	r13
     406:	ef 92       	push	r14
     408:	ff 92       	push	r15
     40a:	0f 93       	push	r16
     40c:	1f 93       	push	r17
     40e:	cf 93       	push	r28
     410:	df 93       	push	r29
     412:	ec 01       	movw	r28, r24
     414:	1f 82       	std	Y+7, r1	; 0x07
     416:	19 86       	std	Y+9, r1	; 0x09
     418:	1d 8e       	std	Y+29, r1	; 0x1d
     41a:	1c 8e       	std	Y+28, r1	; 0x1c
     41c:	1b 8a       	std	Y+19, r1	; 0x13
     41e:	1a 8a       	std	Y+18, r1	; 0x12
     420:	19 8e       	std	Y+25, r1	; 0x19
     422:	18 8e       	std	Y+24, r1	; 0x18
     424:	1b 8e       	std	Y+27, r1	; 0x1b
     426:	1a 8e       	std	Y+26, r1	; 0x1a
     428:	1f 8a       	std	Y+23, r1	; 0x17
     42a:	1e 8a       	std	Y+22, r1	; 0x16
     42c:	09 c0       	rjmp	.+18     	;  0x440
     42e:	fe 01       	movw	r30, r28
     430:	e8 0f       	add	r30, r24
     432:	f9 1f       	adc	r31, r25
     434:	e1 56       	subi	r30, 0x61	; 97
     436:	ff 4f       	sbci	r31, 0xFF	; 255
     438:	10 82       	st	Z, r1
     43a:	01 96       	adiw	r24, 0x01	; 1
     43c:	9f 8b       	std	Y+23, r25	; 0x17
     43e:	8e 8b       	std	Y+22, r24	; 0x16
     440:	8e 89       	ldd	r24, Y+22	; 0x16
     442:	9f 89       	ldd	r25, Y+23	; 0x17
     444:	8b 32       	cpi	r24, 0x2B	; 43
     446:	91 05       	cpc	r25, r1
     448:	94 f3       	brlt	.-28     	;  0x42e
     44a:	ce 01       	movw	r24, r28
     44c:	0e 94 68 01 	call	0x2d0	;  0x2d0
     450:	8e 83       	std	Y+6, r24	; 0x06
     452:	88 23       	and	r24, r24
     454:	09 f4       	brne	.+2      	;  0x458
     456:	f6 c0       	rjmp	.+492    	;  0x644
     458:	81 30       	cpi	r24, 0x01	; 1
     45a:	d1 f5       	brne	.+116    	;  0x4d0
     45c:	8e 01       	movw	r16, r28
     45e:	00 5d       	subi	r16, 0xD0	; 208
     460:	1f 4f       	sbci	r17, 0xFF	; 255
     462:	ff 24       	eor	r15, r15
     464:	f3 94       	inc	r15
     466:	31 c0       	rjmp	.+98     	;  0x4ca
     468:	8a 89       	ldd	r24, Y+18	; 0x12
     46a:	9b 89       	ldd	r25, Y+19	; 0x13
     46c:	6c 8d       	ldd	r22, Y+28	; 0x1c
     46e:	7d 8d       	ldd	r23, Y+29	; 0x1d
     470:	02 97       	sbiw	r24, 0x02	; 2
     472:	e1 f4       	brne	.+56     	;  0x4ac
     474:	c8 01       	movw	r24, r16
     476:	0e 94 d4 2b 	call	0x57a8	;  0x57a8
     47a:	86 35       	cpi	r24, 0x56	; 86
     47c:	41 f4       	brne	.+16     	;  0x48e
     47e:	89 e2       	ldi	r24, 0x29	; 41
     480:	97 e0       	ldi	r25, 0x07	; 7
     482:	6e e0       	ldi	r22, 0x0E	; 14
     484:	71 e0       	ldi	r23, 0x01	; 1
     486:	0e 94 7a 2b 	call	0x56f4	;  0x56f4
     48a:	80 e0       	ldi	r24, 0x00	; 0
     48c:	db c0       	rjmp	.+438    	;  0x644
     48e:	6c 8d       	ldd	r22, Y+28	; 0x1c
     490:	7d 8d       	ldd	r23, Y+29	; 0x1d
     492:	c8 01       	movw	r24, r16
     494:	0e 94 d4 2b 	call	0x57a8	;  0x57a8
     498:	81 34       	cpi	r24, 0x41	; 65
     49a:	91 f4       	brne	.+36     	;  0x4c0
     49c:	89 e2       	ldi	r24, 0x29	; 41
     49e:	97 e0       	ldi	r25, 0x07	; 7
     4a0:	61 e1       	ldi	r22, 0x11	; 17
     4a2:	71 e0       	ldi	r23, 0x01	; 1
     4a4:	0e 94 7a 2b 	call	0x56f4	;  0x56f4
     4a8:	ff 82       	std	Y+7, r15	; 0x07
     4aa:	0a c0       	rjmp	.+20     	;  0x4c0
     4ac:	c8 01       	movw	r24, r16
     4ae:	0e 94 d4 2b 	call	0x57a8	;  0x57a8
     4b2:	8c 32       	cpi	r24, 0x2C	; 44
     4b4:	29 f4       	brne	.+10     	;  0x4c0
     4b6:	8a 89       	ldd	r24, Y+18	; 0x12
     4b8:	9b 89       	ldd	r25, Y+19	; 0x13
     4ba:	01 96       	adiw	r24, 0x01	; 1
     4bc:	9b 8b       	std	Y+19, r25	; 0x13
     4be:	8a 8b       	std	Y+18, r24	; 0x12
     4c0:	8c 8d       	ldd	r24, Y+28	; 0x1c
     4c2:	9d 8d       	ldd	r25, Y+29	; 0x1d
     4c4:	01 96       	adiw	r24, 0x01	; 1
     4c6:	9d 8f       	std	Y+29, r25	; 0x1d
     4c8:	8c 8f       	std	Y+28, r24	; 0x1c
     4ca:	8f 81       	ldd	r24, Y+7	; 0x07
     4cc:	81 30       	cpi	r24, 0x01	; 1
     4ce:	61 f6       	brne	.-104    	;  0x468
     4d0:	8f 81       	ldd	r24, Y+7	; 0x07
     4d2:	81 30       	cpi	r24, 0x01	; 1
     4d4:	09 f0       	breq	.+2      	;  0x4d8
     4d6:	b5 c0       	rjmp	.+362    	;  0x642
     4d8:	1b 8a       	std	Y+19, r1	; 0x13
     4da:	1a 8a       	std	Y+18, r1	; 0x12
     4dc:	1f 8a       	std	Y+23, r1	; 0x17
     4de:	1e 8a       	std	Y+22, r1	; 0x16
     4e0:	40 e3       	ldi	r20, 0x30	; 48
     4e2:	e4 2e       	mov	r14, r20
     4e4:	f1 2c       	mov	r15, r1
     4e6:	ec 0e       	add	r14, r28
     4e8:	fd 1e       	adc	r15, r29
     4ea:	39 ec       	ldi	r19, 0xC9	; 201
     4ec:	c3 2e       	mov	r12, r19
     4ee:	d1 2c       	mov	r13, r1
     4f0:	cc 0e       	add	r12, r28
     4f2:	dd 1e       	adc	r13, r29
     4f4:	99 24       	eor	r9, r9
     4f6:	93 94       	inc	r9
     4f8:	27 e0       	ldi	r18, 0x07	; 7
     4fa:	a2 2e       	mov	r10, r18
     4fc:	b1 2c       	mov	r11, r1
     4fe:	9d c0       	rjmp	.+314    	;  0x63a
     500:	8a 89       	ldd	r24, Y+18	; 0x12
     502:	9b 89       	ldd	r25, Y+19	; 0x13
     504:	81 30       	cpi	r24, 0x01	; 1
     506:	91 05       	cpc	r25, r1
     508:	01 f5       	brne	.+64     	;  0x54a
     50a:	6e 89       	ldd	r22, Y+22	; 0x16
     50c:	7f 89       	ldd	r23, Y+23	; 0x17
     50e:	c7 01       	movw	r24, r14
     510:	0e 94 d4 2b 	call	0x57a8	;  0x57a8
     514:	6e 89       	ldd	r22, Y+22	; 0x16
     516:	7f 89       	ldd	r23, Y+23	; 0x17
     518:	08 8d       	ldd	r16, Y+24	; 0x18
     51a:	19 8d       	ldd	r17, Y+25	; 0x19
     51c:	8c 32       	cpi	r24, 0x2C	; 44
     51e:	09 f0       	breq	.+2      	;  0x522
     520:	59 c0       	rjmp	.+178    	;  0x5d4
     522:	c7 01       	movw	r24, r14
     524:	0e 94 d4 2b 	call	0x57a8	;  0x57a8
     528:	0c 0f       	add	r16, r28
     52a:	1d 1f       	adc	r17, r29
     52c:	01 56       	subi	r16, 0x61	; 97
     52e:	1f 4f       	sbci	r17, 0xFF	; 255
     530:	f8 01       	movw	r30, r16
     532:	80 83       	st	Z, r24
     534:	88 8d       	ldd	r24, Y+24	; 0x18
     536:	99 8d       	ldd	r25, Y+25	; 0x19
     538:	01 96       	adiw	r24, 0x01	; 1
     53a:	99 8f       	std	Y+25, r25	; 0x19
     53c:	88 8f       	std	Y+24, r24	; 0x18
     53e:	8e 89       	ldd	r24, Y+22	; 0x16
     540:	9f 89       	ldd	r25, Y+23	; 0x17
     542:	01 96       	adiw	r24, 0x01	; 1
     544:	9f 8b       	std	Y+23, r25	; 0x17
     546:	8e 8b       	std	Y+22, r24	; 0x16
     548:	3d c0       	rjmp	.+122    	;  0x5c4
     54a:	83 30       	cpi	r24, 0x03	; 3
     54c:	91 05       	cpc	r25, r1
     54e:	51 f5       	brne	.+84     	;  0x5a4
     550:	6e 89       	ldd	r22, Y+22	; 0x16
     552:	7f 89       	ldd	r23, Y+23	; 0x17
     554:	c7 01       	movw	r24, r14
     556:	0e 94 d4 2b 	call	0x57a8	;  0x57a8
     55a:	8c 32       	cpi	r24, 0x2C	; 44
     55c:	29 f4       	brne	.+10     	;  0x568
     55e:	8a 8d       	ldd	r24, Y+26	; 0x1a
     560:	9b 8d       	ldd	r25, Y+27	; 0x1b
     562:	01 96       	adiw	r24, 0x01	; 1
     564:	9b 8f       	std	Y+27, r25	; 0x1b
     566:	8a 8f       	std	Y+26, r24	; 0x1a
     568:	8a 8d       	ldd	r24, Y+26	; 0x1a
     56a:	9b 8d       	ldd	r25, Y+27	; 0x1b
     56c:	6e 89       	ldd	r22, Y+22	; 0x16
     56e:	7f 89       	ldd	r23, Y+23	; 0x17
     570:	08 8d       	ldd	r16, Y+24	; 0x18
     572:	19 8d       	ldd	r17, Y+25	; 0x19
     574:	04 97       	sbiw	r24, 0x04	; 4
     576:	71 f5       	brne	.+92     	;  0x5d4
     578:	c7 01       	movw	r24, r14
     57a:	0e 94 d4 2b 	call	0x57a8	;  0x57a8
     57e:	0c 0f       	add	r16, r28
     580:	1d 1f       	adc	r17, r29
     582:	01 56       	subi	r16, 0x61	; 97
     584:	1f 4f       	sbci	r17, 0xFF	; 255
     586:	f8 01       	movw	r30, r16
     588:	80 83       	st	Z, r24
     58a:	88 8d       	ldd	r24, Y+24	; 0x18
     58c:	99 8d       	ldd	r25, Y+25	; 0x19
     58e:	01 96       	adiw	r24, 0x01	; 1
     590:	99 8f       	std	Y+25, r25	; 0x19
     592:	88 8f       	std	Y+24, r24	; 0x18
     594:	8e 89       	ldd	r24, Y+22	; 0x16
     596:	9f 89       	ldd	r25, Y+23	; 0x17
     598:	01 96       	adiw	r24, 0x01	; 1
     59a:	9f 8b       	std	Y+23, r25	; 0x17
     59c:	8e 8b       	std	Y+22, r24	; 0x16
     59e:	bb 8a       	std	Y+19, r11	; 0x13
     5a0:	aa 8a       	std	Y+18, r10	; 0x12
     5a2:	4b c0       	rjmp	.+150    	;  0x63a
     5a4:	89 30       	cpi	r24, 0x09	; 9
     5a6:	91 05       	cpc	r25, r1
     5a8:	49 f5       	brne	.+82     	;  0x5fc
     5aa:	6e 89       	ldd	r22, Y+22	; 0x16
     5ac:	7f 89       	ldd	r23, Y+23	; 0x17
     5ae:	c7 01       	movw	r24, r14
     5b0:	0e 94 d4 2b 	call	0x57a8	;  0x57a8
     5b4:	6e 89       	ldd	r22, Y+22	; 0x16
     5b6:	7f 89       	ldd	r23, Y+23	; 0x17
     5b8:	8c 32       	cpi	r24, 0x2C	; 44
     5ba:	51 f4       	brne	.+20     	;  0x5d0
     5bc:	6f 5f       	subi	r22, 0xFF	; 255
     5be:	7f 4f       	sbci	r23, 0xFF	; 255
     5c0:	7f 8b       	std	Y+23, r23	; 0x17
     5c2:	6e 8b       	std	Y+22, r22	; 0x16
     5c4:	8a 89       	ldd	r24, Y+18	; 0x12
     5c6:	9b 89       	ldd	r25, Y+19	; 0x13
     5c8:	01 96       	adiw	r24, 0x01	; 1
     5ca:	9b 8b       	std	Y+19, r25	; 0x13
     5cc:	8a 8b       	std	Y+18, r24	; 0x12
     5ce:	35 c0       	rjmp	.+106    	;  0x63a
     5d0:	08 8d       	ldd	r16, Y+24	; 0x18
     5d2:	19 8d       	ldd	r17, Y+25	; 0x19
     5d4:	c7 01       	movw	r24, r14
     5d6:	0e 94 d4 2b 	call	0x57a8	;  0x57a8
     5da:	0c 0f       	add	r16, r28
     5dc:	1d 1f       	adc	r17, r29
     5de:	01 56       	subi	r16, 0x61	; 97
     5e0:	1f 4f       	sbci	r17, 0xFF	; 255
     5e2:	f8 01       	movw	r30, r16
     5e4:	80 83       	st	Z, r24
     5e6:	88 8d       	ldd	r24, Y+24	; 0x18
     5e8:	99 8d       	ldd	r25, Y+25	; 0x19
     5ea:	01 96       	adiw	r24, 0x01	; 1
     5ec:	99 8f       	std	Y+25, r25	; 0x19
     5ee:	88 8f       	std	Y+24, r24	; 0x18
     5f0:	8e 89       	ldd	r24, Y+22	; 0x16
     5f2:	9f 89       	ldd	r25, Y+23	; 0x17
     5f4:	01 96       	adiw	r24, 0x01	; 1
     5f6:	9f 8b       	std	Y+23, r25	; 0x17
     5f8:	8e 8b       	std	Y+22, r24	; 0x16
     5fa:	1f c0       	rjmp	.+62     	;  0x63a
     5fc:	0a 97       	sbiw	r24, 0x0a	; 10
     5fe:	59 f4       	brne	.+22     	;  0x616
     600:	f6 01       	movw	r30, r12
     602:	10 82       	st	Z, r1
     604:	89 e2       	ldi	r24, 0x29	; 41
     606:	97 e0       	ldi	r25, 0x07	; 7
     608:	64 e1       	ldi	r22, 0x14	; 20
     60a:	71 e0       	ldi	r23, 0x01	; 1
     60c:	0e 94 7a 2b 	call	0x56f4	;  0x56f4
     610:	99 86       	std	Y+9, r9	; 0x09
     612:	98 82       	st	Y, r9
     614:	12 c0       	rjmp	.+36     	;  0x63a
     616:	6e 89       	ldd	r22, Y+22	; 0x16
     618:	7f 89       	ldd	r23, Y+23	; 0x17
     61a:	c7 01       	movw	r24, r14
     61c:	0e 94 d4 2b 	call	0x57a8	;  0x57a8
     620:	6e 89       	ldd	r22, Y+22	; 0x16
     622:	7f 89       	ldd	r23, Y+23	; 0x17
     624:	8c 32       	cpi	r24, 0x2C	; 44
     626:	29 f4       	brne	.+10     	;  0x632
     628:	8a 89       	ldd	r24, Y+18	; 0x12
     62a:	9b 89       	ldd	r25, Y+19	; 0x13
     62c:	01 96       	adiw	r24, 0x01	; 1
     62e:	9b 8b       	std	Y+19, r25	; 0x13
     630:	8a 8b       	std	Y+18, r24	; 0x12
     632:	6f 5f       	subi	r22, 0xFF	; 255
     634:	7f 4f       	sbci	r23, 0xFF	; 255
     636:	7f 8b       	std	Y+23, r23	; 0x17
     638:	6e 8b       	std	Y+22, r22	; 0x16
     63a:	89 85       	ldd	r24, Y+9	; 0x09
     63c:	81 30       	cpi	r24, 0x01	; 1
     63e:	09 f0       	breq	.+2      	;  0x642
     640:	5f cf       	rjmp	.-322    	;  0x500
     642:	88 81       	ld	r24, Y
     644:	df 91       	pop	r29
     646:	cf 91       	pop	r28
     648:	1f 91       	pop	r17
     64a:	0f 91       	pop	r16
     64c:	ff 90       	pop	r15
     64e:	ef 90       	pop	r14
     650:	df 90       	pop	r13
     652:	cf 90       	pop	r12
     654:	bf 90       	pop	r11
     656:	af 90       	pop	r10
     658:	9f 90       	pop	r9
     65a:	08 95       	ret
     65c:	cf 92       	push	r12
     65e:	df 92       	push	r13
     660:	ef 92       	push	r14
     662:	ff 92       	push	r15
     664:	0f 93       	push	r16
     666:	1f 93       	push	r17
     668:	df 93       	push	r29
     66a:	cf 93       	push	r28
     66c:	cd b7       	in	r28, 0x3d	; 61
     66e:	de b7       	in	r29, 0x3e	; 62
     670:	aa 97       	sbiw	r28, 0x2a	; 42
     672:	0f b6       	in	r0, 0x3f	; 63
     674:	f8 94       	cli
     676:	de bf       	out	0x3e, r29	; 62
     678:	0f be       	out	0x3f, r0	; 63
     67a:	cd bf       	out	0x3d, r28	; 61
     67c:	8c 01       	movw	r16, r24
     67e:	0e 94 fe 01 	call	0x3fc	;  0x3fc
     682:	d8 01       	movw	r26, r16
     684:	18 96       	adiw	r26, 0x08	; 8
     686:	8c 93       	st	X, r24
     688:	88 23       	and	r24, r24
     68a:	29 f4       	brne	.+10     	;  0x696
     68c:	89 e2       	ldi	r24, 0x29	; 41
     68e:	97 e0       	ldi	r25, 0x07	; 7
     690:	6a e1       	ldi	r22, 0x1A	; 26
     692:	71 e0       	ldi	r23, 0x01	; 1
     694:	4b c0       	rjmp	.+150    	;  0x72c
     696:	81 30       	cpi	r24, 0x01	; 1
     698:	09 f0       	breq	.+2      	;  0x69c
     69a:	60 c0       	rjmp	.+192    	;  0x75c
     69c:	fe 01       	movw	r30, r28
     69e:	31 96       	adiw	r30, 0x01	; 1
     6a0:	8a e2       	ldi	r24, 0x2A	; 42
     6a2:	df 01       	movw	r26, r30
     6a4:	1d 92       	st	X+, r1
     6a6:	8a 95       	dec	r24
     6a8:	e9 f7       	brne	.-6      	;  0x6a4
     6aa:	d8 01       	movw	r26, r16
     6ac:	57 96       	adiw	r26, 0x17	; 23
     6ae:	1c 92       	st	X, r1
     6b0:	1e 92       	st	-X, r1
     6b2:	56 97       	sbiw	r26, 0x16	; 22
     6b4:	af 01       	movw	r20, r30
     6b6:	0f c0       	rjmp	.+30     	;  0x6d6
     6b8:	fa 01       	movw	r30, r20
     6ba:	e2 0f       	add	r30, r18
     6bc:	f3 1f       	adc	r31, r19
     6be:	d8 01       	movw	r26, r16
     6c0:	a2 0f       	add	r26, r18
     6c2:	b3 1f       	adc	r27, r19
     6c4:	a1 56       	subi	r26, 0x61	; 97
     6c6:	bf 4f       	sbci	r27, 0xFF	; 255
     6c8:	8c 91       	ld	r24, X
     6ca:	80 83       	st	Z, r24
     6cc:	2f 5f       	subi	r18, 0xFF	; 255
     6ce:	3f 4f       	sbci	r19, 0xFF	; 255
     6d0:	f8 01       	movw	r30, r16
     6d2:	37 8b       	std	Z+23, r19	; 0x17
     6d4:	26 8b       	std	Z+22, r18	; 0x16
     6d6:	d8 01       	movw	r26, r16
     6d8:	56 96       	adiw	r26, 0x16	; 22
     6da:	2d 91       	ld	r18, X+
     6dc:	3c 91       	ld	r19, X
     6de:	57 97       	sbiw	r26, 0x17	; 23
     6e0:	2a 32       	cpi	r18, 0x2A	; 42
     6e2:	31 05       	cpc	r19, r1
     6e4:	4c f3       	brlt	.-46     	;  0x6b8
     6e6:	57 96       	adiw	r26, 0x17	; 23
     6e8:	1c 92       	st	X, r1
     6ea:	1e 92       	st	-X, r1
     6ec:	56 97       	sbiw	r26, 0x16	; 22
     6ee:	5c ec       	ldi	r21, 0xCC	; 204
     6f0:	e5 2e       	mov	r14, r21
     6f2:	f1 2c       	mov	r15, r1
     6f4:	e0 0e       	add	r14, r16
     6f6:	f1 1e       	adc	r15, r17
     6f8:	6e 01       	movw	r12, r28
     6fa:	08 94       	sec
     6fc:	c1 1c       	adc	r12, r1
     6fe:	d1 1c       	adc	r13, r1
     700:	19 c0       	rjmp	.+50     	;  0x734
     702:	ec 0d       	add	r30, r12
     704:	fd 1d       	adc	r31, r13
     706:	c7 01       	movw	r24, r14
     708:	60 81       	ld	r22, Z
     70a:	0e 94 94 0b 	call	0x1728	;  0x1728
     70e:	f8 01       	movw	r30, r16
     710:	82 83       	std	Z+2, r24	; 0x02
     712:	81 30       	cpi	r24, 0x01	; 1
     714:	39 f4       	brne	.+14     	;  0x724
     716:	84 83       	std	Z+4, r24	; 0x04
     718:	86 89       	ldd	r24, Z+22	; 0x16
     71a:	97 89       	ldd	r25, Z+23	; 0x17
     71c:	01 96       	adiw	r24, 0x01	; 1
     71e:	97 8b       	std	Z+23, r25	; 0x17
     720:	86 8b       	std	Z+22, r24	; 0x16
     722:	08 c0       	rjmp	.+16     	;  0x734
     724:	89 e2       	ldi	r24, 0x29	; 41
     726:	97 e0       	ldi	r25, 0x07	; 7
     728:	6f e1       	ldi	r22, 0x1F	; 31
     72a:	71 e0       	ldi	r23, 0x01	; 1
     72c:	0e 94 7a 2b 	call	0x56f4	;  0x56f4
     730:	80 e0       	ldi	r24, 0x00	; 0
     732:	16 c0       	rjmp	.+44     	;  0x760
     734:	d8 01       	movw	r26, r16
     736:	56 96       	adiw	r26, 0x16	; 22
     738:	ed 91       	ld	r30, X+
     73a:	fc 91       	ld	r31, X
     73c:	57 97       	sbiw	r26, 0x17	; 23
     73e:	ea 32       	cpi	r30, 0x2A	; 42
     740:	f1 05       	cpc	r31, r1
     742:	fc f2       	brlt	.-66     	;  0x702
     744:	c7 01       	movw	r24, r14
     746:	0e 94 50 0b 	call	0x16a0	;  0x16a0
     74a:	f8 01       	movw	r30, r16
     74c:	82 83       	std	Z+2, r24	; 0x02
     74e:	81 30       	cpi	r24, 0x01	; 1
     750:	11 f4       	brne	.+4      	;  0x756
     752:	84 83       	std	Z+4, r24	; 0x04
     754:	03 c0       	rjmp	.+6      	;  0x75c
     756:	d8 01       	movw	r26, r16
     758:	14 96       	adiw	r26, 0x04	; 4
     75a:	1c 92       	st	X, r1
     75c:	f8 01       	movw	r30, r16
     75e:	84 81       	ldd	r24, Z+4	; 0x04
     760:	aa 96       	adiw	r28, 0x2a	; 42
     762:	0f b6       	in	r0, 0x3f	; 63
     764:	f8 94       	cli
     766:	de bf       	out	0x3e, r29	; 62
     768:	0f be       	out	0x3f, r0	; 63
     76a:	cd bf       	out	0x3d, r28	; 61
     76c:	cf 91       	pop	r28
     76e:	df 91       	pop	r29
     770:	1f 91       	pop	r17
     772:	0f 91       	pop	r16
     774:	ff 90       	pop	r15
     776:	ef 90       	pop	r14
     778:	df 90       	pop	r13
     77a:	cf 90       	pop	r12
     77c:	08 95       	ret
     77e:	9f 92       	push	r9
     780:	af 92       	push	r10
     782:	bf 92       	push	r11
     784:	cf 92       	push	r12
     786:	df 92       	push	r13
     788:	ef 92       	push	r14
     78a:	ff 92       	push	r15
     78c:	0f 93       	push	r16
     78e:	1f 93       	push	r17
     790:	cf 93       	push	r28
     792:	df 93       	push	r29
     794:	ec 01       	movw	r28, r24
     796:	1f 82       	std	Y+7, r1	; 0x07
     798:	19 86       	std	Y+9, r1	; 0x09
     79a:	1b 8a       	std	Y+19, r1	; 0x13
     79c:	1a 8a       	std	Y+18, r1	; 0x12
     79e:	1d 8e       	std	Y+29, r1	; 0x1d
     7a0:	1c 8e       	std	Y+28, r1	; 0x1c
     7a2:	19 8e       	std	Y+25, r1	; 0x19
     7a4:	18 8e       	std	Y+24, r1	; 0x18
     7a6:	1b 8e       	std	Y+27, r1	; 0x1b
     7a8:	1a 8e       	std	Y+26, r1	; 0x1a
     7aa:	1f 8a       	std	Y+23, r1	; 0x17
     7ac:	1e 8a       	std	Y+22, r1	; 0x16
     7ae:	09 c0       	rjmp	.+18     	;  0x7c2
     7b0:	fe 01       	movw	r30, r28
     7b2:	e8 0f       	add	r30, r24
     7b4:	f9 1f       	adc	r31, r25
     7b6:	ea 57       	subi	r30, 0x7A	; 122
     7b8:	ff 4f       	sbci	r31, 0xFF	; 255
     7ba:	10 82       	st	Z, r1
     7bc:	01 96       	adiw	r24, 0x01	; 1
     7be:	9f 8b       	std	Y+23, r25	; 0x17
     7c0:	8e 8b       	std	Y+22, r24	; 0x16
     7c2:	8e 89       	ldd	r24, Y+22	; 0x16
     7c4:	9f 89       	ldd	r25, Y+23	; 0x17
     7c6:	89 31       	cpi	r24, 0x19	; 25
     7c8:	91 05       	cpc	r25, r1
     7ca:	94 f3       	brlt	.-28     	;  0x7b0
     7cc:	ce 01       	movw	r24, r28
     7ce:	0e 94 68 01 	call	0x2d0	;  0x2d0
     7d2:	8e 83       	std	Y+6, r24	; 0x06
     7d4:	88 23       	and	r24, r24
     7d6:	09 f4       	brne	.+2      	;  0x7da
     7d8:	a7 c0       	rjmp	.+334    	;  0x928
     7da:	81 30       	cpi	r24, 0x01	; 1
     7dc:	d1 f5       	brne	.+116    	;  0x852
     7de:	8e 01       	movw	r16, r28
     7e0:	00 5d       	subi	r16, 0xD0	; 208
     7e2:	1f 4f       	sbci	r17, 0xFF	; 255
     7e4:	ff 24       	eor	r15, r15
     7e6:	f3 94       	inc	r15
     7e8:	31 c0       	rjmp	.+98     	;  0x84c
     7ea:	8a 89       	ldd	r24, Y+18	; 0x12
     7ec:	9b 89       	ldd	r25, Y+19	; 0x13
     7ee:	6c 8d       	ldd	r22, Y+28	; 0x1c
     7f0:	7d 8d       	ldd	r23, Y+29	; 0x1d
     7f2:	02 97       	sbiw	r24, 0x02	; 2
     7f4:	e1 f4       	brne	.+56     	;  0x82e
     7f6:	c8 01       	movw	r24, r16
     7f8:	0e 94 d4 2b 	call	0x57a8	;  0x57a8
     7fc:	86 35       	cpi	r24, 0x56	; 86
     7fe:	41 f4       	brne	.+16     	;  0x810
     800:	89 e2       	ldi	r24, 0x29	; 41
     802:	97 e0       	ldi	r25, 0x07	; 7
     804:	6e e0       	ldi	r22, 0x0E	; 14
     806:	71 e0       	ldi	r23, 0x01	; 1
     808:	0e 94 7a 2b 	call	0x56f4	;  0x56f4
     80c:	80 e0       	ldi	r24, 0x00	; 0
     80e:	8c c0       	rjmp	.+280    	;  0x928
     810:	6c 8d       	ldd	r22, Y+28	; 0x1c
     812:	7d 8d       	ldd	r23, Y+29	; 0x1d
     814:	c8 01       	movw	r24, r16
     816:	0e 94 d4 2b 	call	0x57a8	;  0x57a8
     81a:	81 34       	cpi	r24, 0x41	; 65
     81c:	91 f4       	brne	.+36     	;  0x842
     81e:	89 e2       	ldi	r24, 0x29	; 41
     820:	97 e0       	ldi	r25, 0x07	; 7
     822:	61 e1       	ldi	r22, 0x11	; 17
     824:	71 e0       	ldi	r23, 0x01	; 1
     826:	0e 94 7a 2b 	call	0x56f4	;  0x56f4
     82a:	ff 82       	std	Y+7, r15	; 0x07
     82c:	0a c0       	rjmp	.+20     	;  0x842
     82e:	c8 01       	movw	r24, r16
     830:	0e 94 d4 2b 	call	0x57a8	;  0x57a8
     834:	8c 32       	cpi	r24, 0x2C	; 44
     836:	29 f4       	brne	.+10     	;  0x842
     838:	8a 89       	ldd	r24, Y+18	; 0x12
     83a:	9b 89       	ldd	r25, Y+19	; 0x13
     83c:	01 96       	adiw	r24, 0x01	; 1
     83e:	9b 8b       	std	Y+19, r25	; 0x13
     840:	8a 8b       	std	Y+18, r24	; 0x12
     842:	8c 8d       	ldd	r24, Y+28	; 0x1c
     844:	9d 8d       	ldd	r25, Y+29	; 0x1d
     846:	01 96       	adiw	r24, 0x01	; 1
     848:	9d 8f       	std	Y+29, r25	; 0x1d
     84a:	8c 8f       	std	Y+28, r24	; 0x1c
     84c:	8f 81       	ldd	r24, Y+7	; 0x07
     84e:	81 30       	cpi	r24, 0x01	; 1
     850:	61 f6       	brne	.-104    	;  0x7ea
     852:	8f 81       	ldd	r24, Y+7	; 0x07
     854:	81 30       	cpi	r24, 0x01	; 1
     856:	09 f0       	breq	.+2      	;  0x85a
     858:	66 c0       	rjmp	.+204    	;  0x926
     85a:	1b 8a       	std	Y+19, r1	; 0x13
     85c:	1a 8a       	std	Y+18, r1	; 0x12
     85e:	1f 8a       	std	Y+23, r1	; 0x17
     860:	1e 8a       	std	Y+22, r1	; 0x16
     862:	e0 e3       	ldi	r30, 0x30	; 48
     864:	ee 2e       	mov	r14, r30
     866:	f1 2c       	mov	r15, r1
     868:	ec 0e       	add	r14, r28
     86a:	fd 1e       	adc	r15, r29
     86c:	7e e9       	ldi	r23, 0x9E	; 158
     86e:	c7 2e       	mov	r12, r23
     870:	d1 2c       	mov	r13, r1
     872:	cc 0e       	add	r12, r28
     874:	dd 1e       	adc	r13, r29
     876:	99 24       	eor	r9, r9
     878:	93 94       	inc	r9
     87a:	67 e0       	ldi	r22, 0x07	; 7
     87c:	a6 2e       	mov	r10, r22
     87e:	b1 2c       	mov	r11, r1
     880:	4e c0       	rjmp	.+156    	;  0x91e
     882:	8a 89       	ldd	r24, Y+18	; 0x12
     884:	9b 89       	ldd	r25, Y+19	; 0x13
     886:	83 30       	cpi	r24, 0x03	; 3
     888:	91 05       	cpc	r25, r1
     88a:	51 f5       	brne	.+84     	;  0x8e0
     88c:	08 8d       	ldd	r16, Y+24	; 0x18
     88e:	19 8d       	ldd	r17, Y+25	; 0x19
     890:	6e 89       	ldd	r22, Y+22	; 0x16
     892:	7f 89       	ldd	r23, Y+23	; 0x17
     894:	c7 01       	movw	r24, r14
     896:	0e 94 d4 2b 	call	0x57a8	;  0x57a8
     89a:	0c 0f       	add	r16, r28
     89c:	1d 1f       	adc	r17, r29
     89e:	0a 57       	subi	r16, 0x7A	; 122
     8a0:	1f 4f       	sbci	r17, 0xFF	; 255
     8a2:	f8 01       	movw	r30, r16
     8a4:	80 83       	st	Z, r24
     8a6:	8a 8d       	ldd	r24, Y+26	; 0x1a
     8a8:	9b 8d       	ldd	r25, Y+27	; 0x1b
     8aa:	03 97       	sbiw	r24, 0x03	; 3
     8ac:	11 f4       	brne	.+4      	;  0x8b2
     8ae:	bb 8a       	std	Y+19, r11	; 0x13
     8b0:	aa 8a       	std	Y+18, r10	; 0x12
     8b2:	6e 89       	ldd	r22, Y+22	; 0x16
     8b4:	7f 89       	ldd	r23, Y+23	; 0x17
     8b6:	c7 01       	movw	r24, r14
     8b8:	0e 94 d4 2b 	call	0x57a8	;  0x57a8
     8bc:	8c 32       	cpi	r24, 0x2C	; 44
     8be:	29 f4       	brne	.+10     	;  0x8ca
     8c0:	8a 8d       	ldd	r24, Y+26	; 0x1a
     8c2:	9b 8d       	ldd	r25, Y+27	; 0x1b
     8c4:	01 96       	adiw	r24, 0x01	; 1
     8c6:	9b 8f       	std	Y+27, r25	; 0x1b
     8c8:	8a 8f       	std	Y+26, r24	; 0x1a
     8ca:	88 8d       	ldd	r24, Y+24	; 0x18
     8cc:	99 8d       	ldd	r25, Y+25	; 0x19
     8ce:	01 96       	adiw	r24, 0x01	; 1
     8d0:	99 8f       	std	Y+25, r25	; 0x19
     8d2:	88 8f       	std	Y+24, r24	; 0x18
     8d4:	8e 89       	ldd	r24, Y+22	; 0x16
     8d6:	9f 89       	ldd	r25, Y+23	; 0x17
     8d8:	01 96       	adiw	r24, 0x01	; 1
     8da:	9f 8b       	std	Y+23, r25	; 0x17
     8dc:	8e 8b       	std	Y+22, r24	; 0x16
     8de:	1f c0       	rjmp	.+62     	;  0x91e
     8e0:	07 97       	sbiw	r24, 0x07	; 7
     8e2:	59 f4       	brne	.+22     	;  0x8fa
     8e4:	f6 01       	movw	r30, r12
     8e6:	10 82       	st	Z, r1
     8e8:	89 e2       	ldi	r24, 0x29	; 41
     8ea:	97 e0       	ldi	r25, 0x07	; 7
     8ec:	62 e2       	ldi	r22, 0x22	; 34
     8ee:	71 e0       	ldi	r23, 0x01	; 1
     8f0:	0e 94 7a 2b 	call	0x56f4	;  0x56f4
     8f4:	99 86       	std	Y+9, r9	; 0x09
     8f6:	98 82       	st	Y, r9
     8f8:	12 c0       	rjmp	.+36     	;  0x91e
     8fa:	6e 89       	ldd	r22, Y+22	; 0x16
     8fc:	7f 89       	ldd	r23, Y+23	; 0x17
     8fe:	c7 01       	movw	r24, r14
     900:	0e 94 d4 2b 	call	0x57a8	;  0x57a8
     904:	2e 89       	ldd	r18, Y+22	; 0x16
     906:	3f 89       	ldd	r19, Y+23	; 0x17
     908:	8c 32       	cpi	r24, 0x2C	; 44
     90a:	29 f4       	brne	.+10     	;  0x916
     90c:	8a 89       	ldd	r24, Y+18	; 0x12
     90e:	9b 89       	ldd	r25, Y+19	; 0x13
     910:	01 96       	adiw	r24, 0x01	; 1
     912:	9b 8b       	std	Y+19, r25	; 0x13
     914:	8a 8b       	std	Y+18, r24	; 0x12
     916:	2f 5f       	subi	r18, 0xFF	; 255
     918:	3f 4f       	sbci	r19, 0xFF	; 255
     91a:	3f 8b       	std	Y+23, r19	; 0x17
     91c:	2e 8b       	std	Y+22, r18	; 0x16
     91e:	89 85       	ldd	r24, Y+9	; 0x09
     920:	81 30       	cpi	r24, 0x01	; 1
     922:	09 f0       	breq	.+2      	;  0x926
     924:	ae cf       	rjmp	.-164    	;  0x882
     926:	88 81       	ld	r24, Y
     928:	df 91       	pop	r29
     92a:	cf 91       	pop	r28
     92c:	1f 91       	pop	r17
     92e:	0f 91       	pop	r16
     930:	ff 90       	pop	r15
     932:	ef 90       	pop	r14
     934:	df 90       	pop	r13
     936:	cf 90       	pop	r12
     938:	bf 90       	pop	r11
     93a:	af 90       	pop	r10
     93c:	9f 90       	pop	r9
     93e:	08 95       	ret
     940:	ef 92       	push	r14
     942:	ff 92       	push	r15
     944:	0f 93       	push	r16
     946:	1f 93       	push	r17
     948:	cf 93       	push	r28
     94a:	df 93       	push	r29
     94c:	ec 01       	movw	r28, r24
     94e:	8c 01       	movw	r16, r24
     950:	0d 5a       	subi	r16, 0xAD	; 173
     952:	1f 4f       	sbci	r17, 0xFF	; 255
     954:	c8 01       	movw	r24, r16
     956:	60 e0       	ldi	r22, 0x00	; 0
     958:	71 e0       	ldi	r23, 0x01	; 1
     95a:	0e 94 8a 2c 	call	0x5914	;  0x5914
     95e:	fa e5       	ldi	r31, 0x5A	; 90
     960:	ef 2e       	mov	r14, r31
     962:	f1 2c       	mov	r15, r1
     964:	ec 0e       	add	r14, r28
     966:	fd 1e       	adc	r15, r29
     968:	c7 01       	movw	r24, r14
     96a:	60 e0       	ldi	r22, 0x00	; 0
     96c:	71 e0       	ldi	r23, 0x01	; 1
     96e:	0e 94 8a 2c 	call	0x5914	;  0x5914
     972:	1c 86       	std	Y+12, r1	; 0x0c
     974:	1d 86       	std	Y+13, r1	; 0x0d
     976:	1f 8a       	std	Y+23, r1	; 0x17
     978:	1e 8a       	std	Y+22, r1	; 0x16
     97a:	09 c0       	rjmp	.+18     	;  0x98e
     97c:	fe 01       	movw	r30, r28
     97e:	e8 0f       	add	r30, r24
     980:	f9 1f       	adc	r31, r25
     982:	ed 58       	subi	r30, 0x8D	; 141
     984:	ff 4f       	sbci	r31, 0xFF	; 255
     986:	10 82       	st	Z, r1
     988:	01 96       	adiw	r24, 0x01	; 1
     98a:	9f 8b       	std	Y+23, r25	; 0x17
     98c:	8e 8b       	std	Y+22, r24	; 0x16
     98e:	8e 89       	ldd	r24, Y+22	; 0x16
     990:	9f 89       	ldd	r25, Y+23	; 0x17
     992:	89 30       	cpi	r24, 0x09	; 9
     994:	91 05       	cpc	r25, r1
     996:	94 f3       	brlt	.-28     	;  0x97c
     998:	1f 8a       	std	Y+23, r1	; 0x17
     99a:	1e 8a       	std	Y+22, r1	; 0x16
     99c:	09 c0       	rjmp	.+18     	;  0x9b0
     99e:	fe 01       	movw	r30, r28
     9a0:	e8 0f       	add	r30, r24
     9a2:	f9 1f       	adc	r31, r25
     9a4:	e4 58       	subi	r30, 0x84	; 132
     9a6:	ff 4f       	sbci	r31, 0xFF	; 255
     9a8:	10 82       	st	Z, r1
     9aa:	01 96       	adiw	r24, 0x01	; 1
     9ac:	9f 8b       	std	Y+23, r25	; 0x17
     9ae:	8e 8b       	std	Y+22, r24	; 0x16
     9b0:	8e 89       	ldd	r24, Y+22	; 0x16
     9b2:	9f 89       	ldd	r25, Y+23	; 0x17
     9b4:	8a 30       	cpi	r24, 0x0A	; 10
     9b6:	91 05       	cpc	r25, r1
     9b8:	94 f3       	brlt	.-28     	;  0x99e
     9ba:	ce 01       	movw	r24, r28
     9bc:	0e 94 bf 03 	call	0x77e	;  0x77e
     9c0:	88 83       	st	Y, r24
     9c2:	81 30       	cpi	r24, 0x01	; 1
     9c4:	11 f0       	breq	.+4      	;  0x9ca
     9c6:	80 e0       	ldi	r24, 0x00	; 0
     9c8:	c0 c0       	rjmp	.+384    	;  0xb4a
     9ca:	de 01       	movw	r26, r28
     9cc:	ad 58       	subi	r26, 0x8D	; 141
     9ce:	bf 4f       	sbci	r27, 0xFF	; 255
     9d0:	ca 57       	subi	r28, 0x7A	; 122
     9d2:	df 4f       	sbci	r29, 0xFF	; 255
     9d4:	88 81       	ld	r24, Y
     9d6:	c6 58       	subi	r28, 0x86	; 134
     9d8:	d0 40       	sbci	r29, 0x00	; 0
     9da:	8c 93       	st	X, r24
     9dc:	fe 01       	movw	r30, r28
     9de:	ec 58       	subi	r30, 0x8C	; 140
     9e0:	ff 4f       	sbci	r31, 0xFF	; 255
     9e2:	c9 57       	subi	r28, 0x79	; 121
     9e4:	df 4f       	sbci	r29, 0xFF	; 255
     9e6:	88 81       	ld	r24, Y
     9e8:	c7 58       	subi	r28, 0x87	; 135
     9ea:	d0 40       	sbci	r29, 0x00	; 0
     9ec:	80 83       	st	Z, r24
     9ee:	fe 01       	movw	r30, r28
     9f0:	eb 58       	subi	r30, 0x8B	; 139
     9f2:	ff 4f       	sbci	r31, 0xFF	; 255
     9f4:	c8 57       	subi	r28, 0x78	; 120
     9f6:	df 4f       	sbci	r29, 0xFF	; 255
     9f8:	88 81       	ld	r24, Y
     9fa:	c8 58       	subi	r28, 0x88	; 136
     9fc:	d0 40       	sbci	r29, 0x00	; 0
     9fe:	80 83       	st	Z, r24
     a00:	fe 01       	movw	r30, r28
     a02:	ea 58       	subi	r30, 0x8A	; 138
     a04:	ff 4f       	sbci	r31, 0xFF	; 255
     a06:	c7 57       	subi	r28, 0x77	; 119
     a08:	df 4f       	sbci	r29, 0xFF	; 255
     a0a:	88 81       	ld	r24, Y
     a0c:	c9 58       	subi	r28, 0x89	; 137
     a0e:	d0 40       	sbci	r29, 0x00	; 0
     a10:	80 83       	st	Z, r24
     a12:	fe 01       	movw	r30, r28
     a14:	e9 58       	subi	r30, 0x89	; 137
     a16:	ff 4f       	sbci	r31, 0xFF	; 255
     a18:	c5 57       	subi	r28, 0x75	; 117
     a1a:	df 4f       	sbci	r29, 0xFF	; 255
     a1c:	88 81       	ld	r24, Y
     a1e:	cb 58       	subi	r28, 0x8B	; 139
     a20:	d0 40       	sbci	r29, 0x00	; 0
     a22:	80 83       	st	Z, r24
     a24:	fe 01       	movw	r30, r28
     a26:	e8 58       	subi	r30, 0x88	; 136
     a28:	ff 4f       	sbci	r31, 0xFF	; 255
     a2a:	c4 57       	subi	r28, 0x74	; 116
     a2c:	df 4f       	sbci	r29, 0xFF	; 255
     a2e:	88 81       	ld	r24, Y
     a30:	cc 58       	subi	r28, 0x8C	; 140
     a32:	d0 40       	sbci	r29, 0x00	; 0
     a34:	80 83       	st	Z, r24
     a36:	fe 01       	movw	r30, r28
     a38:	e7 58       	subi	r30, 0x87	; 135
     a3a:	ff 4f       	sbci	r31, 0xFF	; 255
     a3c:	c3 57       	subi	r28, 0x73	; 115
     a3e:	df 4f       	sbci	r29, 0xFF	; 255
     a40:	88 81       	ld	r24, Y
     a42:	cd 58       	subi	r28, 0x8D	; 141
     a44:	d0 40       	sbci	r29, 0x00	; 0
     a46:	80 83       	st	Z, r24
     a48:	fe 01       	movw	r30, r28
     a4a:	e6 58       	subi	r30, 0x86	; 134
     a4c:	ff 4f       	sbci	r31, 0xFF	; 255
     a4e:	c2 57       	subi	r28, 0x72	; 114
     a50:	df 4f       	sbci	r29, 0xFF	; 255
     a52:	88 81       	ld	r24, Y
     a54:	80 83       	st	Z, r24
     a56:	63 97       	sbiw	r28, 0x13	; 19
     a58:	18 82       	st	Y, r1
     a5a:	cb 57       	subi	r28, 0x7B	; 123
     a5c:	d0 40       	sbci	r29, 0x00	; 0
     a5e:	c8 01       	movw	r24, r16
     a60:	bd 01       	movw	r22, r26
     a62:	0e 94 8a 2c 	call	0x5914	;  0x5914
     a66:	c8 01       	movw	r24, r16
     a68:	0e 94 f6 2b 	call	0x57ec	;  0x57ec
     a6c:	68 a7       	std	Y+40, r22	; 0x28
     a6e:	79 a7       	std	Y+41, r23	; 0x29
     a70:	8a a7       	std	Y+42, r24	; 0x2a
     a72:	9b a7       	std	Y+43, r25	; 0x2b
     a74:	de 01       	movw	r26, r28
     a76:	a4 58       	subi	r26, 0x84	; 132
     a78:	bf 4f       	sbci	r27, 0xFF	; 255
     a7a:	ce 56       	subi	r28, 0x6E	; 110
     a7c:	df 4f       	sbci	r29, 0xFF	; 255
     a7e:	88 81       	ld	r24, Y
     a80:	c2 59       	subi	r28, 0x92	; 146
     a82:	d0 40       	sbci	r29, 0x00	; 0
     a84:	8c 93       	st	X, r24
     a86:	fe 01       	movw	r30, r28
     a88:	e3 58       	subi	r30, 0x83	; 131
     a8a:	ff 4f       	sbci	r31, 0xFF	; 255
     a8c:	cd 56       	subi	r28, 0x6D	; 109
     a8e:	df 4f       	sbci	r29, 0xFF	; 255
     a90:	88 81       	ld	r24, Y
     a92:	c3 59       	subi	r28, 0x93	; 147
     a94:	d0 40       	sbci	r29, 0x00	; 0
     a96:	80 83       	st	Z, r24
     a98:	fe 01       	movw	r30, r28
     a9a:	e2 58       	subi	r30, 0x82	; 130
     a9c:	ff 4f       	sbci	r31, 0xFF	; 255
     a9e:	cc 56       	subi	r28, 0x6C	; 108
     aa0:	df 4f       	sbci	r29, 0xFF	; 255
     aa2:	88 81       	ld	r24, Y
     aa4:	c4 59       	subi	r28, 0x94	; 148
     aa6:	d0 40       	sbci	r29, 0x00	; 0
     aa8:	80 83       	st	Z, r24
     aaa:	fe 01       	movw	r30, r28
     aac:	e1 58       	subi	r30, 0x81	; 129
     aae:	ff 4f       	sbci	r31, 0xFF	; 255
     ab0:	cb 56       	subi	r28, 0x6B	; 107
     ab2:	df 4f       	sbci	r29, 0xFF	; 255
     ab4:	88 81       	ld	r24, Y
     ab6:	c5 59       	subi	r28, 0x95	; 149
     ab8:	d0 40       	sbci	r29, 0x00	; 0
     aba:	80 83       	st	Z, r24
     abc:	fe 01       	movw	r30, r28
     abe:	e0 58       	subi	r30, 0x80	; 128
     ac0:	ff 4f       	sbci	r31, 0xFF	; 255
     ac2:	ca 56       	subi	r28, 0x6A	; 106
     ac4:	df 4f       	sbci	r29, 0xFF	; 255
     ac6:	88 81       	ld	r24, Y
     ac8:	c6 59       	subi	r28, 0x96	; 150
     aca:	d0 40       	sbci	r29, 0x00	; 0
     acc:	80 83       	st	Z, r24
     ace:	fe 01       	movw	r30, r28
     ad0:	ef 57       	subi	r30, 0x7F	; 127
     ad2:	ff 4f       	sbci	r31, 0xFF	; 255
     ad4:	c8 56       	subi	r28, 0x68	; 104
     ad6:	df 4f       	sbci	r29, 0xFF	; 255
     ad8:	88 81       	ld	r24, Y
     ada:	c8 59       	subi	r28, 0x98	; 152
     adc:	d0 40       	sbci	r29, 0x00	; 0
     ade:	80 83       	st	Z, r24
     ae0:	fe 01       	movw	r30, r28
     ae2:	ee 57       	subi	r30, 0x7E	; 126
     ae4:	ff 4f       	sbci	r31, 0xFF	; 255
     ae6:	c7 56       	subi	r28, 0x67	; 103
     ae8:	df 4f       	sbci	r29, 0xFF	; 255
     aea:	88 81       	ld	r24, Y
     aec:	c9 59       	subi	r28, 0x99	; 153
     aee:	d0 40       	sbci	r29, 0x00	; 0
     af0:	80 83       	st	Z, r24
     af2:	fe 01       	movw	r30, r28
     af4:	ed 57       	subi	r30, 0x7D	; 125
     af6:	ff 4f       	sbci	r31, 0xFF	; 255
     af8:	c6 56       	subi	r28, 0x66	; 102
     afa:	df 4f       	sbci	r29, 0xFF	; 255
     afc:	88 81       	ld	r24, Y
     afe:	ca 59       	subi	r28, 0x9A	; 154
     b00:	d0 40       	sbci	r29, 0x00	; 0
     b02:	80 83       	st	Z, r24
     b04:	fe 01       	movw	r30, r28
     b06:	ec 57       	subi	r30, 0x7C	; 124
     b08:	ff 4f       	sbci	r31, 0xFF	; 255
     b0a:	c5 56       	subi	r28, 0x65	; 101
     b0c:	df 4f       	sbci	r29, 0xFF	; 255
     b0e:	88 81       	ld	r24, Y
     b10:	80 83       	st	Z, r24
     b12:	66 97       	sbiw	r28, 0x16	; 22
     b14:	18 82       	st	Y, r1
     b16:	c5 58       	subi	r28, 0x85	; 133
     b18:	d0 40       	sbci	r29, 0x00	; 0
     b1a:	c7 01       	movw	r24, r14
     b1c:	bd 01       	movw	r22, r26
     b1e:	0e 94 8a 2c 	call	0x5914	;  0x5914
     b22:	c7 01       	movw	r24, r14
     b24:	0e 94 f6 2b 	call	0x57ec	;  0x57ec
     b28:	6c a7       	std	Y+44, r22	; 0x2c
     b2a:	7d a7       	std	Y+45, r23	; 0x2d
     b2c:	8e a7       	std	Y+46, r24	; 0x2e
     b2e:	9f a7       	std	Y+47, r25	; 0x2f
     b30:	c0 57       	subi	r28, 0x70	; 112
     b32:	df 4f       	sbci	r29, 0xFF	; 255
     b34:	88 81       	ld	r24, Y
     b36:	c0 59       	subi	r28, 0x90	; 144
     b38:	d0 40       	sbci	r29, 0x00	; 0
     b3a:	8c 87       	std	Y+12, r24	; 0x0c
     b3c:	c3 56       	subi	r28, 0x63	; 99
     b3e:	df 4f       	sbci	r29, 0xFF	; 255
     b40:	88 81       	ld	r24, Y
     b42:	cd 59       	subi	r28, 0x9D	; 157
     b44:	d0 40       	sbci	r29, 0x00	; 0
     b46:	8d 87       	std	Y+13, r24	; 0x0d
     b48:	81 e0       	ldi	r24, 0x01	; 1
     b4a:	df 91       	pop	r29
     b4c:	cf 91       	pop	r28
     b4e:	1f 91       	pop	r17
     b50:	0f 91       	pop	r16
     b52:	ff 90       	pop	r15
     b54:	ef 90       	pop	r14
     b56:	08 95       	ret
     b58:	ef 92       	push	r14
     b5a:	ff 92       	push	r15
     b5c:	0f 93       	push	r16
     b5e:	1f 93       	push	r17
     b60:	cf 93       	push	r28
     b62:	df 93       	push	r29
     b64:	ec 01       	movw	r28, r24
     b66:	8c 01       	movw	r16, r24
     b68:	0b 5b       	subi	r16, 0xBB	; 187
     b6a:	1f 4f       	sbci	r17, 0xFF	; 255
     b6c:	c8 01       	movw	r24, r16
     b6e:	60 e0       	ldi	r22, 0x00	; 0
     b70:	71 e0       	ldi	r23, 0x01	; 1
     b72:	0e 94 8a 2c 	call	0x5914	;  0x5914
     b76:	ac e4       	ldi	r26, 0x4C	; 76
     b78:	ea 2e       	mov	r14, r26
     b7a:	f1 2c       	mov	r15, r1
     b7c:	ec 0e       	add	r14, r28
     b7e:	fd 1e       	adc	r15, r29
     b80:	c7 01       	movw	r24, r14
     b82:	60 e0       	ldi	r22, 0x00	; 0
     b84:	71 e0       	ldi	r23, 0x01	; 1
     b86:	0e 94 8a 2c 	call	0x5914	;  0x5914
     b8a:	1a 86       	std	Y+10, r1	; 0x0a
     b8c:	1b 86       	std	Y+11, r1	; 0x0b
     b8e:	1f 8a       	std	Y+23, r1	; 0x17
     b90:	1e 8a       	std	Y+22, r1	; 0x16
     b92:	09 c0       	rjmp	.+18     	;  0xba6
     b94:	fe 01       	movw	r30, r28
     b96:	e8 0f       	add	r30, r24
     b98:	f9 1f       	adc	r31, r25
     b9a:	ed 58       	subi	r30, 0x8D	; 141
     b9c:	ff 4f       	sbci	r31, 0xFF	; 255
     b9e:	10 82       	st	Z, r1
     ba0:	01 96       	adiw	r24, 0x01	; 1
     ba2:	9f 8b       	std	Y+23, r25	; 0x17
     ba4:	8e 8b       	std	Y+22, r24	; 0x16
     ba6:	8e 89       	ldd	r24, Y+22	; 0x16
     ba8:	9f 89       	ldd	r25, Y+23	; 0x17
     baa:	89 30       	cpi	r24, 0x09	; 9
     bac:	91 05       	cpc	r25, r1
     bae:	94 f3       	brlt	.-28     	;  0xb94
     bb0:	1f 8a       	std	Y+23, r1	; 0x17
     bb2:	1e 8a       	std	Y+22, r1	; 0x16
     bb4:	09 c0       	rjmp	.+18     	;  0xbc8
     bb6:	fe 01       	movw	r30, r28
     bb8:	e8 0f       	add	r30, r24
     bba:	f9 1f       	adc	r31, r25
     bbc:	e4 58       	subi	r30, 0x84	; 132
     bbe:	ff 4f       	sbci	r31, 0xFF	; 255
     bc0:	10 82       	st	Z, r1
     bc2:	01 96       	adiw	r24, 0x01	; 1
     bc4:	9f 8b       	std	Y+23, r25	; 0x17
     bc6:	8e 8b       	std	Y+22, r24	; 0x16
     bc8:	8e 89       	ldd	r24, Y+22	; 0x16
     bca:	9f 89       	ldd	r25, Y+23	; 0x17
     bcc:	8a 30       	cpi	r24, 0x0A	; 10
     bce:	91 05       	cpc	r25, r1
     bd0:	94 f3       	brlt	.-28     	;  0xbb6
     bd2:	ce 01       	movw	r24, r28
     bd4:	0e 94 bf 03 	call	0x77e	;  0x77e
     bd8:	88 83       	st	Y, r24
     bda:	81 30       	cpi	r24, 0x01	; 1
     bdc:	11 f0       	breq	.+4      	;  0xbe2
     bde:	80 e0       	ldi	r24, 0x00	; 0
     be0:	c0 c0       	rjmp	.+384    	;  0xd62
     be2:	de 01       	movw	r26, r28
     be4:	ad 58       	subi	r26, 0x8D	; 141
     be6:	bf 4f       	sbci	r27, 0xFF	; 255
     be8:	ca 57       	subi	r28, 0x7A	; 122
     bea:	df 4f       	sbci	r29, 0xFF	; 255
     bec:	88 81       	ld	r24, Y
     bee:	c6 58       	subi	r28, 0x86	; 134
     bf0:	d0 40       	sbci	r29, 0x00	; 0
     bf2:	8c 93       	st	X, r24
     bf4:	fe 01       	movw	r30, r28
     bf6:	ec 58       	subi	r30, 0x8C	; 140
     bf8:	ff 4f       	sbci	r31, 0xFF	; 255
     bfa:	c9 57       	subi	r28, 0x79	; 121
     bfc:	df 4f       	sbci	r29, 0xFF	; 255
     bfe:	88 81       	ld	r24, Y
     c00:	c7 58       	subi	r28, 0x87	; 135
     c02:	d0 40       	sbci	r29, 0x00	; 0
     c04:	80 83       	st	Z, r24
     c06:	fe 01       	movw	r30, r28
     c08:	eb 58       	subi	r30, 0x8B	; 139
     c0a:	ff 4f       	sbci	r31, 0xFF	; 255
     c0c:	c8 57       	subi	r28, 0x78	; 120
     c0e:	df 4f       	sbci	r29, 0xFF	; 255
     c10:	88 81       	ld	r24, Y
     c12:	c8 58       	subi	r28, 0x88	; 136
     c14:	d0 40       	sbci	r29, 0x00	; 0
     c16:	80 83       	st	Z, r24
     c18:	fe 01       	movw	r30, r28
     c1a:	ea 58       	subi	r30, 0x8A	; 138
     c1c:	ff 4f       	sbci	r31, 0xFF	; 255
     c1e:	c7 57       	subi	r28, 0x77	; 119
     c20:	df 4f       	sbci	r29, 0xFF	; 255
     c22:	88 81       	ld	r24, Y
     c24:	c9 58       	subi	r28, 0x89	; 137
     c26:	d0 40       	sbci	r29, 0x00	; 0
     c28:	80 83       	st	Z, r24
     c2a:	fe 01       	movw	r30, r28
     c2c:	e9 58       	subi	r30, 0x89	; 137
     c2e:	ff 4f       	sbci	r31, 0xFF	; 255
     c30:	c5 57       	subi	r28, 0x75	; 117
     c32:	df 4f       	sbci	r29, 0xFF	; 255
     c34:	88 81       	ld	r24, Y
     c36:	cb 58       	subi	r28, 0x8B	; 139
     c38:	d0 40       	sbci	r29, 0x00	; 0
     c3a:	80 83       	st	Z, r24
     c3c:	fe 01       	movw	r30, r28
     c3e:	e8 58       	subi	r30, 0x88	; 136
     c40:	ff 4f       	sbci	r31, 0xFF	; 255
     c42:	c4 57       	subi	r28, 0x74	; 116
     c44:	df 4f       	sbci	r29, 0xFF	; 255
     c46:	88 81       	ld	r24, Y
     c48:	cc 58       	subi	r28, 0x8C	; 140
     c4a:	d0 40       	sbci	r29, 0x00	; 0
     c4c:	80 83       	st	Z, r24
     c4e:	fe 01       	movw	r30, r28
     c50:	e7 58       	subi	r30, 0x87	; 135
     c52:	ff 4f       	sbci	r31, 0xFF	; 255
     c54:	c3 57       	subi	r28, 0x73	; 115
     c56:	df 4f       	sbci	r29, 0xFF	; 255
     c58:	88 81       	ld	r24, Y
     c5a:	cd 58       	subi	r28, 0x8D	; 141
     c5c:	d0 40       	sbci	r29, 0x00	; 0
     c5e:	80 83       	st	Z, r24
     c60:	fe 01       	movw	r30, r28
     c62:	e6 58       	subi	r30, 0x86	; 134
     c64:	ff 4f       	sbci	r31, 0xFF	; 255
     c66:	c2 57       	subi	r28, 0x72	; 114
     c68:	df 4f       	sbci	r29, 0xFF	; 255
     c6a:	88 81       	ld	r24, Y
     c6c:	80 83       	st	Z, r24
     c6e:	63 97       	sbiw	r28, 0x13	; 19
     c70:	18 82       	st	Y, r1
     c72:	cb 57       	subi	r28, 0x7B	; 123
     c74:	d0 40       	sbci	r29, 0x00	; 0
     c76:	c8 01       	movw	r24, r16
     c78:	bd 01       	movw	r22, r26
     c7a:	0e 94 8a 2c 	call	0x5914	;  0x5914
     c7e:	c8 01       	movw	r24, r16
     c80:	0e 94 f6 2b 	call	0x57ec	;  0x57ec
     c84:	68 a3       	std	Y+32, r22	; 0x20
     c86:	79 a3       	std	Y+33, r23	; 0x21
     c88:	8a a3       	std	Y+34, r24	; 0x22
     c8a:	9b a3       	std	Y+35, r25	; 0x23
     c8c:	de 01       	movw	r26, r28
     c8e:	a4 58       	subi	r26, 0x84	; 132
     c90:	bf 4f       	sbci	r27, 0xFF	; 255
     c92:	ce 56       	subi	r28, 0x6E	; 110
     c94:	df 4f       	sbci	r29, 0xFF	; 255
     c96:	88 81       	ld	r24, Y
     c98:	c2 59       	subi	r28, 0x92	; 146
     c9a:	d0 40       	sbci	r29, 0x00	; 0
     c9c:	8c 93       	st	X, r24
     c9e:	fe 01       	movw	r30, r28
     ca0:	e3 58       	subi	r30, 0x83	; 131
     ca2:	ff 4f       	sbci	r31, 0xFF	; 255
     ca4:	cd 56       	subi	r28, 0x6D	; 109
     ca6:	df 4f       	sbci	r29, 0xFF	; 255
     ca8:	88 81       	ld	r24, Y
     caa:	c3 59       	subi	r28, 0x93	; 147
     cac:	d0 40       	sbci	r29, 0x00	; 0
     cae:	80 83       	st	Z, r24
     cb0:	fe 01       	movw	r30, r28
     cb2:	e2 58       	subi	r30, 0x82	; 130
     cb4:	ff 4f       	sbci	r31, 0xFF	; 255
     cb6:	cc 56       	subi	r28, 0x6C	; 108
     cb8:	df 4f       	sbci	r29, 0xFF	; 255
     cba:	88 81       	ld	r24, Y
     cbc:	c4 59       	subi	r28, 0x94	; 148
     cbe:	d0 40       	sbci	r29, 0x00	; 0
     cc0:	80 83       	st	Z, r24
     cc2:	fe 01       	movw	r30, r28
     cc4:	e1 58       	subi	r30, 0x81	; 129
     cc6:	ff 4f       	sbci	r31, 0xFF	; 255
     cc8:	cb 56       	subi	r28, 0x6B	; 107
     cca:	df 4f       	sbci	r29, 0xFF	; 255
     ccc:	88 81       	ld	r24, Y
     cce:	c5 59       	subi	r28, 0x95	; 149
     cd0:	d0 40       	sbci	r29, 0x00	; 0
     cd2:	80 83       	st	Z, r24
     cd4:	fe 01       	movw	r30, r28
     cd6:	e0 58       	subi	r30, 0x80	; 128
     cd8:	ff 4f       	sbci	r31, 0xFF	; 255
     cda:	ca 56       	subi	r28, 0x6A	; 106
     cdc:	df 4f       	sbci	r29, 0xFF	; 255
     cde:	88 81       	ld	r24, Y
     ce0:	c6 59       	subi	r28, 0x96	; 150
     ce2:	d0 40       	sbci	r29, 0x00	; 0
     ce4:	80 83       	st	Z, r24
     ce6:	fe 01       	movw	r30, r28
     ce8:	ef 57       	subi	r30, 0x7F	; 127
     cea:	ff 4f       	sbci	r31, 0xFF	; 255
     cec:	c8 56       	subi	r28, 0x68	; 104
     cee:	df 4f       	sbci	r29, 0xFF	; 255
     cf0:	88 81       	ld	r24, Y
     cf2:	c8 59       	subi	r28, 0x98	; 152
     cf4:	d0 40       	sbci	r29, 0x00	; 0
     cf6:	80 83       	st	Z, r24
     cf8:	fe 01       	movw	r30, r28
     cfa:	ee 57       	subi	r30, 0x7E	; 126
     cfc:	ff 4f       	sbci	r31, 0xFF	; 255
     cfe:	c7 56       	subi	r28, 0x67	; 103
     d00:	df 4f       	sbci	r29, 0xFF	; 255
     d02:	88 81       	ld	r24, Y
     d04:	c9 59       	subi	r28, 0x99	; 153
     d06:	d0 40       	sbci	r29, 0x00	; 0
     d08:	80 83       	st	Z, r24
     d0a:	fe 01       	movw	r30, r28
     d0c:	ed 57       	subi	r30, 0x7D	; 125
     d0e:	ff 4f       	sbci	r31, 0xFF	; 255
     d10:	c6 56       	subi	r28, 0x66	; 102
     d12:	df 4f       	sbci	r29, 0xFF	; 255
     d14:	88 81       	ld	r24, Y
     d16:	ca 59       	subi	r28, 0x9A	; 154
     d18:	d0 40       	sbci	r29, 0x00	; 0
     d1a:	80 83       	st	Z, r24
     d1c:	fe 01       	movw	r30, r28
     d1e:	ec 57       	subi	r30, 0x7C	; 124
     d20:	ff 4f       	sbci	r31, 0xFF	; 255
     d22:	c5 56       	subi	r28, 0x65	; 101
     d24:	df 4f       	sbci	r29, 0xFF	; 255
     d26:	88 81       	ld	r24, Y
     d28:	80 83       	st	Z, r24
     d2a:	66 97       	sbiw	r28, 0x16	; 22
     d2c:	18 82       	st	Y, r1
     d2e:	c5 58       	subi	r28, 0x85	; 133
     d30:	d0 40       	sbci	r29, 0x00	; 0
     d32:	c7 01       	movw	r24, r14
     d34:	bd 01       	movw	r22, r26
     d36:	0e 94 8a 2c 	call	0x5914	;  0x5914
     d3a:	c7 01       	movw	r24, r14
     d3c:	0e 94 f6 2b 	call	0x57ec	;  0x57ec
     d40:	6c a3       	std	Y+36, r22	; 0x24
     d42:	7d a3       	std	Y+37, r23	; 0x25
     d44:	8e a3       	std	Y+38, r24	; 0x26
     d46:	9f a3       	std	Y+39, r25	; 0x27
     d48:	c0 57       	subi	r28, 0x70	; 112
     d4a:	df 4f       	sbci	r29, 0xFF	; 255
     d4c:	88 81       	ld	r24, Y
     d4e:	c0 59       	subi	r28, 0x90	; 144
     d50:	d0 40       	sbci	r29, 0x00	; 0
     d52:	8a 87       	std	Y+10, r24	; 0x0a
     d54:	c3 56       	subi	r28, 0x63	; 99
     d56:	df 4f       	sbci	r29, 0xFF	; 255
     d58:	88 81       	ld	r24, Y
     d5a:	cd 59       	subi	r28, 0x9D	; 157
     d5c:	d0 40       	sbci	r29, 0x00	; 0
     d5e:	8b 87       	std	Y+11, r24	; 0x0b
     d60:	81 e0       	ldi	r24, 0x01	; 1
     d62:	df 91       	pop	r29
     d64:	cf 91       	pop	r28
     d66:	1f 91       	pop	r17
     d68:	0f 91       	pop	r16
     d6a:	ff 90       	pop	r15
     d6c:	ef 90       	pop	r14
     d6e:	08 95       	ret
     d70:	ef 92       	push	r14
     d72:	ff 92       	push	r15
     d74:	0f 93       	push	r16
     d76:	1f 93       	push	r17
     d78:	df 93       	push	r29
     d7a:	cf 93       	push	r28
     d7c:	cd b7       	in	r28, 0x3d	; 61
     d7e:	de b7       	in	r29, 0x3e	; 62
     d80:	69 97       	sbiw	r28, 0x19	; 25
     d82:	0f b6       	in	r0, 0x3f	; 63
     d84:	f8 94       	cli
     d86:	de bf       	out	0x3e, r29	; 62
     d88:	0f be       	out	0x3f, r0	; 63
     d8a:	cd bf       	out	0x3d, r28	; 61
     d8c:	8c 01       	movw	r16, r24
     d8e:	7e 01       	movw	r14, r28
     d90:	08 94       	sec
     d92:	e1 1c       	adc	r14, r1
     d94:	f1 1c       	adc	r15, r1
     d96:	89 e1       	ldi	r24, 0x19	; 25
     d98:	f7 01       	movw	r30, r14
     d9a:	11 92       	st	Z+, r1
     d9c:	8a 95       	dec	r24
     d9e:	e9 f7       	brne	.-6      	;  0xd9a
     da0:	8a ea       	ldi	r24, 0xAA	; 170
     da2:	89 83       	std	Y+1, r24	; 0x01
     da4:	f8 01       	movw	r30, r16
     da6:	11 8e       	std	Z+25, r1	; 0x19
     da8:	10 8e       	std	Z+24, r1	; 0x18
     daa:	c8 01       	movw	r24, r16
     dac:	0e 94 bf 03 	call	0x77e	;  0x77e
     db0:	f8 01       	movw	r30, r16
     db2:	80 87       	std	Z+8, r24	; 0x08
     db4:	88 23       	and	r24, r24
     db6:	41 f4       	brne	.+16     	;  0xdc8
     db8:	89 e2       	ldi	r24, 0x29	; 41
     dba:	97 e0       	ldi	r25, 0x07	; 7
     dbc:	6a e1       	ldi	r22, 0x1A	; 26
     dbe:	71 e0       	ldi	r23, 0x01	; 1
     dc0:	0e 94 7a 2b 	call	0x56f4	;  0x56f4
     dc4:	80 e0       	ldi	r24, 0x00	; 0
     dc6:	44 c0       	rjmp	.+136    	;  0xe50
     dc8:	81 30       	cpi	r24, 0x01	; 1
     dca:	09 f0       	breq	.+2      	;  0xdce
     dcc:	3f c0       	rjmp	.+126    	;  0xe4c
     dce:	81 e0       	ldi	r24, 0x01	; 1
     dd0:	90 e0       	ldi	r25, 0x00	; 0
     dd2:	f8 01       	movw	r30, r16
     dd4:	91 8f       	std	Z+25, r25	; 0x19
     dd6:	80 8f       	std	Z+24, r24	; 0x18
     dd8:	b8 01       	movw	r22, r16
     dda:	6a 57       	subi	r22, 0x7A	; 122
     ddc:	7f 4f       	sbci	r23, 0xFF	; 255
     dde:	89 e2       	ldi	r24, 0x29	; 41
     de0:	97 e0       	ldi	r25, 0x07	; 7
     de2:	0e 94 7a 2b 	call	0x56f4	;  0x56f4
     de6:	f8 01       	movw	r30, r16
     de8:	17 8a       	std	Z+23, r1	; 0x17
     dea:	16 8a       	std	Z+22, r1	; 0x16
     dec:	b7 01       	movw	r22, r14
     dee:	17 c0       	rjmp	.+46     	;  0xe1e
     df0:	f8 01       	movw	r30, r16
     df2:	20 8d       	ldd	r18, Z+24	; 0x18
     df4:	31 8d       	ldd	r19, Z+25	; 0x19
     df6:	26 0f       	add	r18, r22
     df8:	37 1f       	adc	r19, r23
     dfa:	a0 0f       	add	r26, r16
     dfc:	b1 1f       	adc	r27, r17
     dfe:	aa 57       	subi	r26, 0x7A	; 122
     e00:	bf 4f       	sbci	r27, 0xFF	; 255
     e02:	8c 91       	ld	r24, X
     e04:	f9 01       	movw	r30, r18
     e06:	80 83       	st	Z, r24
     e08:	f8 01       	movw	r30, r16
     e0a:	80 8d       	ldd	r24, Z+24	; 0x18
     e0c:	91 8d       	ldd	r25, Z+25	; 0x19
     e0e:	01 96       	adiw	r24, 0x01	; 1
     e10:	91 8f       	std	Z+25, r25	; 0x19
     e12:	80 8f       	std	Z+24, r24	; 0x18
     e14:	86 89       	ldd	r24, Z+22	; 0x16
     e16:	97 89       	ldd	r25, Z+23	; 0x17
     e18:	01 96       	adiw	r24, 0x01	; 1
     e1a:	97 8b       	std	Z+23, r25	; 0x17
     e1c:	86 8b       	std	Z+22, r24	; 0x16
     e1e:	f8 01       	movw	r30, r16
     e20:	a6 89       	ldd	r26, Z+22	; 0x16
     e22:	b7 89       	ldd	r27, Z+23	; 0x17
     e24:	a8 31       	cpi	r26, 0x18	; 24
     e26:	b1 05       	cpc	r27, r1
     e28:	1c f3       	brlt	.-58     	;  0xdf0
     e2a:	c8 01       	movw	r24, r16
     e2c:	87 5d       	subi	r24, 0xD7	; 215
     e2e:	9e 4f       	sbci	r25, 0xFE	; 254
     e30:	49 e1       	ldi	r20, 0x19	; 25
     e32:	50 e0       	ldi	r21, 0x00	; 0
     e34:	0e 94 9d 11 	call	0x233a	;  0x233a
     e38:	f8 01       	movw	r30, r16
     e3a:	81 83       	std	Z+1, r24	; 0x01
     e3c:	88 23       	and	r24, r24
     e3e:	11 f4       	brne	.+4      	;  0xe44
     e40:	10 82       	st	Z, r1
     e42:	04 c0       	rjmp	.+8      	;  0xe4c
     e44:	81 30       	cpi	r24, 0x01	; 1
     e46:	11 f4       	brne	.+4      	;  0xe4c
     e48:	f8 01       	movw	r30, r16
     e4a:	80 83       	st	Z, r24
     e4c:	f8 01       	movw	r30, r16
     e4e:	80 81       	ld	r24, Z
     e50:	69 96       	adiw	r28, 0x19	; 25
     e52:	0f b6       	in	r0, 0x3f	; 63
     e54:	f8 94       	cli
     e56:	de bf       	out	0x3e, r29	; 62
     e58:	0f be       	out	0x3f, r0	; 63
     e5a:	cd bf       	out	0x3d, r28	; 61
     e5c:	cf 91       	pop	r28
     e5e:	df 91       	pop	r29
     e60:	1f 91       	pop	r17
     e62:	0f 91       	pop	r16
     e64:	ff 90       	pop	r15
     e66:	ef 90       	pop	r14
     e68:	08 95       	ret
     e6a:	6f 92       	push	r6
     e6c:	7f 92       	push	r7
     e6e:	8f 92       	push	r8
     e70:	9f 92       	push	r9
     e72:	af 92       	push	r10
     e74:	bf 92       	push	r11
     e76:	cf 92       	push	r12
     e78:	df 92       	push	r13
     e7a:	ef 92       	push	r14
     e7c:	ff 92       	push	r15
     e7e:	0f 93       	push	r16
     e80:	1f 93       	push	r17
     e82:	df 93       	push	r29
     e84:	cf 93       	push	r28
     e86:	cd b7       	in	r28, 0x3d	; 61
     e88:	de b7       	in	r29, 0x3e	; 62
     e8a:	61 97       	sbiw	r28, 0x11	; 17
     e8c:	0f b6       	in	r0, 0x3f	; 63
     e8e:	f8 94       	cli
     e90:	de bf       	out	0x3e, r29	; 62
     e92:	0f be       	out	0x3f, r0	; 63
     e94:	cd bf       	out	0x3d, r28	; 61
     e96:	7c 01       	movw	r14, r24
     e98:	fe 01       	movw	r30, r28
     e9a:	33 96       	adiw	r30, 0x03	; 3
     e9c:	8f e0       	ldi	r24, 0x0F	; 15
     e9e:	df 01       	movw	r26, r30
     ea0:	1d 92       	st	X+, r1
     ea2:	8a 95       	dec	r24
     ea4:	e9 f7       	brne	.-6      	;  0xea0
     ea6:	19 82       	std	Y+1, r1	; 0x01
     ea8:	1a 82       	std	Y+2, r1	; 0x02
     eaa:	f7 01       	movw	r30, r14
     eac:	13 8a       	std	Z+19, r1	; 0x13
     eae:	12 8a       	std	Z+18, r1	; 0x12
     eb0:	17 86       	std	Z+15, r1	; 0x0f
     eb2:	16 86       	std	Z+14, r1	; 0x0e
     eb4:	11 8a       	std	Z+17, r1	; 0x11
     eb6:	10 8a       	std	Z+16, r1	; 0x10
     eb8:	27 e3       	ldi	r18, 0x37	; 55
     eba:	c2 2e       	mov	r12, r18
     ebc:	d1 2c       	mov	r13, r1
     ebe:	ce 0c       	add	r12, r14
     ec0:	df 1c       	adc	r13, r15
     ec2:	c6 01       	movw	r24, r12
     ec4:	60 e0       	ldi	r22, 0x00	; 0
     ec6:	71 e0       	ldi	r23, 0x01	; 1
     ec8:	0e 94 8a 2c 	call	0x5914	;  0x5914
     ecc:	9e e3       	ldi	r25, 0x3E	; 62
     ece:	89 2e       	mov	r8, r25
     ed0:	91 2c       	mov	r9, r1
     ed2:	8e 0c       	add	r8, r14
     ed4:	9f 1c       	adc	r9, r15
     ed6:	c4 01       	movw	r24, r8
     ed8:	60 e0       	ldi	r22, 0x00	; 0
     eda:	71 e0       	ldi	r23, 0x01	; 1
     edc:	0e 94 8a 2c 	call	0x5914	;  0x5914
     ee0:	83 ee       	ldi	r24, 0xE3	; 227
     ee2:	a8 2e       	mov	r10, r24
     ee4:	81 e0       	ldi	r24, 0x01	; 1
     ee6:	b8 2e       	mov	r11, r24
     ee8:	ae 0c       	add	r10, r14
     eea:	bf 1c       	adc	r11, r15
     eec:	b7 01       	movw	r22, r14
     eee:	62 5f       	subi	r22, 0xF2	; 242
     ef0:	7f 4f       	sbci	r23, 0xFF	; 255
     ef2:	c5 01       	movw	r24, r10
     ef4:	0e 94 cc 0d 	call	0x1b98	;  0x1b98
     ef8:	8f ef       	ldi	r24, 0xFF	; 255
     efa:	8b 83       	std	Y+3, r24	; 0x03
     efc:	d7 01       	movw	r26, r14
     efe:	1e 96       	adiw	r26, 0x0e	; 14
     f00:	9c 91       	ld	r25, X
     f02:	1e 97       	sbiw	r26, 0x0e	; 14
     f04:	1f 96       	adiw	r26, 0x0f	; 15
     f06:	8c 91       	ld	r24, X
     f08:	8c 83       	std	Y+4, r24	; 0x04
     f0a:	9d 83       	std	Y+5, r25	; 0x05
     f0c:	b7 01       	movw	r22, r14
     f0e:	60 5f       	subi	r22, 0xF0	; 240
     f10:	7f 4f       	sbci	r23, 0xFF	; 255
     f12:	c5 01       	movw	r24, r10
     f14:	0e 94 c0 0d 	call	0x1b80	;  0x1b80
     f18:	8e ef       	ldi	r24, 0xFE	; 254
     f1a:	8e 83       	std	Y+6, r24	; 0x06
     f1c:	f7 01       	movw	r30, r14
     f1e:	90 89       	ldd	r25, Z+16	; 0x10
     f20:	81 89       	ldd	r24, Z+17	; 0x11
     f22:	8f 83       	std	Y+7, r24	; 0x07
     f24:	98 87       	std	Y+8, r25	; 0x08
     f26:	8d ef       	ldi	r24, 0xFD	; 253
     f28:	89 87       	std	Y+9, r24	; 0x09
     f2a:	c5 01       	movw	r24, r10
     f2c:	b6 01       	movw	r22, r12
     f2e:	0e 94 30 0d 	call	0x1a60	;  0x1a60
     f32:	87 e0       	ldi	r24, 0x07	; 7
     f34:	90 e0       	ldi	r25, 0x00	; 0
     f36:	d7 01       	movw	r26, r14
     f38:	55 96       	adiw	r26, 0x15	; 21
     f3a:	9c 93       	st	X, r25
     f3c:	8e 93       	st	-X, r24
     f3e:	54 97       	sbiw	r26, 0x14	; 20
     f40:	57 96       	adiw	r26, 0x17	; 23
     f42:	1c 92       	st	X, r1
     f44:	1e 92       	st	-X, r1
     f46:	56 97       	sbiw	r26, 0x16	; 22
     f48:	00 e0       	ldi	r16, 0x00	; 0
     f4a:	10 e0       	ldi	r17, 0x00	; 0
     f4c:	3e 01       	movw	r6, r28
     f4e:	08 94       	sec
     f50:	61 1c       	adc	r6, r1
     f52:	71 1c       	adc	r7, r1
     f54:	24 c0       	rjmp	.+72     	;  0xf9e
     f56:	f7 01       	movw	r30, r14
     f58:	82 89       	ldd	r24, Z+18	; 0x12
     f5a:	93 89       	ldd	r25, Z+19	; 0x13
     f5c:	02 97       	sbiw	r24, 0x02	; 2
     f5e:	51 f4       	brne	.+20     	;  0xf74
     f60:	c6 01       	movw	r24, r12
     f62:	0e 94 d4 2b 	call	0x57a8	;  0x57a8
     f66:	f3 01       	movw	r30, r6
     f68:	e0 0f       	add	r30, r16
     f6a:	f1 1f       	adc	r31, r17
     f6c:	80 83       	st	Z, r24
     f6e:	0f 5f       	subi	r16, 0xFF	; 255
     f70:	1f 4f       	sbci	r17, 0xFF	; 255
     f72:	0f c0       	rjmp	.+30     	;  0xf92
     f74:	c6 01       	movw	r24, r12
     f76:	0e 94 d4 2b 	call	0x57a8	;  0x57a8
     f7a:	8c 32       	cpi	r24, 0x2C	; 44
     f7c:	51 f4       	brne	.+20     	;  0xf92
     f7e:	d7 01       	movw	r26, r14
     f80:	52 96       	adiw	r26, 0x12	; 18
     f82:	8d 91       	ld	r24, X+
     f84:	9c 91       	ld	r25, X
     f86:	53 97       	sbiw	r26, 0x13	; 19
     f88:	01 96       	adiw	r24, 0x01	; 1
     f8a:	53 96       	adiw	r26, 0x13	; 19
     f8c:	9c 93       	st	X, r25
     f8e:	8e 93       	st	-X, r24
     f90:	52 97       	sbiw	r26, 0x12	; 18
     f92:	f7 01       	movw	r30, r14
     f94:	86 89       	ldd	r24, Z+22	; 0x16
     f96:	97 89       	ldd	r25, Z+23	; 0x17
     f98:	01 96       	adiw	r24, 0x01	; 1
     f9a:	97 8b       	std	Z+23, r25	; 0x17
     f9c:	86 8b       	std	Z+22, r24	; 0x16
     f9e:	d7 01       	movw	r26, r14
     fa0:	56 96       	adiw	r26, 0x16	; 22
     fa2:	6d 91       	ld	r22, X+
     fa4:	7c 91       	ld	r23, X
     fa6:	57 97       	sbiw	r26, 0x17	; 23
     fa8:	db 96       	adiw	r26, 0x3b	; 59
     faa:	8d 91       	ld	r24, X+
     fac:	9c 91       	ld	r25, X
     fae:	dc 97       	sbiw	r26, 0x3c	; 60
     fb0:	01 97       	sbiw	r24, 0x01	; 1
     fb2:	86 17       	cp	r24, r22
     fb4:	97 07       	cpc	r25, r23
     fb6:	78 f6       	brcc	.-98     	;  0xf56
     fb8:	de 01       	movw	r26, r28
     fba:	13 96       	adiw	r26, 0x03	; 3
     fbc:	f7 01       	movw	r30, r14
     fbe:	84 89       	ldd	r24, Z+20	; 0x14
     fc0:	95 89       	ldd	r25, Z+21	; 0x15
     fc2:	29 81       	ldd	r18, Y+1	; 0x01
     fc4:	01 30       	cpi	r16, 0x01	; 1
     fc6:	11 05       	cpc	r17, r1
     fc8:	61 f4       	brne	.+24     	;  0xfe2
     fca:	fd 01       	movw	r30, r26
     fcc:	e8 0f       	add	r30, r24
     fce:	f9 1f       	adc	r31, r25
     fd0:	10 82       	st	Z, r1
     fd2:	01 96       	adiw	r24, 0x01	; 1
     fd4:	f7 01       	movw	r30, r14
     fd6:	95 8b       	std	Z+21, r25	; 0x15
     fd8:	84 8b       	std	Z+20, r24	; 0x14
     fda:	a8 0f       	add	r26, r24
     fdc:	b9 1f       	adc	r27, r25
     fde:	2c 93       	st	X, r18
     fe0:	0c c0       	rjmp	.+24     	;  0xffa
     fe2:	fd 01       	movw	r30, r26
     fe4:	e8 0f       	add	r30, r24
     fe6:	f9 1f       	adc	r31, r25
     fe8:	20 83       	st	Z, r18
     fea:	01 96       	adiw	r24, 0x01	; 1
     fec:	f7 01       	movw	r30, r14
     fee:	95 8b       	std	Z+21, r25	; 0x15
     ff0:	84 8b       	std	Z+20, r24	; 0x14
     ff2:	a8 0f       	add	r26, r24
     ff4:	b9 1f       	adc	r27, r25
     ff6:	8a 81       	ldd	r24, Y+2	; 0x02
     ff8:	8c 93       	st	X, r24
     ffa:	c5 01       	movw	r24, r10
     ffc:	b4 01       	movw	r22, r8
     ffe:	0e 94 91 0c 	call	0x1922	;  0x1922
    1002:	d7 01       	movw	r26, r14
    1004:	8c 93       	st	X, r24
    1006:	81 30       	cpi	r24, 0x01	; 1
    1008:	09 f0       	breq	.+2      	;  0x100c
    100a:	8d c0       	rjmp	.+282    	;  0x1126
    100c:	c4 01       	movw	r24, r8
    100e:	60 e0       	ldi	r22, 0x00	; 0
    1010:	70 e0       	ldi	r23, 0x00	; 0
    1012:	0e 94 d4 2b 	call	0x57a8	;  0x57a8
    1016:	82 30       	cpi	r24, 0x02	; 2
    1018:	09 f0       	breq	.+2      	;  0x101c
    101a:	8b c0       	rjmp	.+278    	;  0x1132
    101c:	c4 01       	movw	r24, r8
    101e:	64 e0       	ldi	r22, 0x04	; 4
    1020:	70 e0       	ldi	r23, 0x00	; 0
    1022:	0e 94 d4 2b 	call	0x57a8	;  0x57a8
    1026:	83 30       	cpi	r24, 0x03	; 3
    1028:	09 f0       	breq	.+2      	;  0x102c
    102a:	83 c0       	rjmp	.+262    	;  0x1132
    102c:	8c ef       	ldi	r24, 0xFC	; 252
    102e:	8c 87       	std	Y+12, r24	; 0x0c
    1030:	89 e2       	ldi	r24, 0x29	; 41
    1032:	97 e0       	ldi	r25, 0x07	; 7
    1034:	67 e2       	ldi	r22, 0x27	; 39
    1036:	71 e0       	ldi	r23, 0x01	; 1
    1038:	0e 94 7a 2b 	call	0x56f4	;  0x56f4
    103c:	8a e0       	ldi	r24, 0x0A	; 10
    103e:	90 e0       	ldi	r25, 0x00	; 0
    1040:	f7 01       	movw	r30, r14
    1042:	95 8b       	std	Z+21, r25	; 0x15
    1044:	84 8b       	std	Z+20, r24	; 0x14
    1046:	17 8a       	std	Z+23, r1	; 0x17
    1048:	16 8a       	std	Z+22, r1	; 0x16
    104a:	02 e4       	ldi	r16, 0x42	; 66
    104c:	c0 2e       	mov	r12, r16
    104e:	d1 2c       	mov	r13, r1
    1050:	ce 0c       	add	r12, r14
    1052:	df 1c       	adc	r13, r15
    1054:	13 e0       	ldi	r17, 0x03	; 3
    1056:	a1 2e       	mov	r10, r17
    1058:	b1 2c       	mov	r11, r1
    105a:	ac 0e       	add	r10, r28
    105c:	bd 1e       	adc	r11, r29
    105e:	1f c0       	rjmp	.+62     	;  0x109e
    1060:	d7 01       	movw	r26, r14
    1062:	54 96       	adiw	r26, 0x14	; 20
    1064:	0d 91       	ld	r16, X+
    1066:	1c 91       	ld	r17, X
    1068:	55 97       	sbiw	r26, 0x15	; 21
    106a:	c4 01       	movw	r24, r8
    106c:	0e 94 d4 2b 	call	0x57a8	;  0x57a8
    1070:	0a 0d       	add	r16, r10
    1072:	1b 1d       	adc	r17, r11
    1074:	f8 01       	movw	r30, r16
    1076:	80 83       	st	Z, r24
    1078:	d7 01       	movw	r26, r14
    107a:	54 96       	adiw	r26, 0x14	; 20
    107c:	8d 91       	ld	r24, X+
    107e:	9c 91       	ld	r25, X
    1080:	55 97       	sbiw	r26, 0x15	; 21
    1082:	01 96       	adiw	r24, 0x01	; 1
    1084:	55 96       	adiw	r26, 0x15	; 21
    1086:	9c 93       	st	X, r25
    1088:	8e 93       	st	-X, r24
    108a:	54 97       	sbiw	r26, 0x14	; 20
    108c:	56 96       	adiw	r26, 0x16	; 22
    108e:	8d 91       	ld	r24, X+
    1090:	9c 91       	ld	r25, X
    1092:	57 97       	sbiw	r26, 0x17	; 23
    1094:	01 96       	adiw	r24, 0x01	; 1
    1096:	57 96       	adiw	r26, 0x17	; 23
    1098:	9c 93       	st	X, r25
    109a:	8e 93       	st	-X, r24
    109c:	56 97       	sbiw	r26, 0x16	; 22
    109e:	f7 01       	movw	r30, r14
    10a0:	66 89       	ldd	r22, Z+22	; 0x16
    10a2:	77 89       	ldd	r23, Z+23	; 0x17
    10a4:	d6 01       	movw	r26, r12
    10a6:	8d 91       	ld	r24, X+
    10a8:	9c 91       	ld	r25, X
    10aa:	01 97       	sbiw	r24, 0x01	; 1
    10ac:	86 17       	cp	r24, r22
    10ae:	97 07       	cpc	r25, r23
    10b0:	b8 f6       	brcc	.-82     	;  0x1060
    10b2:	17 8a       	std	Z+23, r1	; 0x17
    10b4:	16 8a       	std	Z+22, r1	; 0x16
    10b6:	87 01       	movw	r16, r14
    10b8:	04 53       	subi	r16, 0x34	; 52
    10ba:	1f 4f       	sbci	r17, 0xFF	; 255
    10bc:	b3 e0       	ldi	r27, 0x03	; 3
    10be:	cb 2e       	mov	r12, r27
    10c0:	d1 2c       	mov	r13, r1
    10c2:	cc 0e       	add	r12, r28
    10c4:	dd 1e       	adc	r13, r29
    10c6:	1a c0       	rjmp	.+52     	;  0x10fc
    10c8:	ec 0d       	add	r30, r12
    10ca:	fd 1d       	adc	r31, r13
    10cc:	60 81       	ld	r22, Z
    10ce:	c8 01       	movw	r24, r16
    10d0:	70 e0       	ldi	r23, 0x00	; 0
    10d2:	0e 94 bd 0b 	call	0x177a	;  0x177a
    10d6:	f7 01       	movw	r30, r14
    10d8:	82 83       	std	Z+2, r24	; 0x02
    10da:	81 30       	cpi	r24, 0x01	; 1
    10dc:	39 f4       	brne	.+14     	;  0x10ec
    10de:	84 83       	std	Z+4, r24	; 0x04
    10e0:	86 89       	ldd	r24, Z+22	; 0x16
    10e2:	97 89       	ldd	r25, Z+23	; 0x17
    10e4:	01 96       	adiw	r24, 0x01	; 1
    10e6:	97 8b       	std	Z+23, r25	; 0x17
    10e8:	86 8b       	std	Z+22, r24	; 0x16
    10ea:	08 c0       	rjmp	.+16     	;  0x10fc
    10ec:	89 e2       	ldi	r24, 0x29	; 41
    10ee:	97 e0       	ldi	r25, 0x07	; 7
    10f0:	6f e1       	ldi	r22, 0x1F	; 31
    10f2:	71 e0       	ldi	r23, 0x01	; 1
    10f4:	0e 94 7a 2b 	call	0x56f4	;  0x56f4
    10f8:	80 e0       	ldi	r24, 0x00	; 0
    10fa:	20 c0       	rjmp	.+64     	;  0x113c
    10fc:	d7 01       	movw	r26, r14
    10fe:	56 96       	adiw	r26, 0x16	; 22
    1100:	ed 91       	ld	r30, X+
    1102:	fc 91       	ld	r31, X
    1104:	57 97       	sbiw	r26, 0x17	; 23
    1106:	ef 30       	cpi	r30, 0x0F	; 15
    1108:	f1 05       	cpc	r31, r1
    110a:	f4 f2       	brlt	.-68     	;  0x10c8
    110c:	c8 01       	movw	r24, r16
    110e:	0e 94 50 0b 	call	0x16a0	;  0x16a0
    1112:	f7 01       	movw	r30, r14
    1114:	82 83       	std	Z+2, r24	; 0x02
    1116:	81 30       	cpi	r24, 0x01	; 1
    1118:	11 f4       	brne	.+4      	;  0x111e
    111a:	84 83       	std	Z+4, r24	; 0x04
    111c:	0c c0       	rjmp	.+24     	;  0x1136
    111e:	d7 01       	movw	r26, r14
    1120:	14 96       	adiw	r26, 0x04	; 4
    1122:	1c 92       	st	X, r1
    1124:	08 c0       	rjmp	.+16     	;  0x1136
    1126:	89 e2       	ldi	r24, 0x29	; 41
    1128:	97 e0       	ldi	r25, 0x07	; 7
    112a:	6b e2       	ldi	r22, 0x2B	; 43
    112c:	71 e0       	ldi	r23, 0x01	; 1
    112e:	0e 94 7a 2b 	call	0x56f4	;  0x56f4
    1132:	f7 01       	movw	r30, r14
    1134:	14 82       	std	Z+4, r1	; 0x04
    1136:	d7 01       	movw	r26, r14
    1138:	14 96       	adiw	r26, 0x04	; 4
    113a:	8c 91       	ld	r24, X
    113c:	61 96       	adiw	r28, 0x11	; 17
    113e:	0f b6       	in	r0, 0x3f	; 63
    1140:	f8 94       	cli
    1142:	de bf       	out	0x3e, r29	; 62
    1144:	0f be       	out	0x3f, r0	; 63
    1146:	cd bf       	out	0x3d, r28	; 61
    1148:	cf 91       	pop	r28
    114a:	df 91       	pop	r29
    114c:	1f 91       	pop	r17
    114e:	0f 91       	pop	r16
    1150:	ff 90       	pop	r15
    1152:	ef 90       	pop	r14
    1154:	df 90       	pop	r13
    1156:	cf 90       	pop	r12
    1158:	bf 90       	pop	r11
    115a:	af 90       	pop	r10
    115c:	9f 90       	pop	r9
    115e:	8f 90       	pop	r8
    1160:	7f 90       	pop	r7
    1162:	6f 90       	pop	r6
    1164:	08 95       	ret
    1166:	6f 92       	push	r6
    1168:	7f 92       	push	r7
    116a:	8f 92       	push	r8
    116c:	9f 92       	push	r9
    116e:	af 92       	push	r10
    1170:	bf 92       	push	r11
    1172:	cf 92       	push	r12
    1174:	df 92       	push	r13
    1176:	ef 92       	push	r14
    1178:	ff 92       	push	r15
    117a:	0f 93       	push	r16
    117c:	1f 93       	push	r17
    117e:	df 93       	push	r29
    1180:	cf 93       	push	r28
    1182:	cd b7       	in	r28, 0x3d	; 61
    1184:	de b7       	in	r29, 0x3e	; 62
    1186:	61 97       	sbiw	r28, 0x11	; 17
    1188:	0f b6       	in	r0, 0x3f	; 63
    118a:	f8 94       	cli
    118c:	de bf       	out	0x3e, r29	; 62
    118e:	0f be       	out	0x3f, r0	; 63
    1190:	cd bf       	out	0x3d, r28	; 61
    1192:	7c 01       	movw	r14, r24
    1194:	fe 01       	movw	r30, r28
    1196:	33 96       	adiw	r30, 0x03	; 3
    1198:	8f e0       	ldi	r24, 0x0F	; 15
    119a:	df 01       	movw	r26, r30
    119c:	1d 92       	st	X+, r1
    119e:	8a 95       	dec	r24
    11a0:	e9 f7       	brne	.-6      	;  0x119c
    11a2:	19 82       	std	Y+1, r1	; 0x01
    11a4:	1a 82       	std	Y+2, r1	; 0x02
    11a6:	f7 01       	movw	r30, r14
    11a8:	13 8a       	std	Z+19, r1	; 0x13
    11aa:	12 8a       	std	Z+18, r1	; 0x12
    11ac:	17 86       	std	Z+15, r1	; 0x0f
    11ae:	16 86       	std	Z+14, r1	; 0x0e
    11b0:	11 8a       	std	Z+17, r1	; 0x11
    11b2:	10 8a       	std	Z+16, r1	; 0x10
    11b4:	77 e3       	ldi	r23, 0x37	; 55
    11b6:	c7 2e       	mov	r12, r23
    11b8:	d1 2c       	mov	r13, r1
    11ba:	ce 0c       	add	r12, r14
    11bc:	df 1c       	adc	r13, r15
    11be:	c6 01       	movw	r24, r12
    11c0:	60 e0       	ldi	r22, 0x00	; 0
    11c2:	71 e0       	ldi	r23, 0x01	; 1
    11c4:	0e 94 8a 2c 	call	0x5914	;  0x5914
    11c8:	6e e3       	ldi	r22, 0x3E	; 62
    11ca:	86 2e       	mov	r8, r22
    11cc:	91 2c       	mov	r9, r1
    11ce:	8e 0c       	add	r8, r14
    11d0:	9f 1c       	adc	r9, r15
    11d2:	c4 01       	movw	r24, r8
    11d4:	60 e0       	ldi	r22, 0x00	; 0
    11d6:	71 e0       	ldi	r23, 0x01	; 1
    11d8:	0e 94 8a 2c 	call	0x5914	;  0x5914
    11dc:	53 ee       	ldi	r21, 0xE3	; 227
    11de:	a5 2e       	mov	r10, r21
    11e0:	51 e0       	ldi	r21, 0x01	; 1
    11e2:	b5 2e       	mov	r11, r21
    11e4:	ae 0c       	add	r10, r14
    11e6:	bf 1c       	adc	r11, r15
    11e8:	b7 01       	movw	r22, r14
    11ea:	62 5f       	subi	r22, 0xF2	; 242
    11ec:	7f 4f       	sbci	r23, 0xFF	; 255
    11ee:	c5 01       	movw	r24, r10
    11f0:	0e 94 cc 0d 	call	0x1b98	;  0x1b98
    11f4:	8f ef       	ldi	r24, 0xFF	; 255
    11f6:	8b 83       	std	Y+3, r24	; 0x03
    11f8:	d7 01       	movw	r26, r14
    11fa:	1f 96       	adiw	r26, 0x0f	; 15
    11fc:	8c 91       	ld	r24, X
    11fe:	1f 97       	sbiw	r26, 0x0f	; 15
    1200:	8c 83       	std	Y+4, r24	; 0x04
    1202:	1e 96       	adiw	r26, 0x0e	; 14
    1204:	8c 91       	ld	r24, X
    1206:	8d 83       	std	Y+5, r24	; 0x05
    1208:	b7 01       	movw	r22, r14
    120a:	60 5f       	subi	r22, 0xF0	; 240
    120c:	7f 4f       	sbci	r23, 0xFF	; 255
    120e:	c5 01       	movw	r24, r10
    1210:	0e 94 c0 0d 	call	0x1b80	;  0x1b80
    1214:	8e ef       	ldi	r24, 0xFE	; 254
    1216:	8e 83       	std	Y+6, r24	; 0x06
    1218:	f7 01       	movw	r30, r14
    121a:	90 89       	ldd	r25, Z+16	; 0x10
    121c:	81 89       	ldd	r24, Z+17	; 0x11
    121e:	8f 83       	std	Y+7, r24	; 0x07
    1220:	98 87       	std	Y+8, r25	; 0x08
    1222:	8d ef       	ldi	r24, 0xFD	; 253
    1224:	89 87       	std	Y+9, r24	; 0x09
    1226:	c5 01       	movw	r24, r10
    1228:	b6 01       	movw	r22, r12
    122a:	0e 94 30 0d 	call	0x1a60	;  0x1a60
    122e:	87 e0       	ldi	r24, 0x07	; 7
    1230:	90 e0       	ldi	r25, 0x00	; 0
    1232:	d7 01       	movw	r26, r14
    1234:	55 96       	adiw	r26, 0x15	; 21
    1236:	9c 93       	st	X, r25
    1238:	8e 93       	st	-X, r24
    123a:	54 97       	sbiw	r26, 0x14	; 20
    123c:	57 96       	adiw	r26, 0x17	; 23
    123e:	1c 92       	st	X, r1
    1240:	1e 92       	st	-X, r1
    1242:	56 97       	sbiw	r26, 0x16	; 22
    1244:	00 e0       	ldi	r16, 0x00	; 0
    1246:	10 e0       	ldi	r17, 0x00	; 0
    1248:	3e 01       	movw	r6, r28
    124a:	08 94       	sec
    124c:	61 1c       	adc	r6, r1
    124e:	71 1c       	adc	r7, r1
    1250:	24 c0       	rjmp	.+72     	;  0x129a
    1252:	f7 01       	movw	r30, r14
    1254:	82 89       	ldd	r24, Z+18	; 0x12
    1256:	93 89       	ldd	r25, Z+19	; 0x13
    1258:	02 97       	sbiw	r24, 0x02	; 2
    125a:	51 f4       	brne	.+20     	;  0x1270
    125c:	c6 01       	movw	r24, r12
    125e:	0e 94 d4 2b 	call	0x57a8	;  0x57a8
    1262:	f3 01       	movw	r30, r6
    1264:	e0 0f       	add	r30, r16
    1266:	f1 1f       	adc	r31, r17
    1268:	80 83       	st	Z, r24
    126a:	0f 5f       	subi	r16, 0xFF	; 255
    126c:	1f 4f       	sbci	r17, 0xFF	; 255
    126e:	0f c0       	rjmp	.+30     	;  0x128e
    1270:	c6 01       	movw	r24, r12
    1272:	0e 94 d4 2b 	call	0x57a8	;  0x57a8
    1276:	8c 32       	cpi	r24, 0x2C	; 44
    1278:	51 f4       	brne	.+20     	;  0x128e
    127a:	d7 01       	movw	r26, r14
    127c:	52 96       	adiw	r26, 0x12	; 18
    127e:	8d 91       	ld	r24, X+
    1280:	9c 91       	ld	r25, X
    1282:	53 97       	sbiw	r26, 0x13	; 19
    1284:	01 96       	adiw	r24, 0x01	; 1
    1286:	53 96       	adiw	r26, 0x13	; 19
    1288:	9c 93       	st	X, r25
    128a:	8e 93       	st	-X, r24
    128c:	52 97       	sbiw	r26, 0x12	; 18
    128e:	f7 01       	movw	r30, r14
    1290:	86 89       	ldd	r24, Z+22	; 0x16
    1292:	97 89       	ldd	r25, Z+23	; 0x17
    1294:	01 96       	adiw	r24, 0x01	; 1
    1296:	97 8b       	std	Z+23, r25	; 0x17
    1298:	86 8b       	std	Z+22, r24	; 0x16
    129a:	d7 01       	movw	r26, r14
    129c:	56 96       	adiw	r26, 0x16	; 22
    129e:	6d 91       	ld	r22, X+
    12a0:	7c 91       	ld	r23, X
    12a2:	57 97       	sbiw	r26, 0x17	; 23
    12a4:	db 96       	adiw	r26, 0x3b	; 59
    12a6:	8d 91       	ld	r24, X+
    12a8:	9c 91       	ld	r25, X
    12aa:	dc 97       	sbiw	r26, 0x3c	; 60
    12ac:	01 97       	sbiw	r24, 0x01	; 1
    12ae:	86 17       	cp	r24, r22
    12b0:	97 07       	cpc	r25, r23
    12b2:	78 f6       	brcc	.-98     	;  0x1252
    12b4:	de 01       	movw	r26, r28
    12b6:	13 96       	adiw	r26, 0x03	; 3
    12b8:	f7 01       	movw	r30, r14
    12ba:	84 89       	ldd	r24, Z+20	; 0x14
    12bc:	95 89       	ldd	r25, Z+21	; 0x15
    12be:	29 81       	ldd	r18, Y+1	; 0x01
    12c0:	01 30       	cpi	r16, 0x01	; 1
    12c2:	11 05       	cpc	r17, r1
    12c4:	61 f4       	brne	.+24     	;  0x12de
    12c6:	fd 01       	movw	r30, r26
    12c8:	e8 0f       	add	r30, r24
    12ca:	f9 1f       	adc	r31, r25
    12cc:	10 82       	st	Z, r1
    12ce:	01 96       	adiw	r24, 0x01	; 1
    12d0:	f7 01       	movw	r30, r14
    12d2:	95 8b       	std	Z+21, r25	; 0x15
    12d4:	84 8b       	std	Z+20, r24	; 0x14
    12d6:	a8 0f       	add	r26, r24
    12d8:	b9 1f       	adc	r27, r25
    12da:	2c 93       	st	X, r18
    12dc:	0c c0       	rjmp	.+24     	;  0x12f6
    12de:	fd 01       	movw	r30, r26
    12e0:	e8 0f       	add	r30, r24
    12e2:	f9 1f       	adc	r31, r25
    12e4:	20 83       	st	Z, r18
    12e6:	01 96       	adiw	r24, 0x01	; 1
    12e8:	f7 01       	movw	r30, r14
    12ea:	95 8b       	std	Z+21, r25	; 0x15
    12ec:	84 8b       	std	Z+20, r24	; 0x14
    12ee:	a8 0f       	add	r26, r24
    12f0:	b9 1f       	adc	r27, r25
    12f2:	8a 81       	ldd	r24, Y+2	; 0x02
    12f4:	8c 93       	st	X, r24
    12f6:	8c ef       	ldi	r24, 0xFC	; 252
    12f8:	8c 87       	std	Y+12, r24	; 0x0c
    12fa:	c5 01       	movw	r24, r10
    12fc:	b4 01       	movw	r22, r8
    12fe:	0e 94 91 0c 	call	0x1922	;  0x1922
    1302:	d7 01       	movw	r26, r14
    1304:	8c 93       	st	X, r24
    1306:	81 30       	cpi	r24, 0x01	; 1
    1308:	09 f0       	breq	.+2      	;  0x130c
    130a:	71 c0       	rjmp	.+226    	;  0x13ee
    130c:	c4 01       	movw	r24, r8
    130e:	60 e0       	ldi	r22, 0x00	; 0
    1310:	70 e0       	ldi	r23, 0x00	; 0
    1312:	0e 94 d4 2b 	call	0x57a8	;  0x57a8
    1316:	82 30       	cpi	r24, 0x02	; 2
    1318:	09 f0       	breq	.+2      	;  0x131c
    131a:	6f c0       	rjmp	.+222    	;  0x13fa
    131c:	c4 01       	movw	r24, r8
    131e:	64 e0       	ldi	r22, 0x04	; 4
    1320:	70 e0       	ldi	r23, 0x00	; 0
    1322:	0e 94 d4 2b 	call	0x57a8	;  0x57a8
    1326:	83 30       	cpi	r24, 0x03	; 3
    1328:	09 f0       	breq	.+2      	;  0x132c
    132a:	67 c0       	rjmp	.+206    	;  0x13fa
    132c:	89 e2       	ldi	r24, 0x29	; 41
    132e:	97 e0       	ldi	r25, 0x07	; 7
    1330:	67 e2       	ldi	r22, 0x27	; 39
    1332:	71 e0       	ldi	r23, 0x01	; 1
    1334:	0e 94 7a 2b 	call	0x56f4	;  0x56f4
    1338:	8a e0       	ldi	r24, 0x0A	; 10
    133a:	90 e0       	ldi	r25, 0x00	; 0
    133c:	f7 01       	movw	r30, r14
    133e:	95 8b       	std	Z+21, r25	; 0x15
    1340:	84 8b       	std	Z+20, r24	; 0x14
    1342:	17 8a       	std	Z+23, r1	; 0x17
    1344:	16 8a       	std	Z+22, r1	; 0x16
    1346:	42 e4       	ldi	r20, 0x42	; 66
    1348:	c4 2e       	mov	r12, r20
    134a:	d1 2c       	mov	r13, r1
    134c:	ce 0c       	add	r12, r14
    134e:	df 1c       	adc	r13, r15
    1350:	33 e0       	ldi	r19, 0x03	; 3
    1352:	a3 2e       	mov	r10, r19
    1354:	b1 2c       	mov	r11, r1
    1356:	ac 0e       	add	r10, r28
    1358:	bd 1e       	adc	r11, r29
    135a:	1f c0       	rjmp	.+62     	;  0x139a
    135c:	d7 01       	movw	r26, r14
    135e:	54 96       	adiw	r26, 0x14	; 20
    1360:	0d 91       	ld	r16, X+
    1362:	1c 91       	ld	r17, X
    1364:	55 97       	sbiw	r26, 0x15	; 21
    1366:	c4 01       	movw	r24, r8
    1368:	0e 94 d4 2b 	call	0x57a8	;  0x57a8
    136c:	0a 0d       	add	r16, r10
    136e:	1b 1d       	adc	r17, r11
    1370:	f8 01       	movw	r30, r16
    1372:	80 83       	st	Z, r24
    1374:	d7 01       	movw	r26, r14
    1376:	54 96       	adiw	r26, 0x14	; 20
    1378:	8d 91       	ld	r24, X+
    137a:	9c 91       	ld	r25, X
    137c:	55 97       	sbiw	r26, 0x15	; 21
    137e:	01 96       	adiw	r24, 0x01	; 1
    1380:	55 96       	adiw	r26, 0x15	; 21
    1382:	9c 93       	st	X, r25
    1384:	8e 93       	st	-X, r24
    1386:	54 97       	sbiw	r26, 0x14	; 20
    1388:	56 96       	adiw	r26, 0x16	; 22
    138a:	8d 91       	ld	r24, X+
    138c:	9c 91       	ld	r25, X
    138e:	57 97       	sbiw	r26, 0x17	; 23
    1390:	01 96       	adiw	r24, 0x01	; 1
    1392:	57 96       	adiw	r26, 0x17	; 23
    1394:	9c 93       	st	X, r25
    1396:	8e 93       	st	-X, r24
    1398:	56 97       	sbiw	r26, 0x16	; 22
    139a:	f7 01       	movw	r30, r14
    139c:	66 89       	ldd	r22, Z+22	; 0x16
    139e:	77 89       	ldd	r23, Z+23	; 0x17
    13a0:	d6 01       	movw	r26, r12
    13a2:	8d 91       	ld	r24, X+
    13a4:	9c 91       	ld	r25, X
    13a6:	01 97       	sbiw	r24, 0x01	; 1
    13a8:	86 17       	cp	r24, r22
    13aa:	97 07       	cpc	r25, r23
    13ac:	b8 f6       	brcc	.-82     	;  0x135c
    13ae:	c7 01       	movw	r24, r14
    13b0:	87 5d       	subi	r24, 0xD7	; 215
    13b2:	9e 4f       	sbci	r25, 0xFE	; 254
    13b4:	b5 01       	movw	r22, r10
    13b6:	4f e0       	ldi	r20, 0x0F	; 15
    13b8:	50 e0       	ldi	r21, 0x00	; 0
    13ba:	0e 94 cd 11 	call	0x239a	;  0x239a
    13be:	08 2f       	mov	r16, r24
    13c0:	f7 01       	movw	r30, r14
    13c2:	81 83       	std	Z+1, r24	; 0x01
    13c4:	81 30       	cpi	r24, 0x01	; 1
    13c6:	51 f4       	brne	.+20     	;  0x13dc
    13c8:	89 e2       	ldi	r24, 0x29	; 41
    13ca:	97 e0       	ldi	r25, 0x07	; 7
    13cc:	6e e2       	ldi	r22, 0x2E	; 46
    13ce:	71 e0       	ldi	r23, 0x01	; 1
    13d0:	0e 94 7a 2b 	call	0x56f4	;  0x56f4
    13d4:	d7 01       	movw	r26, r14
    13d6:	13 96       	adiw	r26, 0x03	; 3
    13d8:	0c 93       	st	X, r16
    13da:	12 c0       	rjmp	.+36     	;  0x1400
    13dc:	89 e2       	ldi	r24, 0x29	; 41
    13de:	97 e0       	ldi	r25, 0x07	; 7
    13e0:	62 e3       	ldi	r22, 0x32	; 50
    13e2:	71 e0       	ldi	r23, 0x01	; 1
    13e4:	0e 94 7a 2b 	call	0x56f4	;  0x56f4
    13e8:	f7 01       	movw	r30, r14
    13ea:	13 82       	std	Z+3, r1	; 0x03
    13ec:	09 c0       	rjmp	.+18     	;  0x1400
    13ee:	89 e2       	ldi	r24, 0x29	; 41
    13f0:	97 e0       	ldi	r25, 0x07	; 7
    13f2:	6b e2       	ldi	r22, 0x2B	; 43
    13f4:	71 e0       	ldi	r23, 0x01	; 1
    13f6:	0e 94 7a 2b 	call	0x56f4	;  0x56f4
    13fa:	d7 01       	movw	r26, r14
    13fc:	13 96       	adiw	r26, 0x03	; 3
    13fe:	1c 92       	st	X, r1
    1400:	f7 01       	movw	r30, r14
    1402:	83 81       	ldd	r24, Z+3	; 0x03
    1404:	61 96       	adiw	r28, 0x11	; 17
    1406:	0f b6       	in	r0, 0x3f	; 63
    1408:	f8 94       	cli
    140a:	de bf       	out	0x3e, r29	; 62
    140c:	0f be       	out	0x3f, r0	; 63
    140e:	cd bf       	out	0x3d, r28	; 61
    1410:	cf 91       	pop	r28
    1412:	df 91       	pop	r29
    1414:	1f 91       	pop	r17
    1416:	0f 91       	pop	r16
    1418:	ff 90       	pop	r15
    141a:	ef 90       	pop	r14
    141c:	df 90       	pop	r13
    141e:	cf 90       	pop	r12
    1420:	bf 90       	pop	r11
    1422:	af 90       	pop	r10
    1424:	9f 90       	pop	r9
    1426:	8f 90       	pop	r8
    1428:	7f 90       	pop	r7
    142a:	6f 90       	pop	r6
    142c:	08 95       	ret
    142e:	61 15       	cp	r22, r1
    1430:	71 05       	cpc	r23, r1
    1432:	29 f4       	brne	.+10     	;  0x143e
    1434:	86 53       	subi	r24, 0x36	; 54
    1436:	9f 4f       	sbci	r25, 0xFF	; 255
    1438:	0e 94 f2 0a 	call	0x15e4	;  0x15e4
    143c:	08 95       	ret
    143e:	63 30       	cpi	r22, 0x03	; 3
    1440:	71 05       	cpc	r23, r1
    1442:	29 f4       	brne	.+10     	;  0x144e
    1444:	86 53       	subi	r24, 0x36	; 54
    1446:	9f 4f       	sbci	r25, 0xFF	; 255
    1448:	0e 94 ec 0a 	call	0x15d8	;  0x15d8
    144c:	08 95       	ret
    144e:	64 30       	cpi	r22, 0x04	; 4
    1450:	71 05       	cpc	r23, r1
    1452:	29 f4       	brne	.+10     	;  0x145e
    1454:	86 53       	subi	r24, 0x36	; 54
    1456:	9f 4f       	sbci	r25, 0xFF	; 255
    1458:	0e 94 15 0b 	call	0x162a	;  0x162a
    145c:	08 95       	ret
    145e:	61 30       	cpi	r22, 0x01	; 1
    1460:	71 05       	cpc	r23, r1
    1462:	29 f4       	brne	.+10     	;  0x146e
    1464:	86 53       	subi	r24, 0x36	; 54
    1466:	9f 4f       	sbci	r25, 0xFF	; 255
    1468:	0e 94 28 0b 	call	0x1650	;  0x1650
    146c:	08 95       	ret
    146e:	62 30       	cpi	r22, 0x02	; 2
    1470:	71 05       	cpc	r23, r1
    1472:	29 f4       	brne	.+10     	;  0x147e
    1474:	86 53       	subi	r24, 0x36	; 54
    1476:	9f 4f       	sbci	r25, 0xFF	; 255
    1478:	0e 94 23 0b 	call	0x1646	;  0x1646
    147c:	08 95       	ret
    147e:	65 30       	cpi	r22, 0x05	; 5
    1480:	71 05       	cpc	r23, r1
    1482:	21 f4       	brne	.+8      	;  0x148c
    1484:	86 53       	subi	r24, 0x36	; 54
    1486:	9f 4f       	sbci	r25, 0xFF	; 255
    1488:	0e 94 f8 0a 	call	0x15f0	;  0x15f0
    148c:	08 95       	ret
    148e:	0f 93       	push	r16
    1490:	1f 93       	push	r17
    1492:	8c 01       	movw	r16, r24
    1494:	86 53       	subi	r24, 0x36	; 54
    1496:	9f 4f       	sbci	r25, 0xFF	; 255
    1498:	0e 94 2d 0b 	call	0x165a	;  0x165a
    149c:	c8 01       	movw	r24, r16
    149e:	87 5d       	subi	r24, 0xD7	; 215
    14a0:	9e 4f       	sbci	r25, 0xFE	; 254
    14a2:	0e 94 fe 11 	call	0x23fc	;  0x23fc
    14a6:	0d 51       	subi	r16, 0x1D	; 29
    14a8:	1e 4f       	sbci	r17, 0xFE	; 254
    14aa:	c8 01       	movw	r24, r16
    14ac:	0e 94 d8 0d 	call	0x1bb0	;  0x1bb0
    14b0:	c8 01       	movw	r24, r16
    14b2:	0e 94 f0 0b 	call	0x17e0	;  0x17e0
    14b6:	1f 91       	pop	r17
    14b8:	0f 91       	pop	r16
    14ba:	08 95       	ret
    14bc:	0f 93       	push	r16
    14be:	1f 93       	push	r17
    14c0:	8c 01       	movw	r16, r24
    14c2:	8d 51       	subi	r24, 0x1D	; 29
    14c4:	9e 4f       	sbci	r25, 0xFE	; 254
    14c6:	0e 94 27 0e 	call	0x1c4e	;  0x1c4e
    14ca:	c8 01       	movw	r24, r16
    14cc:	87 5d       	subi	r24, 0xD7	; 215
    14ce:	9e 4f       	sbci	r25, 0xFE	; 254
    14d0:	0e 94 9c 11 	call	0x2338	;  0x2338
    14d4:	c8 01       	movw	r24, r16
    14d6:	84 53       	subi	r24, 0x34	; 52
    14d8:	9f 4f       	sbci	r25, 0xFF	; 255
    14da:	0e 94 77 0b 	call	0x16ee	;  0x16ee
    14de:	c8 01       	movw	r24, r16
    14e0:	86 53       	subi	r24, 0x36	; 54
    14e2:	9f 4f       	sbci	r25, 0xFF	; 255
    14e4:	0e 94 eb 0a 	call	0x15d6	;  0x15d6
    14e8:	c8 01       	movw	r24, r16
    14ea:	8f 59       	subi	r24, 0x9F	; 159
    14ec:	9f 4f       	sbci	r25, 0xFF	; 255
    14ee:	0e 94 a3 2c 	call	0x5946	;  0x5946
    14f2:	c8 01       	movw	r24, r16
    14f4:	86 5a       	subi	r24, 0xA6	; 166
    14f6:	9f 4f       	sbci	r25, 0xFF	; 255
    14f8:	0e 94 a3 2c 	call	0x5946	;  0x5946
    14fc:	c8 01       	movw	r24, r16
    14fe:	8d 5a       	subi	r24, 0xAD	; 173
    1500:	9f 4f       	sbci	r25, 0xFF	; 255
    1502:	0e 94 a3 2c 	call	0x5946	;  0x5946
    1506:	c8 01       	movw	r24, r16
    1508:	84 5b       	subi	r24, 0xB4	; 180
    150a:	9f 4f       	sbci	r25, 0xFF	; 255
    150c:	0e 94 a3 2c 	call	0x5946	;  0x5946
    1510:	c8 01       	movw	r24, r16
    1512:	8b 5b       	subi	r24, 0xBB	; 187
    1514:	9f 4f       	sbci	r25, 0xFF	; 255
    1516:	0e 94 a3 2c 	call	0x5946	;  0x5946
    151a:	c8 01       	movw	r24, r16
    151c:	ce 96       	adiw	r24, 0x3e	; 62
    151e:	0e 94 a3 2c 	call	0x5946	;  0x5946
    1522:	c8 01       	movw	r24, r16
    1524:	c7 96       	adiw	r24, 0x37	; 55
    1526:	0e 94 a3 2c 	call	0x5946	;  0x5946
    152a:	c8 01       	movw	r24, r16
    152c:	c0 96       	adiw	r24, 0x30	; 48
    152e:	0e 94 a3 2c 	call	0x5946	;  0x5946
    1532:	1f 91       	pop	r17
    1534:	0f 91       	pop	r16
    1536:	08 95       	ret
    1538:	ef 92       	push	r14
    153a:	ff 92       	push	r15
    153c:	0f 93       	push	r16
    153e:	1f 93       	push	r17
    1540:	8c 01       	movw	r16, r24
    1542:	e0 e0       	ldi	r30, 0x00	; 0
    1544:	ee 2e       	mov	r14, r30
    1546:	e1 e0       	ldi	r30, 0x01	; 1
    1548:	fe 2e       	mov	r15, r30
    154a:	c0 96       	adiw	r24, 0x30	; 48
    154c:	b7 01       	movw	r22, r14
    154e:	0e 94 70 2c 	call	0x58e0	;  0x58e0
    1552:	c8 01       	movw	r24, r16
    1554:	c7 96       	adiw	r24, 0x37	; 55
    1556:	b7 01       	movw	r22, r14
    1558:	0e 94 70 2c 	call	0x58e0	;  0x58e0
    155c:	c8 01       	movw	r24, r16
    155e:	ce 96       	adiw	r24, 0x3e	; 62
    1560:	b7 01       	movw	r22, r14
    1562:	0e 94 70 2c 	call	0x58e0	;  0x58e0
    1566:	c8 01       	movw	r24, r16
    1568:	8b 5b       	subi	r24, 0xBB	; 187
    156a:	9f 4f       	sbci	r25, 0xFF	; 255
    156c:	b7 01       	movw	r22, r14
    156e:	0e 94 70 2c 	call	0x58e0	;  0x58e0
    1572:	c8 01       	movw	r24, r16
    1574:	84 5b       	subi	r24, 0xB4	; 180
    1576:	9f 4f       	sbci	r25, 0xFF	; 255
    1578:	b7 01       	movw	r22, r14
    157a:	0e 94 70 2c 	call	0x58e0	;  0x58e0
    157e:	c8 01       	movw	r24, r16
    1580:	8d 5a       	subi	r24, 0xAD	; 173
    1582:	9f 4f       	sbci	r25, 0xFF	; 255
    1584:	b7 01       	movw	r22, r14
    1586:	0e 94 70 2c 	call	0x58e0	;  0x58e0
    158a:	c8 01       	movw	r24, r16
    158c:	86 5a       	subi	r24, 0xA6	; 166
    158e:	9f 4f       	sbci	r25, 0xFF	; 255
    1590:	b7 01       	movw	r22, r14
    1592:	0e 94 70 2c 	call	0x58e0	;  0x58e0
    1596:	c8 01       	movw	r24, r16
    1598:	8f 59       	subi	r24, 0x9F	; 159
    159a:	9f 4f       	sbci	r25, 0xFF	; 255
    159c:	b7 01       	movw	r22, r14
    159e:	0e 94 70 2c 	call	0x58e0	;  0x58e0
    15a2:	c8 01       	movw	r24, r16
    15a4:	86 53       	subi	r24, 0x36	; 54
    15a6:	9f 4f       	sbci	r25, 0xFF	; 255
    15a8:	0e 94 ea 0a 	call	0x15d4	;  0x15d4
    15ac:	c8 01       	movw	r24, r16
    15ae:	84 53       	subi	r24, 0x34	; 52
    15b0:	9f 4f       	sbci	r25, 0xFF	; 255
    15b2:	0e 94 3a 0b 	call	0x1674	;  0x1674
    15b6:	c8 01       	movw	r24, r16
    15b8:	87 5d       	subi	r24, 0xD7	; 215
    15ba:	9e 4f       	sbci	r25, 0xFE	; 254
    15bc:	0e 94 9f 12 	call	0x253e	;  0x253e
    15c0:	c8 01       	movw	r24, r16
    15c2:	8d 51       	subi	r24, 0x1D	; 29
    15c4:	9e 4f       	sbci	r25, 0xFE	; 254
    15c6:	0e 94 2b 0e 	call	0x1c56	;  0x1c56
    15ca:	1f 91       	pop	r17
    15cc:	0f 91       	pop	r16
    15ce:	ff 90       	pop	r15
    15d0:	ef 90       	pop	r14
    15d2:	08 95       	ret
    15d4:	08 95       	ret
    15d6:	08 95       	ret
    15d8:	89 e0       	ldi	r24, 0x09	; 9
    15da:	66 ee       	ldi	r22, 0xE6	; 230
    15dc:	70 e0       	ldi	r23, 0x00	; 0
    15de:	0e 94 bd 2d 	call	0x5b7a	;  0x5b7a
    15e2:	08 95       	ret
    15e4:	89 e0       	ldi	r24, 0x09	; 9
    15e6:	6f ef       	ldi	r22, 0xFF	; 255
    15e8:	70 e0       	ldi	r23, 0x00	; 0
    15ea:	0e 94 bd 2d 	call	0x5b7a	;  0x5b7a
    15ee:	08 95       	ret
    15f0:	cf 93       	push	r28
    15f2:	df 93       	push	r29
    15f4:	ec 01       	movw	r28, r24
    15f6:	19 82       	std	Y+1, r1	; 0x01
    15f8:	18 82       	st	Y, r1
    15fa:	0e c0       	rjmp	.+28     	;  0x1618
    15fc:	89 e0       	ldi	r24, 0x09	; 9
    15fe:	0e 94 bd 2d 	call	0x5b7a	;  0x5b7a
    1602:	62 e3       	ldi	r22, 0x32	; 50
    1604:	70 e0       	ldi	r23, 0x00	; 0
    1606:	80 e0       	ldi	r24, 0x00	; 0
    1608:	90 e0       	ldi	r25, 0x00	; 0
    160a:	0e 94 37 2d 	call	0x5a6e	;  0x5a6e
    160e:	88 81       	ld	r24, Y
    1610:	99 81       	ldd	r25, Y+1	; 0x01
    1612:	01 96       	adiw	r24, 0x01	; 1
    1614:	99 83       	std	Y+1, r25	; 0x01
    1616:	88 83       	st	Y, r24
    1618:	68 81       	ld	r22, Y
    161a:	79 81       	ldd	r23, Y+1	; 0x01
    161c:	6f 3f       	cpi	r22, 0xFF	; 255
    161e:	71 05       	cpc	r23, r1
    1620:	69 f3       	breq	.-38     	;  0x15fc
    1622:	64 f3       	brlt	.-40     	;  0x15fc
    1624:	df 91       	pop	r29
    1626:	cf 91       	pop	r28
    1628:	08 95       	ret
    162a:	80 e1       	ldi	r24, 0x10	; 16
    162c:	60 e0       	ldi	r22, 0x00	; 0
    162e:	0e 94 70 2e 	call	0x5ce0	;  0x5ce0
    1632:	81 e1       	ldi	r24, 0x11	; 17
    1634:	60 e0       	ldi	r22, 0x00	; 0
    1636:	0e 94 70 2e 	call	0x5ce0	;  0x5ce0
    163a:	89 e0       	ldi	r24, 0x09	; 9
    163c:	60 e0       	ldi	r22, 0x00	; 0
    163e:	70 e0       	ldi	r23, 0x00	; 0
    1640:	0e 94 bd 2d 	call	0x5b7a	;  0x5b7a
    1644:	08 95       	ret
    1646:	81 e1       	ldi	r24, 0x11	; 17
    1648:	61 e0       	ldi	r22, 0x01	; 1
    164a:	0e 94 70 2e 	call	0x5ce0	;  0x5ce0
    164e:	08 95       	ret
    1650:	80 e1       	ldi	r24, 0x10	; 16
    1652:	61 e0       	ldi	r22, 0x01	; 1
    1654:	0e 94 70 2e 	call	0x5ce0	;  0x5ce0
    1658:	08 95       	ret
    165a:	89 e0       	ldi	r24, 0x09	; 9
    165c:	61 e0       	ldi	r22, 0x01	; 1
    165e:	0e 94 1d 2e 	call	0x5c3a	;  0x5c3a
    1662:	80 e1       	ldi	r24, 0x10	; 16
    1664:	61 e0       	ldi	r22, 0x01	; 1
    1666:	0e 94 1d 2e 	call	0x5c3a	;  0x5c3a
    166a:	81 e1       	ldi	r24, 0x11	; 17
    166c:	61 e0       	ldi	r22, 0x01	; 1
    166e:	0e 94 1d 2e 	call	0x5c3a	;  0x5c3a
    1672:	08 95       	ret
    1674:	fc 01       	movw	r30, r24
    1676:	89 e1       	ldi	r24, 0x19	; 25
    1678:	81 83       	std	Z+1, r24	; 0x01
    167a:	14 82       	std	Z+4, r1	; 0x04
    167c:	14 8e       	std	Z+28, r1	; 0x1c
    167e:	13 a2       	std	Z+35, r1	; 0x23
    1680:	16 a2       	std	Z+38, r1	; 0x26
    1682:	ee 5b       	subi	r30, 0xBE	; 190
    1684:	ff 4f       	sbci	r31, 0xFF	; 255
    1686:	10 82       	st	Z, r1
    1688:	33 96       	adiw	r30, 0x03	; 3
    168a:	10 82       	st	Z, r1
    168c:	35 97       	sbiw	r30, 0x05	; 5
    168e:	11 82       	std	Z+1, r1	; 0x01
    1690:	10 82       	st	Z, r1
    1692:	e0 54       	subi	r30, 0x40	; 64
    1694:	f0 40       	sbci	r31, 0x00	; 0
    1696:	88 e9       	ldi	r24, 0x98	; 152
    1698:	91 e0       	ldi	r25, 0x01	; 1
    169a:	97 af       	std	Z+63, r25	; 0x3f
    169c:	86 af       	std	Z+62, r24	; 0x3e
    169e:	08 95       	ret
    16a0:	0f 93       	push	r16
    16a2:	1f 93       	push	r17
    16a4:	cf 93       	push	r28
    16a6:	df 93       	push	r29
    16a8:	ec 01       	movw	r28, r24
    16aa:	62 e0       	ldi	r22, 0x02	; 2
    16ac:	44 e0       	ldi	r20, 0x04	; 4
    16ae:	0e 94 78 1e 	call	0x3cf0	;  0x3cf0
    16b2:	88 23       	and	r24, r24
    16b4:	b1 f0       	breq	.+44     	;  0x16e2
    16b6:	8e 01       	movw	r16, r28
    16b8:	0e 5b       	subi	r16, 0xBE	; 190
    16ba:	1f 4f       	sbci	r17, 0xFF	; 255
    16bc:	c8 01       	movw	r24, r16
    16be:	65 e3       	ldi	r22, 0x35	; 53
    16c0:	71 e0       	ldi	r23, 0x01	; 1
    16c2:	43 e6       	ldi	r20, 0x63	; 99
    16c4:	0e 94 51 1e 	call	0x3ca2	;  0x3ca2
    16c8:	88 23       	and	r24, r24
    16ca:	59 f0       	breq	.+22     	;  0x16e2
    16cc:	ce 01       	movw	r24, r28
    16ce:	ce 96       	adiw	r24, 0x3e	; 62
    16d0:	61 e4       	ldi	r22, 0x41	; 65
    16d2:	71 e0       	ldi	r23, 0x01	; 1
    16d4:	0e 94 7a 2b 	call	0x56f4	;  0x56f4
    16d8:	c8 01       	movw	r24, r16
    16da:	0e 94 3a 17 	call	0x2e74	;  0x2e74
    16de:	81 e0       	ldi	r24, 0x01	; 1
    16e0:	01 c0       	rjmp	.+2      	;  0x16e4
    16e2:	80 e0       	ldi	r24, 0x00	; 0
    16e4:	df 91       	pop	r29
    16e6:	cf 91       	pop	r28
    16e8:	1f 91       	pop	r17
    16ea:	0f 91       	pop	r16
    16ec:	08 95       	ret
    16ee:	cf 93       	push	r28
    16f0:	df 93       	push	r29
    16f2:	ec 01       	movw	r28, r24
    16f4:	88 e9       	ldi	r24, 0x98	; 152
    16f6:	91 e0       	ldi	r25, 0x01	; 1
    16f8:	9f af       	std	Y+63, r25	; 0x3f
    16fa:	8e af       	std	Y+62, r24	; 0x3e
    16fc:	cb 5b       	subi	r28, 0xBB	; 187
    16fe:	df 4f       	sbci	r29, 0xFF	; 255
    1700:	88 81       	ld	r24, Y
    1702:	c5 54       	subi	r28, 0x45	; 69
    1704:	d0 40       	sbci	r29, 0x00	; 0
    1706:	88 23       	and	r24, r24
    1708:	29 f0       	breq	.+10     	;  0x1714
    170a:	ce 01       	movw	r24, r28
    170c:	8e 5b       	subi	r24, 0xBE	; 190
    170e:	9f 4f       	sbci	r25, 0xFF	; 255
    1710:	0e 94 3a 17 	call	0x2e74	;  0x2e74
    1714:	8e a1       	ldd	r24, Y+38	; 0x26
    1716:	88 23       	and	r24, r24
    1718:	21 f0       	breq	.+8      	;  0x1722
    171a:	ce 01       	movw	r24, r28
    171c:	83 96       	adiw	r24, 0x23	; 35
    171e:	0e 94 3a 17 	call	0x2e74	;  0x2e74
    1722:	df 91       	pop	r29
    1724:	cf 91       	pop	r28
    1726:	08 95       	ret
    1728:	ff 92       	push	r15
    172a:	0f 93       	push	r16
    172c:	1f 93       	push	r17
    172e:	cf 93       	push	r28
    1730:	df 93       	push	r29
    1732:	ec 01       	movw	r28, r24
    1734:	f6 2e       	mov	r15, r22
    1736:	62 e0       	ldi	r22, 0x02	; 2
    1738:	44 e0       	ldi	r20, 0x04	; 4
    173a:	0e 94 78 1e 	call	0x3cf0	;  0x3cf0
    173e:	88 23       	and	r24, r24
    1740:	a9 f0       	breq	.+42     	;  0x176c
    1742:	8e 01       	movw	r16, r28
    1744:	0e 5b       	subi	r16, 0xBE	; 190
    1746:	1f 4f       	sbci	r17, 0xFF	; 255
    1748:	c8 01       	movw	r24, r16
    174a:	65 e3       	ldi	r22, 0x35	; 53
    174c:	71 e0       	ldi	r23, 0x01	; 1
    174e:	43 e6       	ldi	r20, 0x63	; 99
    1750:	0e 94 51 1e 	call	0x3ca2	;  0x3ca2
    1754:	88 23       	and	r24, r24
    1756:	51 f0       	breq	.+20     	;  0x176c
    1758:	ce 01       	movw	r24, r28
    175a:	ce 96       	adiw	r24, 0x3e	; 62
    175c:	6f 2d       	mov	r22, r15
    175e:	0e 94 84 2a 	call	0x5508	;  0x5508
    1762:	c8 01       	movw	r24, r16
    1764:	0e 94 3a 17 	call	0x2e74	;  0x2e74
    1768:	81 e0       	ldi	r24, 0x01	; 1
    176a:	01 c0       	rjmp	.+2      	;  0x176e
    176c:	80 e0       	ldi	r24, 0x00	; 0
    176e:	df 91       	pop	r29
    1770:	cf 91       	pop	r28
    1772:	1f 91       	pop	r17
    1774:	0f 91       	pop	r16
    1776:	ff 90       	pop	r15
    1778:	08 95       	ret
    177a:	ef 92       	push	r14
    177c:	ff 92       	push	r15
    177e:	0f 93       	push	r16
    1780:	1f 93       	push	r17
    1782:	cf 93       	push	r28
    1784:	df 93       	push	r29
    1786:	8c 01       	movw	r16, r24
    1788:	7b 01       	movw	r14, r22
    178a:	62 e0       	ldi	r22, 0x02	; 2
    178c:	44 e0       	ldi	r20, 0x04	; 4
    178e:	0e 94 78 1e 	call	0x3cf0	;  0x3cf0
    1792:	88 23       	and	r24, r24
    1794:	e9 f0       	breq	.+58     	;  0x17d0
    1796:	e8 01       	movw	r28, r16
    1798:	ce 5b       	subi	r28, 0xBE	; 190
    179a:	df 4f       	sbci	r29, 0xFF	; 255
    179c:	ce 01       	movw	r24, r28
    179e:	65 e3       	ldi	r22, 0x35	; 53
    17a0:	71 e0       	ldi	r23, 0x01	; 1
    17a2:	43 e6       	ldi	r20, 0x63	; 99
    17a4:	0e 94 51 1e 	call	0x3ca2	;  0x3ca2
    17a8:	88 23       	and	r24, r24
    17aa:	91 f0       	breq	.+36     	;  0x17d0
    17ac:	02 5c       	subi	r16, 0xC2	; 194
    17ae:	1f 4f       	sbci	r17, 0xFF	; 255
    17b0:	c8 01       	movw	r24, r16
    17b2:	b7 01       	movw	r22, r14
    17b4:	4a e0       	ldi	r20, 0x0A	; 10
    17b6:	50 e0       	ldi	r21, 0x00	; 0
    17b8:	0e 94 64 2b 	call	0x56c8	;  0x56c8
    17bc:	c8 01       	movw	r24, r16
    17be:	62 e4       	ldi	r22, 0x42	; 66
    17c0:	71 e0       	ldi	r23, 0x01	; 1
    17c2:	0e 94 77 2b 	call	0x56ee	;  0x56ee
    17c6:	ce 01       	movw	r24, r28
    17c8:	0e 94 3a 17 	call	0x2e74	;  0x2e74
    17cc:	81 e0       	ldi	r24, 0x01	; 1
    17ce:	01 c0       	rjmp	.+2      	;  0x17d2
    17d0:	80 e0       	ldi	r24, 0x00	; 0
    17d2:	df 91       	pop	r29
    17d4:	cf 91       	pop	r28
    17d6:	1f 91       	pop	r17
    17d8:	0f 91       	pop	r16
    17da:	ff 90       	pop	r15
    17dc:	ef 90       	pop	r14
    17de:	08 95       	ret
    17e0:	0f 93       	push	r16
    17e2:	1f 93       	push	r17
    17e4:	8c 01       	movw	r16, r24
    17e6:	68 ee       	ldi	r22, 0xE8	; 232
    17e8:	73 e0       	ldi	r23, 0x03	; 3
    17ea:	80 e0       	ldi	r24, 0x00	; 0
    17ec:	90 e0       	ldi	r25, 0x00	; 0
    17ee:	0e 94 37 2d 	call	0x5a6e	;  0x5a6e
    17f2:	f8 01       	movw	r30, r16
    17f4:	85 a5       	ldd	r24, Z+45	; 0x2d
    17f6:	96 a5       	ldd	r25, Z+46	; 0x2e
    17f8:	64 e4       	ldi	r22, 0x44	; 68
    17fa:	71 e0       	ldi	r23, 0x01	; 1
    17fc:	0e 94 77 2b 	call	0x56ee	;  0x56ee
    1800:	68 ee       	ldi	r22, 0xE8	; 232
    1802:	73 e0       	ldi	r23, 0x03	; 3
    1804:	80 e0       	ldi	r24, 0x00	; 0
    1806:	90 e0       	ldi	r25, 0x00	; 0
    1808:	0e 94 37 2d 	call	0x5a6e	;  0x5a6e
    180c:	1f 91       	pop	r17
    180e:	0f 91       	pop	r16
    1810:	08 95       	ret
    1812:	df 92       	push	r13
    1814:	ef 92       	push	r14
    1816:	ff 92       	push	r15
    1818:	0f 93       	push	r16
    181a:	1f 93       	push	r17
    181c:	cf 93       	push	r28
    181e:	df 93       	push	r29
    1820:	ec 01       	movw	r28, r24
    1822:	7b 01       	movw	r14, r22
    1824:	8d a5       	ldd	r24, Y+45	; 0x2d
    1826:	9e a5       	ldd	r25, Y+46	; 0x2e
    1828:	0e 94 6d 23 	call	0x46da	;  0x46da
    182c:	1a 82       	std	Y+2, r1	; 0x02
    182e:	1b 82       	std	Y+3, r1	; 0x03
    1830:	1d 86       	std	Y+13, r1	; 0x0d
    1832:	1c 86       	std	Y+12, r1	; 0x0c
    1834:	1b 86       	std	Y+11, r1	; 0x0b
    1836:	1a 86       	std	Y+10, r1	; 0x0a
    1838:	c7 01       	movw	r24, r14
    183a:	6c e6       	ldi	r22, 0x6C	; 108
    183c:	71 e0       	ldi	r23, 0x01	; 1
    183e:	0e 94 8a 2c 	call	0x5914	;  0x5914
    1842:	19 86       	std	Y+9, r1	; 0x09
    1844:	18 86       	std	Y+8, r1	; 0x08
    1846:	07 c0       	rjmp	.+14     	;  0x1856
    1848:	fe 01       	movw	r30, r28
    184a:	e8 0f       	add	r30, r24
    184c:	f9 1f       	adc	r31, r25
    184e:	17 a6       	std	Z+47, r1	; 0x2f
    1850:	01 96       	adiw	r24, 0x01	; 1
    1852:	99 87       	std	Y+9, r25	; 0x09
    1854:	88 87       	std	Y+8, r24	; 0x08
    1856:	88 85       	ldd	r24, Y+8	; 0x08
    1858:	99 85       	ldd	r25, Y+9	; 0x09
    185a:	87 34       	cpi	r24, 0x47	; 71
    185c:	91 05       	cpc	r25, r1
    185e:	a4 f3       	brlt	.-24     	;  0x1848
    1860:	ed a5       	ldd	r30, Y+45	; 0x2d
    1862:	fe a5       	ldd	r31, Y+46	; 0x2e
    1864:	a0 81       	ld	r26, Z
    1866:	b1 81       	ldd	r27, Z+1	; 0x01
    1868:	1a 96       	adiw	r26, 0x0a	; 10
    186a:	2d 91       	ld	r18, X+
    186c:	3c 91       	ld	r19, X
    186e:	1b 97       	sbiw	r26, 0x0b	; 11
    1870:	cf 01       	movw	r24, r30
    1872:	f9 01       	movw	r30, r18
    1874:	09 95       	icall
    1876:	8e 01       	movw	r16, r28
    1878:	01 5d       	subi	r16, 0xD1	; 209
    187a:	1f 4f       	sbci	r17, 0xFF	; 255
    187c:	dd 24       	eor	r13, r13
    187e:	d3 94       	inc	r13
    1880:	44 c0       	rjmp	.+136    	;  0x190a
    1882:	8a 85       	ldd	r24, Y+10	; 0x0a
    1884:	9b 85       	ldd	r25, Y+11	; 0x0b
    1886:	80 53       	subi	r24, 0x30	; 48
    1888:	95 47       	sbci	r25, 0x75	; 117
    188a:	11 f4       	brne	.+4      	;  0x1890
    188c:	80 e0       	ldi	r24, 0x00	; 0
    188e:	41 c0       	rjmp	.+130    	;  0x1912
    1890:	ed a5       	ldd	r30, Y+45	; 0x2d
    1892:	fe a5       	ldd	r31, Y+46	; 0x2e
    1894:	a0 81       	ld	r26, Z
    1896:	b1 81       	ldd	r27, Z+1	; 0x01
    1898:	14 96       	adiw	r26, 0x04	; 4
    189a:	2d 91       	ld	r18, X+
    189c:	3c 91       	ld	r19, X
    189e:	15 97       	sbiw	r26, 0x05	; 5
    18a0:	cf 01       	movw	r24, r30
    18a2:	f9 01       	movw	r30, r18
    18a4:	09 95       	icall
    18a6:	ad a5       	ldd	r26, Y+45	; 0x2d
    18a8:	be a5       	ldd	r27, Y+46	; 0x2e
    18aa:	89 2b       	or	r24, r25
    18ac:	f9 f0       	breq	.+62     	;  0x18ec
    18ae:	ed 91       	ld	r30, X+
    18b0:	fc 91       	ld	r31, X
    18b2:	11 97       	sbiw	r26, 0x01	; 1
    18b4:	06 80       	ldd	r0, Z+6	; 0x06
    18b6:	f7 81       	ldd	r31, Z+7	; 0x07
    18b8:	e0 2d       	mov	r30, r0
    18ba:	cd 01       	movw	r24, r26
    18bc:	09 95       	icall
    18be:	8b 83       	std	Y+3, r24	; 0x03
    18c0:	ac 85       	ldd	r26, Y+12	; 0x0c
    18c2:	bd 85       	ldd	r27, Y+13	; 0x0d
    18c4:	8d 30       	cpi	r24, 0x0D	; 13
    18c6:	51 f4       	brne	.+20     	;  0x18dc
    18c8:	ac 0f       	add	r26, r28
    18ca:	bd 1f       	adc	r27, r29
    18cc:	9f 96       	adiw	r26, 0x2f	; 47
    18ce:	1c 92       	st	X, r1
    18d0:	c7 01       	movw	r24, r14
    18d2:	b8 01       	movw	r22, r16
    18d4:	0e 94 8a 2c 	call	0x5914	;  0x5914
    18d8:	da 82       	std	Y+2, r13	; 0x02
    18da:	17 c0       	rjmp	.+46     	;  0x190a
    18dc:	fe 01       	movw	r30, r28
    18de:	ea 0f       	add	r30, r26
    18e0:	fb 1f       	adc	r31, r27
    18e2:	87 a7       	std	Z+47, r24	; 0x2f
    18e4:	11 96       	adiw	r26, 0x01	; 1
    18e6:	bd 87       	std	Y+13, r27	; 0x0d
    18e8:	ac 87       	std	Y+12, r26	; 0x0c
    18ea:	0f c0       	rjmp	.+30     	;  0x190a
    18ec:	ed 91       	ld	r30, X+
    18ee:	fc 91       	ld	r31, X
    18f0:	11 97       	sbiw	r26, 0x01	; 1
    18f2:	04 80       	ldd	r0, Z+4	; 0x04
    18f4:	f5 81       	ldd	r31, Z+5	; 0x05
    18f6:	e0 2d       	mov	r30, r0
    18f8:	cd 01       	movw	r24, r26
    18fa:	09 95       	icall
    18fc:	89 2b       	or	r24, r25
    18fe:	29 f4       	brne	.+10     	;  0x190a
    1900:	8a 85       	ldd	r24, Y+10	; 0x0a
    1902:	9b 85       	ldd	r25, Y+11	; 0x0b
    1904:	01 96       	adiw	r24, 0x01	; 1
    1906:	9b 87       	std	Y+11, r25	; 0x0b
    1908:	8a 87       	std	Y+10, r24	; 0x0a
    190a:	8a 81       	ldd	r24, Y+2	; 0x02
    190c:	81 30       	cpi	r24, 0x01	; 1
    190e:	09 f0       	breq	.+2      	;  0x1912
    1910:	b8 cf       	rjmp	.-144    	;  0x1882
    1912:	df 91       	pop	r29
    1914:	cf 91       	pop	r28
    1916:	1f 91       	pop	r17
    1918:	0f 91       	pop	r16
    191a:	ff 90       	pop	r15
    191c:	ef 90       	pop	r14
    191e:	df 90       	pop	r13
    1920:	08 95       	ret
    1922:	9f 92       	push	r9
    1924:	af 92       	push	r10
    1926:	bf 92       	push	r11
    1928:	cf 92       	push	r12
    192a:	df 92       	push	r13
    192c:	ef 92       	push	r14
    192e:	ff 92       	push	r15
    1930:	0f 93       	push	r16
    1932:	1f 93       	push	r17
    1934:	cf 93       	push	r28
    1936:	df 93       	push	r29
    1938:	ec 01       	movw	r28, r24
    193a:	7b 01       	movw	r14, r22
    193c:	8b a5       	ldd	r24, Y+43	; 0x2b
    193e:	9c a5       	ldd	r25, Y+44	; 0x2c
    1940:	0e 94 6d 23 	call	0x46da	;  0x46da
    1944:	1f 82       	std	Y+7, r1	; 0x07
    1946:	1e 82       	std	Y+6, r1	; 0x06
    1948:	1b 86       	std	Y+11, r1	; 0x0b
    194a:	1a 86       	std	Y+10, r1	; 0x0a
    194c:	1b 82       	std	Y+3, r1	; 0x03
    194e:	1f 8a       	std	Y+23, r1	; 0x17
    1950:	18 8e       	std	Y+24, r1	; 0x18
    1952:	19 8e       	std	Y+25, r1	; 0x19
    1954:	1a 8e       	std	Y+26, r1	; 0x1a
    1956:	1b 8e       	std	Y+27, r1	; 0x1b
    1958:	1c 8e       	std	Y+28, r1	; 0x1c
    195a:	eb a5       	ldd	r30, Y+43	; 0x2b
    195c:	fc a5       	ldd	r31, Y+44	; 0x2c
    195e:	a0 81       	ld	r26, Z
    1960:	b1 81       	ldd	r27, Z+1	; 0x01
    1962:	1a 96       	adiw	r26, 0x0a	; 10
    1964:	2d 91       	ld	r18, X+
    1966:	3c 91       	ld	r19, X
    1968:	1b 97       	sbiw	r26, 0x0b	; 11
    196a:	cf 01       	movw	r24, r30
    196c:	f9 01       	movw	r30, r18
    196e:	09 95       	icall
    1970:	8e 01       	movw	r16, r28
    1972:	09 5e       	subi	r16, 0xE9	; 233
    1974:	1f 4f       	sbci	r17, 0xFF	; 255
    1976:	95 e0       	ldi	r25, 0x05	; 5
    1978:	a9 2e       	mov	r10, r25
    197a:	b1 2c       	mov	r11, r1
    197c:	99 24       	eor	r9, r9
    197e:	93 94       	inc	r9
    1980:	81 e0       	ldi	r24, 0x01	; 1
    1982:	c8 2e       	mov	r12, r24
    1984:	d1 2c       	mov	r13, r1
    1986:	5a c0       	rjmp	.+180    	;  0x1a3c
    1988:	8a 85       	ldd	r24, Y+10	; 0x0a
    198a:	9b 85       	ldd	r25, Y+11	; 0x0b
    198c:	88 58       	subi	r24, 0x88	; 136
    198e:	93 41       	sbci	r25, 0x13	; 19
    1990:	11 f4       	brne	.+4      	;  0x1996
    1992:	80 e0       	ldi	r24, 0x00	; 0
    1994:	59 c0       	rjmp	.+178    	;  0x1a48
    1996:	eb a5       	ldd	r30, Y+43	; 0x2b
    1998:	fc a5       	ldd	r31, Y+44	; 0x2c
    199a:	a0 81       	ld	r26, Z
    199c:	b1 81       	ldd	r27, Z+1	; 0x01
    199e:	14 96       	adiw	r26, 0x04	; 4
    19a0:	2d 91       	ld	r18, X+
    19a2:	3c 91       	ld	r19, X
    19a4:	15 97       	sbiw	r26, 0x05	; 5
    19a6:	cf 01       	movw	r24, r30
    19a8:	f9 01       	movw	r30, r18
    19aa:	09 95       	icall
    19ac:	ab a5       	ldd	r26, Y+43	; 0x2b
    19ae:	bc a5       	ldd	r27, Y+44	; 0x2c
    19b0:	89 2b       	or	r24, r25
    19b2:	51 f0       	breq	.+20     	;  0x19c8
    19b4:	ed 91       	ld	r30, X+
    19b6:	fc 91       	ld	r31, X
    19b8:	11 97       	sbiw	r26, 0x01	; 1
    19ba:	06 80       	ldd	r0, Z+6	; 0x06
    19bc:	f7 81       	ldd	r31, Z+7	; 0x07
    19be:	e0 2d       	mov	r30, r0
    19c0:	cd 01       	movw	r24, r26
    19c2:	09 95       	icall
    19c4:	8b 83       	std	Y+3, r24	; 0x03
    19c6:	10 c0       	rjmp	.+32     	;  0x19e8
    19c8:	ed 91       	ld	r30, X+
    19ca:	fc 91       	ld	r31, X
    19cc:	11 97       	sbiw	r26, 0x01	; 1
    19ce:	04 80       	ldd	r0, Z+4	; 0x04
    19d0:	f5 81       	ldd	r31, Z+5	; 0x05
    19d2:	e0 2d       	mov	r30, r0
    19d4:	cd 01       	movw	r24, r26
    19d6:	09 95       	icall
    19d8:	89 2b       	or	r24, r25
    19da:	31 f4       	brne	.+12     	;  0x19e8
    19dc:	8a 85       	ldd	r24, Y+10	; 0x0a
    19de:	9b 85       	ldd	r25, Y+11	; 0x0b
    19e0:	01 96       	adiw	r24, 0x01	; 1
    19e2:	9b 87       	std	Y+11, r25	; 0x0b
    19e4:	8a 87       	std	Y+10, r24	; 0x0a
    19e6:	2a c0       	rjmp	.+84     	;  0x1a3c
    19e8:	4b 81       	ldd	r20, Y+3	; 0x03
    19ea:	42 30       	cpi	r20, 0x02	; 2
    19ec:	41 f4       	brne	.+16     	;  0x19fe
    19ee:	8e 81       	ldd	r24, Y+6	; 0x06
    19f0:	9f 81       	ldd	r25, Y+7	; 0x07
    19f2:	89 2b       	or	r24, r25
    19f4:	99 f4       	brne	.+38     	;  0x1a1c
    19f6:	4f 8b       	std	Y+23, r20	; 0x17
    19f8:	df 82       	std	Y+7, r13	; 0x07
    19fa:	ce 82       	std	Y+6, r12	; 0x06
    19fc:	1f c0       	rjmp	.+62     	;  0x1a3c
    19fe:	43 30       	cpi	r20, 0x03	; 3
    1a00:	69 f4       	brne	.+26     	;  0x1a1c
    1a02:	8e 81       	ldd	r24, Y+6	; 0x06
    1a04:	9f 81       	ldd	r25, Y+7	; 0x07
    1a06:	04 97       	sbiw	r24, 0x04	; 4
    1a08:	49 f4       	brne	.+18     	;  0x1a1c
    1a0a:	4b 8f       	std	Y+27, r20	; 0x1b
    1a0c:	bf 82       	std	Y+7, r11	; 0x07
    1a0e:	ae 82       	std	Y+6, r10	; 0x06
    1a10:	c7 01       	movw	r24, r14
    1a12:	b8 01       	movw	r22, r16
    1a14:	0e 94 8a 2c 	call	0x5914	;  0x5914
    1a18:	99 82       	std	Y+1, r9	; 0x01
    1a1a:	10 c0       	rjmp	.+32     	;  0x1a3c
    1a1c:	2e 81       	ldd	r18, Y+6	; 0x06
    1a1e:	3f 81       	ldd	r19, Y+7	; 0x07
    1a20:	c9 01       	movw	r24, r18
    1a22:	01 97       	sbiw	r24, 0x01	; 1
    1a24:	03 97       	sbiw	r24, 0x03	; 3
    1a26:	50 f4       	brcc	.+20     	;  0x1a3c
    1a28:	42 30       	cpi	r20, 0x02	; 2
    1a2a:	41 f0       	breq	.+16     	;  0x1a3c
    1a2c:	fe 01       	movw	r30, r28
    1a2e:	e2 0f       	add	r30, r18
    1a30:	f3 1f       	adc	r31, r19
    1a32:	47 8b       	std	Z+23, r20	; 0x17
    1a34:	2f 5f       	subi	r18, 0xFF	; 255
    1a36:	3f 4f       	sbci	r19, 0xFF	; 255
    1a38:	3f 83       	std	Y+7, r19	; 0x07
    1a3a:	2e 83       	std	Y+6, r18	; 0x06
    1a3c:	8e 81       	ldd	r24, Y+6	; 0x06
    1a3e:	9f 81       	ldd	r25, Y+7	; 0x07
    1a40:	05 97       	sbiw	r24, 0x05	; 5
    1a42:	0c f4       	brge	.+2      	;  0x1a46
    1a44:	a1 cf       	rjmp	.-190    	;  0x1988
    1a46:	89 81       	ldd	r24, Y+1	; 0x01
    1a48:	df 91       	pop	r29
    1a4a:	cf 91       	pop	r28
    1a4c:	1f 91       	pop	r17
    1a4e:	0f 91       	pop	r16
    1a50:	ff 90       	pop	r15
    1a52:	ef 90       	pop	r14
    1a54:	df 90       	pop	r13
    1a56:	cf 90       	pop	r12
    1a58:	bf 90       	pop	r11
    1a5a:	af 90       	pop	r10
    1a5c:	9f 90       	pop	r9
    1a5e:	08 95       	ret
    1a60:	df 92       	push	r13
    1a62:	ef 92       	push	r14
    1a64:	ff 92       	push	r15
    1a66:	0f 93       	push	r16
    1a68:	1f 93       	push	r17
    1a6a:	cf 93       	push	r28
    1a6c:	df 93       	push	r29
    1a6e:	ec 01       	movw	r28, r24
    1a70:	7b 01       	movw	r14, r22
    1a72:	1b 82       	std	Y+3, r1	; 0x03
    1a74:	1f 86       	std	Y+15, r1	; 0x0f
    1a76:	1e 86       	std	Y+14, r1	; 0x0e
    1a78:	cb 01       	movw	r24, r22
    1a7a:	6c e6       	ldi	r22, 0x6C	; 108
    1a7c:	71 e0       	ldi	r23, 0x01	; 1
    1a7e:	0e 94 8a 2c 	call	0x5914	;  0x5914
    1a82:	18 82       	st	Y, r1
    1a84:	e9 a5       	ldd	r30, Y+41	; 0x29
    1a86:	fa a5       	ldd	r31, Y+42	; 0x2a
    1a88:	a0 81       	ld	r26, Z
    1a8a:	b1 81       	ldd	r27, Z+1	; 0x01
    1a8c:	1a 96       	adiw	r26, 0x0a	; 10
    1a8e:	2d 91       	ld	r18, X+
    1a90:	3c 91       	ld	r19, X
    1a92:	1b 97       	sbiw	r26, 0x0b	; 11
    1a94:	cf 01       	movw	r24, r30
    1a96:	f9 01       	movw	r30, r18
    1a98:	09 95       	icall
    1a9a:	89 a5       	ldd	r24, Y+41	; 0x29
    1a9c:	9a a5       	ldd	r25, Y+42	; 0x2a
    1a9e:	6d e6       	ldi	r22, 0x6D	; 109
    1aa0:	71 e0       	ldi	r23, 0x01	; 1
    1aa2:	0e 94 77 2b 	call	0x56ee	;  0x56ee
    1aa6:	68 ee       	ldi	r22, 0xE8	; 232
    1aa8:	73 e0       	ldi	r23, 0x03	; 3
    1aaa:	80 e0       	ldi	r24, 0x00	; 0
    1aac:	90 e0       	ldi	r25, 0x00	; 0
    1aae:	0e 94 37 2d 	call	0x5a6e	;  0x5a6e
    1ab2:	89 a5       	ldd	r24, Y+41	; 0x29
    1ab4:	9a a5       	ldd	r25, Y+42	; 0x2a
    1ab6:	0e 94 6d 23 	call	0x46da	;  0x46da
    1aba:	19 86       	std	Y+9, r1	; 0x09
    1abc:	18 86       	std	Y+8, r1	; 0x08
    1abe:	07 c0       	rjmp	.+14     	;  0x1ace
    1ac0:	fe 01       	movw	r30, r28
    1ac2:	e8 0f       	add	r30, r24
    1ac4:	f9 1f       	adc	r31, r25
    1ac6:	15 8e       	std	Z+29, r1	; 0x1d
    1ac8:	01 96       	adiw	r24, 0x01	; 1
    1aca:	99 87       	std	Y+9, r25	; 0x09
    1acc:	88 87       	std	Y+8, r24	; 0x08
    1ace:	88 85       	ldd	r24, Y+8	; 0x08
    1ad0:	99 85       	ldd	r25, Y+9	; 0x09
    1ad2:	8b 30       	cpi	r24, 0x0B	; 11
    1ad4:	91 05       	cpc	r25, r1
    1ad6:	a4 f3       	brlt	.-24     	;  0x1ac0
    1ad8:	8e 01       	movw	r16, r28
    1ada:	03 5e       	subi	r16, 0xE3	; 227
    1adc:	1f 4f       	sbci	r17, 0xFF	; 255
    1ade:	dd 24       	eor	r13, r13
    1ae0:	d3 94       	inc	r13
    1ae2:	36 c0       	rjmp	.+108    	;  0x1b50
    1ae4:	ed 91       	ld	r30, X+
    1ae6:	fc 91       	ld	r31, X
    1ae8:	11 97       	sbiw	r26, 0x01	; 1
    1aea:	04 80       	ldd	r0, Z+4	; 0x04
    1aec:	f5 81       	ldd	r31, Z+5	; 0x05
    1aee:	e0 2d       	mov	r30, r0
    1af0:	cd 01       	movw	r24, r26
    1af2:	09 95       	icall
    1af4:	89 2b       	or	r24, r25
    1af6:	61 f1       	breq	.+88     	;  0x1b50
    1af8:	e9 a5       	ldd	r30, Y+41	; 0x29
    1afa:	fa a5       	ldd	r31, Y+42	; 0x2a
    1afc:	a0 81       	ld	r26, Z
    1afe:	b1 81       	ldd	r27, Z+1	; 0x01
    1b00:	16 96       	adiw	r26, 0x06	; 6
    1b02:	2d 91       	ld	r18, X+
    1b04:	3c 91       	ld	r19, X
    1b06:	17 97       	sbiw	r26, 0x07	; 7
    1b08:	cf 01       	movw	r24, r30
    1b0a:	f9 01       	movw	r30, r18
    1b0c:	09 95       	icall
    1b0e:	8b 83       	std	Y+3, r24	; 0x03
    1b10:	ae 85       	ldd	r26, Y+14	; 0x0e
    1b12:	bf 85       	ldd	r27, Y+15	; 0x0f
    1b14:	8d 30       	cpi	r24, 0x0D	; 13
    1b16:	a9 f4       	brne	.+42     	;  0x1b42
    1b18:	ac 0f       	add	r26, r28
    1b1a:	bd 1f       	adc	r27, r29
    1b1c:	5d 96       	adiw	r26, 0x1d	; 29
    1b1e:	1c 92       	st	X, r1
    1b20:	c7 01       	movw	r24, r14
    1b22:	b8 01       	movw	r22, r16
    1b24:	0e 94 8a 2c 	call	0x5914	;  0x5914
    1b28:	d8 82       	st	Y, r13
    1b2a:	e9 a5       	ldd	r30, Y+41	; 0x29
    1b2c:	fa a5       	ldd	r31, Y+42	; 0x2a
    1b2e:	a0 81       	ld	r26, Z
    1b30:	b1 81       	ldd	r27, Z+1	; 0x01
    1b32:	1a 96       	adiw	r26, 0x0a	; 10
    1b34:	2d 91       	ld	r18, X+
    1b36:	3c 91       	ld	r19, X
    1b38:	1b 97       	sbiw	r26, 0x0b	; 11
    1b3a:	cf 01       	movw	r24, r30
    1b3c:	f9 01       	movw	r30, r18
    1b3e:	09 95       	icall
    1b40:	07 c0       	rjmp	.+14     	;  0x1b50
    1b42:	fe 01       	movw	r30, r28
    1b44:	ea 0f       	add	r30, r26
    1b46:	fb 1f       	adc	r31, r27
    1b48:	85 8f       	std	Z+29, r24	; 0x1d
    1b4a:	11 96       	adiw	r26, 0x01	; 1
    1b4c:	bf 87       	std	Y+15, r27	; 0x0f
    1b4e:	ae 87       	std	Y+14, r26	; 0x0e
    1b50:	88 81       	ld	r24, Y
    1b52:	a9 a5       	ldd	r26, Y+41	; 0x29
    1b54:	ba a5       	ldd	r27, Y+42	; 0x2a
    1b56:	81 30       	cpi	r24, 0x01	; 1
    1b58:	29 f6       	brne	.-118    	;  0x1ae4
    1b5a:	cd 01       	movw	r24, r26
    1b5c:	60 e7       	ldi	r22, 0x70	; 112
    1b5e:	71 e0       	ldi	r23, 0x01	; 1
    1b60:	0e 94 77 2b 	call	0x56ee	;  0x56ee
    1b64:	68 ee       	ldi	r22, 0xE8	; 232
    1b66:	73 e0       	ldi	r23, 0x03	; 3
    1b68:	80 e0       	ldi	r24, 0x00	; 0
    1b6a:	90 e0       	ldi	r25, 0x00	; 0
    1b6c:	0e 94 37 2d 	call	0x5a6e	;  0x5a6e
    1b70:	df 91       	pop	r29
    1b72:	cf 91       	pop	r28
    1b74:	1f 91       	pop	r17
    1b76:	0f 91       	pop	r16
    1b78:	ff 90       	pop	r15
    1b7a:	ef 90       	pop	r14
    1b7c:	df 90       	pop	r13
    1b7e:	08 95       	ret
    1b80:	0f 93       	push	r16
    1b82:	1f 93       	push	r17
    1b84:	8b 01       	movw	r16, r22
    1b86:	81 e0       	ldi	r24, 0x01	; 1
    1b88:	0e 94 9b 2d 	call	0x5b36	;  0x5b36
    1b8c:	f8 01       	movw	r30, r16
    1b8e:	91 83       	std	Z+1, r25	; 0x01
    1b90:	80 83       	st	Z, r24
    1b92:	1f 91       	pop	r17
    1b94:	0f 91       	pop	r16
    1b96:	08 95       	ret
    1b98:	0f 93       	push	r16
    1b9a:	1f 93       	push	r17
    1b9c:	8b 01       	movw	r16, r22
    1b9e:	80 e0       	ldi	r24, 0x00	; 0
    1ba0:	0e 94 9b 2d 	call	0x5b36	;  0x5b36
    1ba4:	f8 01       	movw	r30, r16
    1ba6:	91 83       	std	Z+1, r25	; 0x01
    1ba8:	80 83       	st	Z, r24
    1baa:	1f 91       	pop	r17
    1bac:	0f 91       	pop	r16
    1bae:	08 95       	ret
    1bb0:	ef 92       	push	r14
    1bb2:	ff 92       	push	r15
    1bb4:	0f 93       	push	r16
    1bb6:	1f 93       	push	r17
    1bb8:	7c 01       	movw	r14, r24
    1bba:	81 e0       	ldi	r24, 0x01	; 1
    1bbc:	0e 94 98 2d 	call	0x5b30	;  0x5b30
    1bc0:	8c e1       	ldi	r24, 0x1C	; 28
    1bc2:	90 e0       	ldi	r25, 0x00	; 0
    1bc4:	0e 94 b8 2c 	call	0x5970	;  0x5970
    1bc8:	18 2f       	mov	r17, r24
    1bca:	09 2f       	mov	r16, r25
    1bcc:	62 e0       	ldi	r22, 0x02	; 2
    1bce:	43 e0       	ldi	r20, 0x03	; 3
    1bd0:	20 e0       	ldi	r18, 0x00	; 0
    1bd2:	0e 94 81 26 	call	0x4d02	;  0x4d02
    1bd6:	f7 01       	movw	r30, r14
    1bd8:	15 a7       	std	Z+45, r17	; 0x2d
    1bda:	06 a7       	std	Z+46, r16	; 0x2e
    1bdc:	81 2f       	mov	r24, r17
    1bde:	90 2f       	mov	r25, r16
    1be0:	40 e8       	ldi	r20, 0x80	; 128
    1be2:	55 e2       	ldi	r21, 0x25	; 37
    1be4:	60 e0       	ldi	r22, 0x00	; 0
    1be6:	70 e0       	ldi	r23, 0x00	; 0
    1be8:	0e 94 68 24 	call	0x48d0	;  0x48d0
    1bec:	8c e1       	ldi	r24, 0x1C	; 28
    1bee:	90 e0       	ldi	r25, 0x00	; 0
    1bf0:	0e 94 b8 2c 	call	0x5970	;  0x5970
    1bf4:	18 2f       	mov	r17, r24
    1bf6:	09 2f       	mov	r16, r25
    1bf8:	62 e1       	ldi	r22, 0x12	; 18
    1bfa:	43 e1       	ldi	r20, 0x13	; 19
    1bfc:	20 e0       	ldi	r18, 0x00	; 0
    1bfe:	0e 94 81 26 	call	0x4d02	;  0x4d02
    1c02:	f7 01       	movw	r30, r14
    1c04:	11 a7       	std	Z+41, r17	; 0x29
    1c06:	02 a7       	std	Z+42, r16	; 0x2a
    1c08:	81 2f       	mov	r24, r17
    1c0a:	90 2f       	mov	r25, r16
    1c0c:	40 e0       	ldi	r20, 0x00	; 0
    1c0e:	56 e9       	ldi	r21, 0x96	; 150
    1c10:	60 e0       	ldi	r22, 0x00	; 0
    1c12:	70 e0       	ldi	r23, 0x00	; 0
    1c14:	0e 94 68 24 	call	0x48d0	;  0x48d0
    1c18:	8c e1       	ldi	r24, 0x1C	; 28
    1c1a:	90 e0       	ldi	r25, 0x00	; 0
    1c1c:	0e 94 b8 2c 	call	0x5970	;  0x5970
    1c20:	18 2f       	mov	r17, r24
    1c22:	09 2f       	mov	r16, r25
    1c24:	66 e0       	ldi	r22, 0x06	; 6
    1c26:	47 e0       	ldi	r20, 0x07	; 7
    1c28:	20 e0       	ldi	r18, 0x00	; 0
    1c2a:	0e 94 81 26 	call	0x4d02	;  0x4d02
    1c2e:	f7 01       	movw	r30, r14
    1c30:	13 a7       	std	Z+43, r17	; 0x2b
    1c32:	04 a7       	std	Z+44, r16	; 0x2c
    1c34:	81 2f       	mov	r24, r17
    1c36:	90 2f       	mov	r25, r16
    1c38:	40 e8       	ldi	r20, 0x80	; 128
    1c3a:	55 e2       	ldi	r21, 0x25	; 37
    1c3c:	60 e0       	ldi	r22, 0x00	; 0
    1c3e:	70 e0       	ldi	r23, 0x00	; 0
    1c40:	0e 94 68 24 	call	0x48d0	;  0x48d0
    1c44:	1f 91       	pop	r17
    1c46:	0f 91       	pop	r16
    1c48:	ff 90       	pop	r15
    1c4a:	ef 90       	pop	r14
    1c4c:	08 95       	ret
    1c4e:	40 96       	adiw	r24, 0x10	; 16
    1c50:	0e 94 a3 2c 	call	0x5946	;  0x5946
    1c54:	08 95       	ret
    1c56:	40 96       	adiw	r24, 0x10	; 16
    1c58:	6c e6       	ldi	r22, 0x6C	; 108
    1c5a:	71 e0       	ldi	r23, 0x01	; 1
    1c5c:	0e 94 70 2c 	call	0x58e0	;  0x58e0
    1c60:	08 95       	ret
    1c62:	fc 01       	movw	r30, r24
    1c64:	84 81       	ldd	r24, Z+4	; 0x04
    1c66:	95 81       	ldd	r25, Z+5	; 0x05
    1c68:	08 95       	ret
    1c6a:	cf 92       	push	r12
    1c6c:	df 92       	push	r13
    1c6e:	ef 92       	push	r14
    1c70:	ff 92       	push	r15
    1c72:	0f 93       	push	r16
    1c74:	1f 93       	push	r17
    1c76:	7a 01       	movw	r14, r20
    1c78:	26 e1       	ldi	r18, 0x16	; 22
    1c7a:	c2 2e       	mov	r12, r18
    1c7c:	d1 2c       	mov	r13, r1
    1c7e:	c8 0e       	add	r12, r24
    1c80:	d9 1e       	adc	r13, r25
    1c82:	c6 01       	movw	r24, r12
    1c84:	0e 94 17 0a 	call	0x142e	;  0x142e
    1c88:	c6 01       	movw	r24, r12
    1c8a:	63 e0       	ldi	r22, 0x03	; 3
    1c8c:	70 e0       	ldi	r23, 0x00	; 0
    1c8e:	0e 94 17 0a 	call	0x142e	;  0x142e
    1c92:	00 27       	eor	r16, r16
    1c94:	f7 fc       	sbrc	r15, 7
    1c96:	00 95       	com	r16
    1c98:	10 2f       	mov	r17, r16
    1c9a:	c8 01       	movw	r24, r16
    1c9c:	b7 01       	movw	r22, r14
    1c9e:	0e 94 37 2d 	call	0x5a6e	;  0x5a6e
    1ca2:	c6 01       	movw	r24, r12
    1ca4:	64 e0       	ldi	r22, 0x04	; 4
    1ca6:	70 e0       	ldi	r23, 0x00	; 0
    1ca8:	0e 94 17 0a 	call	0x142e	;  0x142e
    1cac:	1f 91       	pop	r17
    1cae:	0f 91       	pop	r16
    1cb0:	ff 90       	pop	r15
    1cb2:	ef 90       	pop	r14
    1cb4:	df 90       	pop	r13
    1cb6:	cf 90       	pop	r12
    1cb8:	08 95       	ret
    1cba:	cf 92       	push	r12
    1cbc:	df 92       	push	r13
    1cbe:	ef 92       	push	r14
    1cc0:	ff 92       	push	r15
    1cc2:	0f 93       	push	r16
    1cc4:	1f 93       	push	r17
    1cc6:	7b 01       	movw	r14, r22
    1cc8:	36 e1       	ldi	r19, 0x16	; 22
    1cca:	c3 2e       	mov	r12, r19
    1ccc:	d1 2c       	mov	r13, r1
    1cce:	c8 0e       	add	r12, r24
    1cd0:	d9 1e       	adc	r13, r25
    1cd2:	c6 01       	movw	r24, r12
    1cd4:	60 e0       	ldi	r22, 0x00	; 0
    1cd6:	70 e0       	ldi	r23, 0x00	; 0
    1cd8:	0e 94 17 0a 	call	0x142e	;  0x142e
    1cdc:	00 27       	eor	r16, r16
    1cde:	f7 fc       	sbrc	r15, 7
    1ce0:	00 95       	com	r16
    1ce2:	10 2f       	mov	r17, r16
    1ce4:	c8 01       	movw	r24, r16
    1ce6:	b7 01       	movw	r22, r14
    1ce8:	0e 94 37 2d 	call	0x5a6e	;  0x5a6e
    1cec:	c6 01       	movw	r24, r12
    1cee:	64 e0       	ldi	r22, 0x04	; 4
    1cf0:	70 e0       	ldi	r23, 0x00	; 0
    1cf2:	0e 94 17 0a 	call	0x142e	;  0x142e
    1cf6:	1f 91       	pop	r17
    1cf8:	0f 91       	pop	r16
    1cfa:	ff 90       	pop	r15
    1cfc:	ef 90       	pop	r14
    1cfe:	df 90       	pop	r13
    1d00:	cf 90       	pop	r12
    1d02:	08 95       	ret
    1d04:	2f 92       	push	r2
    1d06:	3f 92       	push	r3
    1d08:	4f 92       	push	r4
    1d0a:	5f 92       	push	r5
    1d0c:	6f 92       	push	r6
    1d0e:	7f 92       	push	r7
    1d10:	8f 92       	push	r8
    1d12:	9f 92       	push	r9
    1d14:	af 92       	push	r10
    1d16:	bf 92       	push	r11
    1d18:	cf 92       	push	r12
    1d1a:	df 92       	push	r13
    1d1c:	ef 92       	push	r14
    1d1e:	ff 92       	push	r15
    1d20:	0f 93       	push	r16
    1d22:	1f 93       	push	r17
    1d24:	df 93       	push	r29
    1d26:	cf 93       	push	r28
    1d28:	cd b7       	in	r28, 0x3d	; 61
    1d2a:	de b7       	in	r29, 0x3e	; 62
    1d2c:	60 97       	sbiw	r28, 0x10	; 16
    1d2e:	0f b6       	in	r0, 0x3f	; 63
    1d30:	f8 94       	cli
    1d32:	de bf       	out	0x3e, r29	; 62
    1d34:	0f be       	out	0x3f, r0	; 63
    1d36:	cd bf       	out	0x3d, r28	; 61
    1d38:	5c 01       	movw	r10, r24
    1d3a:	2b 01       	movw	r4, r22
    1d3c:	3a 01       	movw	r6, r20
    1d3e:	19 01       	movw	r2, r18
    1d40:	fc 01       	movw	r30, r24
    1d42:	10 82       	st	Z, r1
    1d44:	68 eb       	ldi	r22, 0xB8	; 184
    1d46:	7b e0       	ldi	r23, 0x0B	; 11
    1d48:	80 e0       	ldi	r24, 0x00	; 0
    1d4a:	90 e0       	ldi	r25, 0x00	; 0
    1d4c:	0e 94 37 2d 	call	0x5a6e	;  0x5a6e
    1d50:	46 e1       	ldi	r20, 0x16	; 22
    1d52:	84 2e       	mov	r8, r20
    1d54:	91 2c       	mov	r9, r1
    1d56:	8a 0c       	add	r8, r10
    1d58:	9b 1c       	adc	r9, r11
    1d5a:	05 c0       	rjmp	.+10     	;  0x1d66
    1d5c:	c4 01       	movw	r24, r8
    1d5e:	0e 94 a0 04 	call	0x940	;  0x940
    1d62:	f5 01       	movw	r30, r10
    1d64:	80 83       	st	Z, r24
    1d66:	f5 01       	movw	r30, r10
    1d68:	80 81       	ld	r24, Z
    1d6a:	81 30       	cpi	r24, 0x01	; 1
    1d6c:	b9 f7       	brne	.-18     	;  0x1d5c
    1d6e:	c4 01       	movw	r24, r8
    1d70:	0e 94 13 01 	call	0x226	;  0x226
    1d74:	81 30       	cpi	r24, 0x01	; 1
    1d76:	d9 f7       	brne	.-10     	;  0x1d6e
    1d78:	c4 01       	movw	r24, r8
    1d7a:	0e 94 0f 01 	call	0x21e	;  0x21e
    1d7e:	6c 01       	movw	r12, r24
    1d80:	c4 01       	movw	r24, r8
    1d82:	be 01       	movw	r22, r28
    1d84:	6f 5f       	subi	r22, 0xFF	; 255
    1d86:	7f 4f       	sbci	r23, 0xFF	; 255
    1d88:	ae 01       	movw	r20, r28
    1d8a:	4b 5f       	subi	r20, 0xFB	; 251
    1d8c:	5f 4f       	sbci	r21, 0xFF	; 255
    1d8e:	0e 94 df 00 	call	0x1be	;  0x1be
    1d92:	c4 01       	movw	r24, r8
    1d94:	be 01       	movw	r22, r28
    1d96:	67 5f       	subi	r22, 0xF7	; 247
    1d98:	7f 4f       	sbci	r23, 0xFF	; 255
    1d9a:	ae 01       	movw	r20, r28
    1d9c:	43 5f       	subi	r20, 0xF3	; 243
    1d9e:	5f 4f       	sbci	r21, 0xFF	; 255
    1da0:	0e 94 f7 00 	call	0x1ee	;  0x1ee
    1da4:	f5 01       	movw	r30, r10
    1da6:	82 81       	ldd	r24, Z+2	; 0x02
    1da8:	81 30       	cpi	r24, 0x01	; 1
    1daa:	09 f4       	brne	.+2      	;  0x1dae
    1dac:	48 c0       	rjmp	.+144    	;  0x1e3e
    1dae:	ed 84       	ldd	r14, Y+13	; 0x0d
    1db0:	fe 84       	ldd	r15, Y+14	; 0x0e
    1db2:	0f 85       	ldd	r16, Y+15	; 0x0f
    1db4:	18 89       	ldd	r17, Y+16	; 0x10
    1db6:	2d 81       	ldd	r18, Y+5	; 0x05
    1db8:	3e 81       	ldd	r19, Y+6	; 0x06
    1dba:	4f 81       	ldd	r20, Y+7	; 0x07
    1dbc:	58 85       	ldd	r21, Y+8	; 0x08
    1dbe:	c7 01       	movw	r24, r14
    1dc0:	82 1b       	sub	r24, r18
    1dc2:	93 0b       	sbc	r25, r19
    1dc4:	97 ff       	sbrs	r25, 7
    1dc6:	03 c0       	rjmp	.+6      	;  0x1dce
    1dc8:	90 95       	com	r25
    1dca:	81 95       	neg	r24
    1dcc:	9f 4f       	sbci	r25, 0xFF	; 255
    1dce:	82 15       	cp	r24, r2
    1dd0:	93 05       	cpc	r25, r3
    1dd2:	4c f4       	brge	.+18     	;  0x1de6
    1dd4:	c4 01       	movw	r24, r8
    1dd6:	64 e0       	ldi	r22, 0x04	; 4
    1dd8:	70 e0       	ldi	r23, 0x00	; 0
    1dda:	0e 94 17 0a 	call	0x142e	;  0x142e
    1dde:	81 e0       	ldi	r24, 0x01	; 1
    1de0:	f5 01       	movw	r30, r10
    1de2:	82 83       	std	Z+2, r24	; 0x02
    1de4:	80 c0       	rjmp	.+256    	;  0x1ee6
    1de6:	e2 16       	cp	r14, r18
    1de8:	f3 06       	cpc	r15, r19
    1dea:	04 07       	cpc	r16, r20
    1dec:	15 07       	cpc	r17, r21
    1dee:	8c f4       	brge	.+34     	;  0x1e12
    1df0:	c6 01       	movw	r24, r12
    1df2:	8a 5a       	subi	r24, 0xAA	; 170
    1df4:	90 40       	sbci	r25, 0x00	; 0
    1df6:	45 97       	sbiw	r24, 0x15	; 21
    1df8:	08 f4       	brcc	.+2      	;  0x1dfc
    1dfa:	62 c0       	rjmp	.+196    	;  0x1ec0
    1dfc:	f4 eb       	ldi	r31, 0xB4	; 180
    1dfe:	cf 16       	cp	r12, r31
    1e00:	d1 04       	cpc	r13, r1
    1e02:	0c f4       	brge	.+2      	;  0x1e06
    1e04:	6a c0       	rjmp	.+212    	;  0x1eda
    1e06:	24 eb       	ldi	r18, 0xB4	; 180
    1e08:	c2 16       	cp	r12, r18
    1e0a:	d1 04       	cpc	r13, r1
    1e0c:	09 f4       	brne	.+2      	;  0x1e10
    1e0e:	6b c0       	rjmp	.+214    	;  0x1ee6
    1e10:	49 c0       	rjmp	.+146    	;  0x1ea4
    1e12:	2e 15       	cp	r18, r14
    1e14:	3f 05       	cpc	r19, r15
    1e16:	40 07       	cpc	r20, r16
    1e18:	51 07       	cpc	r21, r17
    1e1a:	0c f0       	brlt	.+2      	;  0x1e1e
    1e1c:	64 c0       	rjmp	.+200    	;  0x1ee6
    1e1e:	c6 01       	movw	r24, r12
    1e20:	0b 97       	sbiw	r24, 0x0b	; 11
    1e22:	83 55       	subi	r24, 0x53	; 83
    1e24:	91 40       	sbci	r25, 0x01	; 1
    1e26:	08 f0       	brcs	.+2      	;  0x1e2a
    1e28:	4b c0       	rjmp	.+150    	;  0x1ec0
    1e2a:	f4 eb       	ldi	r31, 0xB4	; 180
    1e2c:	cf 16       	cp	r12, r31
    1e2e:	d1 04       	cpc	r13, r1
    1e30:	cc f1       	brlt	.+114    	;  0x1ea4
    1e32:	24 eb       	ldi	r18, 0xB4	; 180
    1e34:	c2 16       	cp	r12, r18
    1e36:	d1 04       	cpc	r13, r1
    1e38:	09 f4       	brne	.+2      	;  0x1e3c
    1e3a:	55 c0       	rjmp	.+170    	;  0x1ee6
    1e3c:	4e c0       	rjmp	.+156    	;  0x1eda
    1e3e:	f5 01       	movw	r30, r10
    1e40:	83 81       	ldd	r24, Z+3	; 0x03
    1e42:	81 30       	cpi	r24, 0x01	; 1
    1e44:	09 f4       	brne	.+2      	;  0x1e48
    1e46:	4f c0       	rjmp	.+158    	;  0x1ee6
    1e48:	e9 84       	ldd	r14, Y+9	; 0x09
    1e4a:	fa 84       	ldd	r15, Y+10	; 0x0a
    1e4c:	0b 85       	ldd	r16, Y+11	; 0x0b
    1e4e:	1c 85       	ldd	r17, Y+12	; 0x0c
    1e50:	29 81       	ldd	r18, Y+1	; 0x01
    1e52:	3a 81       	ldd	r19, Y+2	; 0x02
    1e54:	4b 81       	ldd	r20, Y+3	; 0x03
    1e56:	5c 81       	ldd	r21, Y+4	; 0x04
    1e58:	c7 01       	movw	r24, r14
    1e5a:	82 1b       	sub	r24, r18
    1e5c:	93 0b       	sbc	r25, r19
    1e5e:	97 ff       	sbrs	r25, 7
    1e60:	03 c0       	rjmp	.+6      	;  0x1e68
    1e62:	90 95       	com	r25
    1e64:	81 95       	neg	r24
    1e66:	9f 4f       	sbci	r25, 0xFF	; 255
    1e68:	82 15       	cp	r24, r2
    1e6a:	93 05       	cpc	r25, r3
    1e6c:	4c f4       	brge	.+18     	;  0x1e80
    1e6e:	c4 01       	movw	r24, r8
    1e70:	64 e0       	ldi	r22, 0x04	; 4
    1e72:	70 e0       	ldi	r23, 0x00	; 0
    1e74:	0e 94 17 0a 	call	0x142e	;  0x142e
    1e78:	81 e0       	ldi	r24, 0x01	; 1
    1e7a:	f5 01       	movw	r30, r10
    1e7c:	83 83       	std	Z+3, r24	; 0x03
    1e7e:	33 c0       	rjmp	.+102    	;  0x1ee6
    1e80:	e2 16       	cp	r14, r18
    1e82:	f3 06       	cpc	r15, r19
    1e84:	04 07       	cpc	r16, r20
    1e86:	15 07       	cpc	r17, r21
    1e88:	8c f4       	brge	.+34     	;  0x1eac
    1e8a:	c6 01       	movw	r24, r12
    1e8c:	84 50       	subi	r24, 0x04	; 4
    1e8e:	91 40       	sbci	r25, 0x01	; 1
    1e90:	45 97       	sbiw	r24, 0x15	; 21
    1e92:	b0 f0       	brcs	.+44     	;  0x1ec0
    1e94:	85 ea       	ldi	r24, 0xA5	; 165
    1e96:	9f ef       	ldi	r25, 0xFF	; 255
    1e98:	c8 0e       	add	r12, r24
    1e9a:	d9 1e       	adc	r13, r25
    1e9c:	93 eb       	ldi	r25, 0xB3	; 179
    1e9e:	c9 16       	cp	r12, r25
    1ea0:	d1 04       	cpc	r13, r1
    1ea2:	08 f5       	brcc	.+66     	;  0x1ee6
    1ea4:	c5 01       	movw	r24, r10
    1ea6:	62 e0       	ldi	r22, 0x02	; 2
    1ea8:	70 e0       	ldi	r23, 0x00	; 0
    1eaa:	1a c0       	rjmp	.+52     	;  0x1ee0
    1eac:	2e 15       	cp	r18, r14
    1eae:	3f 05       	cpc	r19, r15
    1eb0:	40 07       	cpc	r20, r16
    1eb2:	51 07       	cpc	r21, r17
    1eb4:	c4 f4       	brge	.+48     	;  0x1ee6
    1eb6:	c6 01       	movw	r24, r12
    1eb8:	80 55       	subi	r24, 0x50	; 80
    1eba:	90 40       	sbci	r25, 0x00	; 0
    1ebc:	45 97       	sbiw	r24, 0x15	; 21
    1ebe:	28 f4       	brcc	.+10     	;  0x1eca
    1ec0:	c5 01       	movw	r24, r10
    1ec2:	b2 01       	movw	r22, r4
    1ec4:	0e 94 5d 0e 	call	0x1cba	;  0x1cba
    1ec8:	0e c0       	rjmp	.+28     	;  0x1ee6
    1eca:	e5 ea       	ldi	r30, 0xA5	; 165
    1ecc:	ff ef       	ldi	r31, 0xFF	; 255
    1ece:	ce 0e       	add	r12, r30
    1ed0:	df 1e       	adc	r13, r31
    1ed2:	f3 eb       	ldi	r31, 0xB3	; 179
    1ed4:	cf 16       	cp	r12, r31
    1ed6:	d1 04       	cpc	r13, r1
    1ed8:	30 f4       	brcc	.+12     	;  0x1ee6
    1eda:	c5 01       	movw	r24, r10
    1edc:	61 e0       	ldi	r22, 0x01	; 1
    1ede:	70 e0       	ldi	r23, 0x00	; 0
    1ee0:	a3 01       	movw	r20, r6
    1ee2:	0e 94 35 0e 	call	0x1c6a	;  0x1c6a
    1ee6:	f5 01       	movw	r30, r10
    1ee8:	83 81       	ldd	r24, Z+3	; 0x03
    1eea:	81 30       	cpi	r24, 0x01	; 1
    1eec:	89 f4       	brne	.+34     	;  0x1f10
    1eee:	12 82       	std	Z+2, r1	; 0x02
    1ef0:	13 82       	std	Z+3, r1	; 0x03
    1ef2:	89 e2       	ldi	r24, 0x29	; 41
    1ef4:	97 e0       	ldi	r25, 0x07	; 7
    1ef6:	63 e7       	ldi	r22, 0x73	; 115
    1ef8:	71 e0       	ldi	r23, 0x01	; 1
    1efa:	0e 94 7a 2b 	call	0x56f4	;  0x56f4
    1efe:	89 e2       	ldi	r24, 0x29	; 41
    1f00:	97 e0       	ldi	r25, 0x07	; 7
    1f02:	65 e7       	ldi	r22, 0x75	; 117
    1f04:	71 e0       	ldi	r23, 0x01	; 1
    1f06:	0e 94 7a 2b 	call	0x56f4	;  0x56f4
    1f0a:	81 e0       	ldi	r24, 0x01	; 1
    1f0c:	90 e0       	ldi	r25, 0x00	; 0
    1f0e:	08 c0       	rjmp	.+16     	;  0x1f20
    1f10:	89 e2       	ldi	r24, 0x29	; 41
    1f12:	97 e0       	ldi	r25, 0x07	; 7
    1f14:	65 e7       	ldi	r22, 0x75	; 117
    1f16:	71 e0       	ldi	r23, 0x01	; 1
    1f18:	0e 94 7a 2b 	call	0x56f4	;  0x56f4
    1f1c:	83 e0       	ldi	r24, 0x03	; 3
    1f1e:	90 e0       	ldi	r25, 0x00	; 0
    1f20:	f5 01       	movw	r30, r10
    1f22:	95 83       	std	Z+5, r25	; 0x05
    1f24:	84 83       	std	Z+4, r24	; 0x04
    1f26:	60 96       	adiw	r28, 0x10	; 16
    1f28:	0f b6       	in	r0, 0x3f	; 63
    1f2a:	f8 94       	cli
    1f2c:	de bf       	out	0x3e, r29	; 62
    1f2e:	0f be       	out	0x3f, r0	; 63
    1f30:	cd bf       	out	0x3d, r28	; 61
    1f32:	cf 91       	pop	r28
    1f34:	df 91       	pop	r29
    1f36:	1f 91       	pop	r17
    1f38:	0f 91       	pop	r16
    1f3a:	ff 90       	pop	r15
    1f3c:	ef 90       	pop	r14
    1f3e:	df 90       	pop	r13
    1f40:	cf 90       	pop	r12
    1f42:	bf 90       	pop	r11
    1f44:	af 90       	pop	r10
    1f46:	9f 90       	pop	r9
    1f48:	8f 90       	pop	r8
    1f4a:	7f 90       	pop	r7
    1f4c:	6f 90       	pop	r6
    1f4e:	5f 90       	pop	r5
    1f50:	4f 90       	pop	r4
    1f52:	3f 90       	pop	r3
    1f54:	2f 90       	pop	r2
    1f56:	08 95       	ret
    1f58:	46 96       	adiw	r24, 0x16	; 22
    1f5a:	64 e0       	ldi	r22, 0x04	; 4
    1f5c:	70 e0       	ldi	r23, 0x00	; 0
    1f5e:	0e 94 17 0a 	call	0x142e	;  0x142e
    1f62:	89 e2       	ldi	r24, 0x29	; 41
    1f64:	97 e0       	ldi	r25, 0x07	; 7
    1f66:	67 e7       	ldi	r22, 0x77	; 119
    1f68:	71 e0       	ldi	r23, 0x01	; 1
    1f6a:	0e 94 7a 2b 	call	0x56f4	;  0x56f4
    1f6e:	08 95       	ret
    1f70:	cf 92       	push	r12
    1f72:	df 92       	push	r13
    1f74:	ef 92       	push	r14
    1f76:	ff 92       	push	r15
    1f78:	0f 93       	push	r16
    1f7a:	1f 93       	push	r17
    1f7c:	cf 93       	push	r28
    1f7e:	df 93       	push	r29
    1f80:	ec 01       	movw	r28, r24
    1f82:	7b 01       	movw	r14, r22
    1f84:	6a 01       	movw	r12, r20
    1f86:	8c 01       	movw	r16, r24
    1f88:	0a 5e       	subi	r16, 0xEA	; 234
    1f8a:	1f 4f       	sbci	r17, 0xFF	; 255
    1f8c:	c8 01       	movw	r24, r16
    1f8e:	0e 94 13 01 	call	0x226	;  0x226
    1f92:	81 30       	cpi	r24, 0x01	; 1
    1f94:	d9 f7       	brne	.-10     	;  0x1f8c
    1f96:	c8 01       	movw	r24, r16
    1f98:	0e 94 0f 01 	call	0x21e	;  0x21e
    1f9c:	9c 01       	movw	r18, r24
    1f9e:	8c 89       	ldd	r24, Y+20	; 0x14
    1fa0:	9d 89       	ldd	r25, Y+21	; 0x15
    1fa2:	81 30       	cpi	r24, 0x01	; 1
    1fa4:	91 05       	cpc	r25, r1
    1fa6:	e9 f4       	brne	.+58     	;  0x1fe2
    1fa8:	4a 89       	ldd	r20, Y+18	; 0x12
    1faa:	5b 89       	ldd	r21, Y+19	; 0x13
    1fac:	c9 01       	movw	r24, r18
    1fae:	84 1b       	sub	r24, r20
    1fb0:	95 0b       	sbc	r25, r21
    1fb2:	0a 96       	adiw	r24, 0x0a	; 10
    1fb4:	45 97       	sbiw	r24, 0x15	; 21
    1fb6:	c8 f1       	brcs	.+114    	;  0x202a
    1fb8:	24 17       	cp	r18, r20
    1fba:	35 07       	cpc	r19, r21
    1fbc:	3c f4       	brge	.+14     	;  0x1fcc
    1fbe:	88 89       	ldd	r24, Y+16	; 0x10
    1fc0:	99 89       	ldd	r25, Y+17	; 0x11
    1fc2:	82 17       	cp	r24, r18
    1fc4:	93 07       	cpc	r25, r19
    1fc6:	0c f0       	brlt	.+2      	;  0x1fca
    1fc8:	52 c0       	rjmp	.+164    	;  0x206e
    1fca:	41 c0       	rjmp	.+130    	;  0x204e
    1fcc:	42 17       	cp	r20, r18
    1fce:	53 07       	cpc	r21, r19
    1fd0:	0c f0       	brlt	.+2      	;  0x1fd4
    1fd2:	4d c0       	rjmp	.+154    	;  0x206e
    1fd4:	88 89       	ldd	r24, Y+16	; 0x10
    1fd6:	99 89       	ldd	r25, Y+17	; 0x11
    1fd8:	28 17       	cp	r18, r24
    1fda:	39 07       	cpc	r19, r25
    1fdc:	0c f0       	brlt	.+2      	;  0x1fe0
    1fde:	47 c0       	rjmp	.+142    	;  0x206e
    1fe0:	40 c0       	rjmp	.+128    	;  0x2062
    1fe2:	02 97       	sbiw	r24, 0x02	; 2
    1fe4:	d1 f4       	brne	.+52     	;  0x201a
    1fe6:	4e 85       	ldd	r20, Y+14	; 0x0e
    1fe8:	5f 85       	ldd	r21, Y+15	; 0x0f
    1fea:	c9 01       	movw	r24, r18
    1fec:	84 1b       	sub	r24, r20
    1fee:	95 0b       	sbc	r25, r21
    1ff0:	0a 96       	adiw	r24, 0x0a	; 10
    1ff2:	45 97       	sbiw	r24, 0x15	; 21
    1ff4:	d0 f0       	brcs	.+52     	;  0x202a
    1ff6:	42 17       	cp	r20, r18
    1ff8:	53 07       	cpc	r21, r19
    1ffa:	34 f4       	brge	.+12     	;  0x2008
    1ffc:	8c 85       	ldd	r24, Y+12	; 0x0c
    1ffe:	9d 85       	ldd	r25, Y+13	; 0x0d
    2000:	28 17       	cp	r18, r24
    2002:	39 07       	cpc	r19, r25
    2004:	a4 f5       	brge	.+104    	;  0x206e
    2006:	23 c0       	rjmp	.+70     	;  0x204e
    2008:	24 17       	cp	r18, r20
    200a:	35 07       	cpc	r19, r21
    200c:	84 f5       	brge	.+96     	;  0x206e
    200e:	8c 85       	ldd	r24, Y+12	; 0x0c
    2010:	9d 85       	ldd	r25, Y+13	; 0x0d
    2012:	82 17       	cp	r24, r18
    2014:	93 07       	cpc	r25, r19
    2016:	5c f5       	brge	.+86     	;  0x206e
    2018:	24 c0       	rjmp	.+72     	;  0x2062
    201a:	4c 85       	ldd	r20, Y+12	; 0x0c
    201c:	5d 85       	ldd	r21, Y+13	; 0x0d
    201e:	c9 01       	movw	r24, r18
    2020:	84 1b       	sub	r24, r20
    2022:	95 0b       	sbc	r25, r21
    2024:	0a 96       	adiw	r24, 0x0a	; 10
    2026:	45 97       	sbiw	r24, 0x15	; 21
    2028:	50 f4       	brcc	.+20     	;  0x203e
    202a:	ce 01       	movw	r24, r28
    202c:	b7 01       	movw	r22, r14
    202e:	0e 94 5d 0e 	call	0x1cba	;  0x1cba
    2032:	8a 85       	ldd	r24, Y+10	; 0x0a
    2034:	9b 85       	ldd	r25, Y+11	; 0x0b
    2036:	01 96       	adiw	r24, 0x01	; 1
    2038:	9b 87       	std	Y+11, r25	; 0x0b
    203a:	8a 87       	std	Y+10, r24	; 0x0a
    203c:	18 c0       	rjmp	.+48     	;  0x206e
    203e:	8e 85       	ldd	r24, Y+14	; 0x0e
    2040:	9f 85       	ldd	r25, Y+15	; 0x0f
    2042:	28 17       	cp	r18, r24
    2044:	39 07       	cpc	r19, r25
    2046:	3c f4       	brge	.+14     	;  0x2056
    2048:	42 17       	cp	r20, r18
    204a:	53 07       	cpc	r21, r19
    204c:	84 f4       	brge	.+32     	;  0x206e
    204e:	ce 01       	movw	r24, r28
    2050:	61 e0       	ldi	r22, 0x01	; 1
    2052:	70 e0       	ldi	r23, 0x00	; 0
    2054:	09 c0       	rjmp	.+18     	;  0x2068
    2056:	82 17       	cp	r24, r18
    2058:	93 07       	cpc	r25, r19
    205a:	4c f4       	brge	.+18     	;  0x206e
    205c:	24 17       	cp	r18, r20
    205e:	35 07       	cpc	r19, r21
    2060:	34 f4       	brge	.+12     	;  0x206e
    2062:	ce 01       	movw	r24, r28
    2064:	62 e0       	ldi	r22, 0x02	; 2
    2066:	70 e0       	ldi	r23, 0x00	; 0
    2068:	a6 01       	movw	r20, r12
    206a:	0e 94 35 0e 	call	0x1c6a	;  0x1c6a
    206e:	8a 85       	ldd	r24, Y+10	; 0x0a
    2070:	9b 85       	ldd	r25, Y+11	; 0x0b
    2072:	85 30       	cpi	r24, 0x05	; 5
    2074:	91 05       	cpc	r25, r1
    2076:	49 f4       	brne	.+18     	;  0x208a
    2078:	86 e0       	ldi	r24, 0x06	; 6
    207a:	90 e0       	ldi	r25, 0x00	; 0
    207c:	9b 87       	std	Y+11, r25	; 0x0b
    207e:	8a 87       	std	Y+10, r24	; 0x0a
    2080:	89 e2       	ldi	r24, 0x29	; 41
    2082:	97 e0       	ldi	r25, 0x07	; 7
    2084:	69 e7       	ldi	r22, 0x79	; 121
    2086:	71 e0       	ldi	r23, 0x01	; 1
    2088:	3a c0       	rjmp	.+116    	;  0x20fe
    208a:	8b 30       	cpi	r24, 0x0B	; 11
    208c:	91 05       	cpc	r25, r1
    208e:	89 f4       	brne	.+34     	;  0x20b2
    2090:	01 e0       	ldi	r16, 0x01	; 1
    2092:	10 e0       	ldi	r17, 0x00	; 0
    2094:	1d 8b       	std	Y+21, r17	; 0x15
    2096:	0c 8b       	std	Y+20, r16	; 0x14
    2098:	8c e0       	ldi	r24, 0x0C	; 12
    209a:	90 e0       	ldi	r25, 0x00	; 0
    209c:	9b 87       	std	Y+11, r25	; 0x0b
    209e:	8a 87       	std	Y+10, r24	; 0x0a
    20a0:	89 e2       	ldi	r24, 0x29	; 41
    20a2:	97 e0       	ldi	r25, 0x07	; 7
    20a4:	6b e7       	ldi	r22, 0x7B	; 123
    20a6:	71 e0       	ldi	r23, 0x01	; 1
    20a8:	0e 94 7a 2b 	call	0x56f4	;  0x56f4
    20ac:	1d 83       	std	Y+5, r17	; 0x05
    20ae:	0c 83       	std	Y+4, r16	; 0x04
    20b0:	35 c0       	rjmp	.+106    	;  0x211c
    20b2:	8f 30       	cpi	r24, 0x0F	; 15
    20b4:	91 05       	cpc	r25, r1
    20b6:	69 f4       	brne	.+26     	;  0x20d2
    20b8:	82 e0       	ldi	r24, 0x02	; 2
    20ba:	90 e0       	ldi	r25, 0x00	; 0
    20bc:	9d 8b       	std	Y+21, r25	; 0x15
    20be:	8c 8b       	std	Y+20, r24	; 0x14
    20c0:	80 e1       	ldi	r24, 0x10	; 16
    20c2:	90 e0       	ldi	r25, 0x00	; 0
    20c4:	9b 87       	std	Y+11, r25	; 0x0b
    20c6:	8a 87       	std	Y+10, r24	; 0x0a
    20c8:	89 e2       	ldi	r24, 0x29	; 41
    20ca:	97 e0       	ldi	r25, 0x07	; 7
    20cc:	6d e7       	ldi	r22, 0x7D	; 125
    20ce:	71 e0       	ldi	r23, 0x01	; 1
    20d0:	16 c0       	rjmp	.+44     	;  0x20fe
    20d2:	85 31       	cpi	r24, 0x15	; 21
    20d4:	91 05       	cpc	r25, r1
    20d6:	49 f4       	brne	.+18     	;  0x20ea
    20d8:	86 e1       	ldi	r24, 0x16	; 22
    20da:	90 e0       	ldi	r25, 0x00	; 0
    20dc:	9b 87       	std	Y+11, r25	; 0x0b
    20de:	8a 87       	std	Y+10, r24	; 0x0a
    20e0:	89 e2       	ldi	r24, 0x29	; 41
    20e2:	97 e0       	ldi	r25, 0x07	; 7
    20e4:	6f e7       	ldi	r22, 0x7F	; 127
    20e6:	71 e0       	ldi	r23, 0x01	; 1
    20e8:	0a c0       	rjmp	.+20     	;  0x20fe
    20ea:	4b 97       	sbiw	r24, 0x1b	; 27
    20ec:	69 f4       	brne	.+26     	;  0x2108
    20ee:	8c e1       	ldi	r24, 0x1C	; 28
    20f0:	90 e0       	ldi	r25, 0x00	; 0
    20f2:	9b 87       	std	Y+11, r25	; 0x0b
    20f4:	8a 87       	std	Y+10, r24	; 0x0a
    20f6:	89 e2       	ldi	r24, 0x29	; 41
    20f8:	97 e0       	ldi	r25, 0x07	; 7
    20fa:	61 e8       	ldi	r22, 0x81	; 129
    20fc:	71 e0       	ldi	r23, 0x01	; 1
    20fe:	0e 94 7a 2b 	call	0x56f4	;  0x56f4
    2102:	81 e0       	ldi	r24, 0x01	; 1
    2104:	90 e0       	ldi	r25, 0x00	; 0
    2106:	08 c0       	rjmp	.+16     	;  0x2118
    2108:	89 e2       	ldi	r24, 0x29	; 41
    210a:	97 e0       	ldi	r25, 0x07	; 7
    210c:	63 e8       	ldi	r22, 0x83	; 131
    210e:	71 e0       	ldi	r23, 0x01	; 1
    2110:	0e 94 7a 2b 	call	0x56f4	;  0x56f4
    2114:	84 e0       	ldi	r24, 0x04	; 4
    2116:	90 e0       	ldi	r25, 0x00	; 0
    2118:	9d 83       	std	Y+5, r25	; 0x05
    211a:	8c 83       	std	Y+4, r24	; 0x04
    211c:	df 91       	pop	r29
    211e:	cf 91       	pop	r28
    2120:	1f 91       	pop	r17
    2122:	0f 91       	pop	r16
    2124:	ff 90       	pop	r15
    2126:	ef 90       	pop	r14
    2128:	df 90       	pop	r13
    212a:	cf 90       	pop	r12
    212c:	08 95       	ret
    212e:	ff 92       	push	r15
    2130:	0f 93       	push	r16
    2132:	1f 93       	push	r17
    2134:	cf 93       	push	r28
    2136:	df 93       	push	r29
    2138:	ec 01       	movw	r28, r24
    213a:	18 82       	st	Y, r1
    213c:	1f 82       	std	Y+7, r1	; 0x07
    213e:	1e 82       	std	Y+6, r1	; 0x06
    2140:	8c 01       	movw	r16, r24
    2142:	0a 5e       	subi	r16, 0xEA	; 234
    2144:	1f 4f       	sbci	r17, 0xFF	; 255
    2146:	ff 24       	eor	r15, r15
    2148:	f3 94       	inc	r15
    214a:	16 c0       	rjmp	.+44     	;  0x2178
    214c:	22 33       	cpi	r18, 0x32	; 50
    214e:	31 05       	cpc	r19, r1
    2150:	11 f4       	brne	.+4      	;  0x2156
    2152:	f8 82       	st	Y, r15
    2154:	11 c0       	rjmp	.+34     	;  0x2178
    2156:	c8 01       	movw	r24, r16
    2158:	0e 94 35 07 	call	0xe6a	;  0xe6a
    215c:	88 83       	st	Y, r24
    215e:	81 30       	cpi	r24, 0x01	; 1
    2160:	31 f4       	brne	.+12     	;  0x216e
    2162:	c8 01       	movw	r24, r16
    2164:	0e 94 2e 03 	call	0x65c	;  0x65c
    2168:	88 83       	st	Y, r24
    216a:	81 30       	cpi	r24, 0x01	; 1
    216c:	29 f0       	breq	.+10     	;  0x2178
    216e:	8e 81       	ldd	r24, Y+6	; 0x06
    2170:	9f 81       	ldd	r25, Y+7	; 0x07
    2172:	01 96       	adiw	r24, 0x01	; 1
    2174:	9f 83       	std	Y+7, r25	; 0x07
    2176:	8e 83       	std	Y+6, r24	; 0x06
    2178:	88 81       	ld	r24, Y
    217a:	2e 81       	ldd	r18, Y+6	; 0x06
    217c:	3f 81       	ldd	r19, Y+7	; 0x07
    217e:	81 30       	cpi	r24, 0x01	; 1
    2180:	29 f7       	brne	.-54     	;  0x214c
    2182:	22 33       	cpi	r18, 0x32	; 50
    2184:	31 05       	cpc	r19, r1
    2186:	49 f4       	brne	.+18     	;  0x219a
    2188:	89 e2       	ldi	r24, 0x29	; 41
    218a:	97 e0       	ldi	r25, 0x07	; 7
    218c:	67 e8       	ldi	r22, 0x87	; 135
    218e:	71 e0       	ldi	r23, 0x01	; 1
    2190:	0e 94 7a 2b 	call	0x56f4	;  0x56f4
    2194:	83 e0       	ldi	r24, 0x03	; 3
    2196:	90 e0       	ldi	r25, 0x00	; 0
    2198:	15 c0       	rjmp	.+42     	;  0x21c4
    219a:	8a 85       	ldd	r24, Y+10	; 0x0a
    219c:	9b 85       	ldd	r25, Y+11	; 0x0b
    219e:	4c 97       	sbiw	r24, 0x1c	; 28
    21a0:	49 f4       	brne	.+18     	;  0x21b4
    21a2:	89 e2       	ldi	r24, 0x29	; 41
    21a4:	97 e0       	ldi	r25, 0x07	; 7
    21a6:	67 e8       	ldi	r22, 0x87	; 135
    21a8:	71 e0       	ldi	r23, 0x01	; 1
    21aa:	0e 94 7a 2b 	call	0x56f4	;  0x56f4
    21ae:	85 e0       	ldi	r24, 0x05	; 5
    21b0:	90 e0       	ldi	r25, 0x00	; 0
    21b2:	08 c0       	rjmp	.+16     	;  0x21c4
    21b4:	89 e2       	ldi	r24, 0x29	; 41
    21b6:	97 e0       	ldi	r25, 0x07	; 7
    21b8:	67 e8       	ldi	r22, 0x87	; 135
    21ba:	71 e0       	ldi	r23, 0x01	; 1
    21bc:	0e 94 7a 2b 	call	0x56f4	;  0x56f4
    21c0:	84 e0       	ldi	r24, 0x04	; 4
    21c2:	90 e0       	ldi	r25, 0x00	; 0
    21c4:	9d 83       	std	Y+5, r25	; 0x05
    21c6:	8c 83       	std	Y+4, r24	; 0x04
    21c8:	df 91       	pop	r29
    21ca:	cf 91       	pop	r28
    21cc:	1f 91       	pop	r17
    21ce:	0f 91       	pop	r16
    21d0:	ff 90       	pop	r15
    21d2:	08 95       	ret
    21d4:	ff 92       	push	r15
    21d6:	0f 93       	push	r16
    21d8:	1f 93       	push	r17
    21da:	cf 93       	push	r28
    21dc:	df 93       	push	r29
    21de:	ec 01       	movw	r28, r24
    21e0:	18 82       	st	Y, r1
    21e2:	19 82       	std	Y+1, r1	; 0x01
    21e4:	1f 82       	std	Y+7, r1	; 0x07
    21e6:	1e 82       	std	Y+6, r1	; 0x06
    21e8:	19 86       	std	Y+9, r1	; 0x09
    21ea:	18 86       	std	Y+8, r1	; 0x08
    21ec:	8c 01       	movw	r16, r24
    21ee:	0a 5e       	subi	r16, 0xEA	; 234
    21f0:	1f 4f       	sbci	r17, 0xFF	; 255
    21f2:	ff 24       	eor	r15, r15
    21f4:	f3 94       	inc	r15
    21f6:	16 c0       	rjmp	.+44     	;  0x2224
    21f8:	22 33       	cpi	r18, 0x32	; 50
    21fa:	31 05       	cpc	r19, r1
    21fc:	11 f4       	brne	.+4      	;  0x2202
    21fe:	f8 82       	st	Y, r15
    2200:	11 c0       	rjmp	.+34     	;  0x2224
    2202:	c8 01       	movw	r24, r16
    2204:	0e 94 b3 08 	call	0x1166	;  0x1166
    2208:	88 83       	st	Y, r24
    220a:	81 30       	cpi	r24, 0x01	; 1
    220c:	31 f4       	brne	.+12     	;  0x221a
    220e:	c8 01       	movw	r24, r16
    2210:	0e 94 b8 06 	call	0xd70	;  0xd70
    2214:	88 83       	st	Y, r24
    2216:	81 30       	cpi	r24, 0x01	; 1
    2218:	29 f0       	breq	.+10     	;  0x2224
    221a:	8e 81       	ldd	r24, Y+6	; 0x06
    221c:	9f 81       	ldd	r25, Y+7	; 0x07
    221e:	01 96       	adiw	r24, 0x01	; 1
    2220:	9f 83       	std	Y+7, r25	; 0x07
    2222:	8e 83       	std	Y+6, r24	; 0x06
    2224:	88 81       	ld	r24, Y
    2226:	2e 81       	ldd	r18, Y+6	; 0x06
    2228:	3f 81       	ldd	r19, Y+7	; 0x07
    222a:	81 30       	cpi	r24, 0x01	; 1
    222c:	29 f7       	brne	.-54     	;  0x21f8
    222e:	22 33       	cpi	r18, 0x32	; 50
    2230:	31 05       	cpc	r19, r1
    2232:	49 f4       	brne	.+18     	;  0x2246
    2234:	89 e2       	ldi	r24, 0x29	; 41
    2236:	97 e0       	ldi	r25, 0x07	; 7
    2238:	69 e8       	ldi	r22, 0x89	; 137
    223a:	71 e0       	ldi	r23, 0x01	; 1
    223c:	0e 94 7a 2b 	call	0x56f4	;  0x56f4
    2240:	83 e0       	ldi	r24, 0x03	; 3
    2242:	90 e0       	ldi	r25, 0x00	; 0
    2244:	08 c0       	rjmp	.+16     	;  0x2256
    2246:	89 e2       	ldi	r24, 0x29	; 41
    2248:	97 e0       	ldi	r25, 0x07	; 7
    224a:	69 e8       	ldi	r22, 0x89	; 137
    224c:	71 e0       	ldi	r23, 0x01	; 1
    224e:	0e 94 7a 2b 	call	0x56f4	;  0x56f4
    2252:	82 e0       	ldi	r24, 0x02	; 2
    2254:	90 e0       	ldi	r25, 0x00	; 0
    2256:	9d 83       	std	Y+5, r25	; 0x05
    2258:	8c 83       	std	Y+4, r24	; 0x04
    225a:	df 91       	pop	r29
    225c:	cf 91       	pop	r28
    225e:	1f 91       	pop	r17
    2260:	0f 91       	pop	r16
    2262:	ff 90       	pop	r15
    2264:	08 95       	ret
    2266:	0f 93       	push	r16
    2268:	1f 93       	push	r17
    226a:	cf 93       	push	r28
    226c:	df 93       	push	r29
    226e:	ec 01       	movw	r28, r24
    2270:	18 82       	st	Y, r1
    2272:	8c 01       	movw	r16, r24
    2274:	0a 5e       	subi	r16, 0xEA	; 234
    2276:	1f 4f       	sbci	r17, 0xFF	; 255
    2278:	c8 01       	movw	r24, r16
    227a:	0e 94 13 01 	call	0x226	;  0x226
    227e:	81 30       	cpi	r24, 0x01	; 1
    2280:	d9 f7       	brne	.-10     	;  0x2278
    2282:	c8 01       	movw	r24, r16
    2284:	0e 94 0f 01 	call	0x21e	;  0x21e
    2288:	9c 01       	movw	r18, r24
    228a:	9d 87       	std	Y+13, r25	; 0x0d
    228c:	8c 87       	std	Y+12, r24	; 0x0c
    228e:	8c 54       	subi	r24, 0x4C	; 76
    2290:	9f 4f       	sbci	r25, 0xFF	; 255
    2292:	9f 87       	std	Y+15, r25	; 0x0f
    2294:	8e 87       	std	Y+14, r24	; 0x0e
    2296:	88 56       	subi	r24, 0x68	; 104
    2298:	91 40       	sbci	r25, 0x01	; 1
    229a:	24 f0       	brlt	.+8      	;  0x22a4
    229c:	24 5b       	subi	r18, 0xB4	; 180
    229e:	30 40       	sbci	r19, 0x00	; 0
    22a0:	3f 87       	std	Y+15, r19	; 0x0f
    22a2:	2e 87       	std	Y+14, r18	; 0x0e
    22a4:	2c 85       	ldd	r18, Y+12	; 0x0c
    22a6:	3d 85       	ldd	r19, Y+13	; 0x0d
    22a8:	c9 01       	movw	r24, r18
    22aa:	82 5f       	subi	r24, 0xF2	; 242
    22ac:	9e 4f       	sbci	r25, 0xFE	; 254
    22ae:	9b 8b       	std	Y+19, r25	; 0x13
    22b0:	8a 8b       	std	Y+18, r24	; 0x12
    22b2:	88 56       	subi	r24, 0x68	; 104
    22b4:	91 40       	sbci	r25, 0x01	; 1
    22b6:	24 f0       	brlt	.+8      	;  0x22c0
    22b8:	2a 55       	subi	r18, 0x5A	; 90
    22ba:	30 40       	sbci	r19, 0x00	; 0
    22bc:	3b 8b       	std	Y+19, r19	; 0x13
    22be:	2a 8b       	std	Y+18, r18	; 0x12
    22c0:	2c 85       	ldd	r18, Y+12	; 0x0c
    22c2:	3d 85       	ldd	r19, Y+13	; 0x0d
    22c4:	c9 01       	movw	r24, r18
    22c6:	86 5a       	subi	r24, 0xA6	; 166
    22c8:	9f 4f       	sbci	r25, 0xFF	; 255
    22ca:	99 8b       	std	Y+17, r25	; 0x11
    22cc:	88 8b       	std	Y+16, r24	; 0x10
    22ce:	88 56       	subi	r24, 0x68	; 104
    22d0:	91 40       	sbci	r25, 0x01	; 1
    22d2:	4c f0       	brlt	.+18     	;  0x22e6
    22d4:	2e 50       	subi	r18, 0x0E	; 14
    22d6:	31 40       	sbci	r19, 0x01	; 1
    22d8:	39 8b       	std	Y+17, r19	; 0x11
    22da:	28 8b       	std	Y+16, r18	; 0x10
    22dc:	04 c0       	rjmp	.+8      	;  0x22e6
    22de:	c8 01       	movw	r24, r16
    22e0:	0e 94 ac 05 	call	0xb58	;  0xb58
    22e4:	88 83       	st	Y, r24
    22e6:	88 81       	ld	r24, Y
    22e8:	81 30       	cpi	r24, 0x01	; 1
    22ea:	c9 f7       	brne	.-14     	;  0x22de
    22ec:	89 e2       	ldi	r24, 0x29	; 41
    22ee:	97 e0       	ldi	r25, 0x07	; 7
    22f0:	6b e8       	ldi	r22, 0x8B	; 139
    22f2:	71 e0       	ldi	r23, 0x01	; 1
    22f4:	0e 94 7a 2b 	call	0x56f4	;  0x56f4
    22f8:	81 e0       	ldi	r24, 0x01	; 1
    22fa:	90 e0       	ldi	r25, 0x00	; 0
    22fc:	9d 83       	std	Y+5, r25	; 0x05
    22fe:	8c 83       	std	Y+4, r24	; 0x04
    2300:	df 91       	pop	r29
    2302:	cf 91       	pop	r28
    2304:	1f 91       	pop	r17
    2306:	0f 91       	pop	r16
    2308:	08 95       	ret
    230a:	0f 93       	push	r16
    230c:	1f 93       	push	r17
    230e:	8c 01       	movw	r16, r24
    2310:	68 e8       	ldi	r22, 0x88	; 136
    2312:	73 e1       	ldi	r23, 0x13	; 19
    2314:	80 e0       	ldi	r24, 0x00	; 0
    2316:	90 e0       	ldi	r25, 0x00	; 0
    2318:	0e 94 37 2d 	call	0x5a6e	;  0x5a6e
    231c:	c8 01       	movw	r24, r16
    231e:	46 96       	adiw	r24, 0x16	; 22
    2320:	0e 94 47 0a 	call	0x148e	;  0x148e
    2324:	f8 01       	movw	r30, r16
    2326:	15 82       	std	Z+5, r1	; 0x05
    2328:	14 82       	std	Z+4, r1	; 0x04
    232a:	13 86       	std	Z+11, r1	; 0x0b
    232c:	12 86       	std	Z+10, r1	; 0x0a
    232e:	15 8a       	std	Z+21, r1	; 0x15
    2330:	14 8a       	std	Z+20, r1	; 0x14
    2332:	1f 91       	pop	r17
    2334:	0f 91       	pop	r16
    2336:	08 95       	ret
    2338:	08 95       	ret
    233a:	ef 92       	push	r14
    233c:	ff 92       	push	r15
    233e:	0f 93       	push	r16
    2340:	1f 93       	push	r17
    2342:	df 93       	push	r29
    2344:	cf 93       	push	r28
    2346:	cd b7       	in	r28, 0x3d	; 61
    2348:	de b7       	in	r29, 0x3e	; 62
    234a:	60 97       	sbiw	r28, 0x10	; 16
    234c:	0f b6       	in	r0, 0x3f	; 63
    234e:	f8 94       	cli
    2350:	de bf       	out	0x3e, r29	; 62
    2352:	0f be       	out	0x3f, r0	; 63
    2354:	cd bf       	out	0x3d, r28	; 61
    2356:	8c 01       	movw	r16, r24
    2358:	fb 01       	movw	r30, r22
    235a:	24 2f       	mov	r18, r20
    235c:	01 58       	subi	r16, 0x81	; 129
    235e:	1f 4f       	sbci	r17, 0xFF	; 255
    2360:	7e 01       	movw	r14, r28
    2362:	08 94       	sec
    2364:	e1 1c       	adc	r14, r1
    2366:	f1 1c       	adc	r15, r1
    2368:	c7 01       	movw	r24, r14
    236a:	b8 01       	movw	r22, r16
    236c:	af 01       	movw	r20, r30
    236e:	0e 94 25 27 	call	0x4e4a	;  0x4e4a
    2372:	c8 01       	movw	r24, r16
    2374:	8e 57       	subi	r24, 0x7E	; 126
    2376:	90 40       	sbci	r25, 0x00	; 0
    2378:	b7 01       	movw	r22, r14
    237a:	0e 94 be 27 	call	0x4f7c	;  0x4f7c
    237e:	81 e0       	ldi	r24, 0x01	; 1
    2380:	60 96       	adiw	r28, 0x10	; 16
    2382:	0f b6       	in	r0, 0x3f	; 63
    2384:	f8 94       	cli
    2386:	de bf       	out	0x3e, r29	; 62
    2388:	0f be       	out	0x3f, r0	; 63
    238a:	cd bf       	out	0x3d, r28	; 61
    238c:	cf 91       	pop	r28
    238e:	df 91       	pop	r29
    2390:	1f 91       	pop	r17
    2392:	0f 91       	pop	r16
    2394:	ff 90       	pop	r15
    2396:	ef 90       	pop	r14
    2398:	08 95       	ret
    239a:	ef 92       	push	r14
    239c:	ff 92       	push	r15
    239e:	0f 93       	push	r16
    23a0:	1f 93       	push	r17
    23a2:	df 93       	push	r29
    23a4:	cf 93       	push	r28
    23a6:	cd b7       	in	r28, 0x3d	; 61
    23a8:	de b7       	in	r29, 0x3e	; 62
    23aa:	60 97       	sbiw	r28, 0x10	; 16
    23ac:	0f b6       	in	r0, 0x3f	; 63
    23ae:	f8 94       	cli
    23b0:	de bf       	out	0x3e, r29	; 62
    23b2:	0f be       	out	0x3f, r0	; 63
    23b4:	cd bf       	out	0x3d, r28	; 61
    23b6:	8c 01       	movw	r16, r24
    23b8:	fb 01       	movw	r30, r22
    23ba:	24 2f       	mov	r18, r20
    23bc:	bc 01       	movw	r22, r24
    23be:	61 58       	subi	r22, 0x81	; 129
    23c0:	7f 4f       	sbci	r23, 0xFF	; 255
    23c2:	7e 01       	movw	r14, r28
    23c4:	08 94       	sec
    23c6:	e1 1c       	adc	r14, r1
    23c8:	f1 1c       	adc	r15, r1
    23ca:	c7 01       	movw	r24, r14
    23cc:	af 01       	movw	r20, r30
    23ce:	0e 94 25 27 	call	0x4e4a	;  0x4e4a
    23d2:	c8 01       	movw	r24, r16
    23d4:	01 96       	adiw	r24, 0x01	; 1
    23d6:	b7 01       	movw	r22, r14
    23d8:	0e 94 be 27 	call	0x4f7c	;  0x4f7c
    23dc:	81 e0       	ldi	r24, 0x01	; 1
    23de:	f8 01       	movw	r30, r16
    23e0:	80 83       	st	Z, r24
    23e2:	60 96       	adiw	r28, 0x10	; 16
    23e4:	0f b6       	in	r0, 0x3f	; 63
    23e6:	f8 94       	cli
    23e8:	de bf       	out	0x3e, r29	; 62
    23ea:	0f be       	out	0x3f, r0	; 63
    23ec:	cd bf       	out	0x3d, r28	; 61
    23ee:	cf 91       	pop	r28
    23f0:	df 91       	pop	r29
    23f2:	1f 91       	pop	r17
    23f4:	0f 91       	pop	r16
    23f6:	ff 90       	pop	r15
    23f8:	ef 90       	pop	r14
    23fa:	08 95       	ret
    23fc:	cf 92       	push	r12
    23fe:	df 92       	push	r13
    2400:	ef 92       	push	r14
    2402:	ff 92       	push	r15
    2404:	0f 93       	push	r16
    2406:	1f 93       	push	r17
    2408:	df 93       	push	r29
    240a:	cf 93       	push	r28
    240c:	cd b7       	in	r28, 0x3d	; 61
    240e:	de b7       	in	r29, 0x3e	; 62
    2410:	c9 5b       	subi	r28, 0xB9	; 185
    2412:	d0 40       	sbci	r29, 0x00	; 0
    2414:	0f b6       	in	r0, 0x3f	; 63
    2416:	f8 94       	cli
    2418:	de bf       	out	0x3e, r29	; 62
    241a:	0f be       	out	0x3f, r0	; 63
    241c:	cd bf       	out	0x3d, r28	; 61
    241e:	6c 01       	movw	r12, r24
    2420:	8e 01       	movw	r16, r28
    2422:	04 5c       	subi	r16, 0xC4	; 196
    2424:	1f 4f       	sbci	r17, 0xFF	; 255
    2426:	c8 01       	movw	r24, r16
    2428:	0e 94 f6 26 	call	0x4dec	;  0x4dec
    242c:	d6 01       	movw	r26, r12
    242e:	11 96       	adiw	r26, 0x01	; 1
    2430:	f8 01       	movw	r30, r16
    2432:	8e e7       	ldi	r24, 0x7E	; 126
    2434:	01 90       	ld	r0, Z+
    2436:	0d 92       	st	X+, r0
    2438:	81 50       	subi	r24, 0x01	; 1
    243a:	e1 f7       	brne	.-8      	;  0x2434
    243c:	7e 01       	movw	r14, r28
    243e:	08 94       	sec
    2440:	e1 1c       	adc	r14, r1
    2442:	f1 1c       	adc	r15, r1
    2444:	c7 01       	movw	r24, r14
    2446:	40 e0       	ldi	r20, 0x00	; 0
    2448:	52 ea       	ldi	r21, 0xA2	; 162
    244a:	63 e1       	ldi	r22, 0x13	; 19
    244c:	70 e0       	ldi	r23, 0x00	; 0
    244e:	0c ec       	ldi	r16, 0xCC	; 204
    2450:	12 e1       	ldi	r17, 0x12	; 18
    2452:	20 e7       	ldi	r18, 0x70	; 112
    2454:	30 e4       	ldi	r19, 0x40	; 64
    2456:	0e 94 17 27 	call	0x4e2e	;  0x4e2e
    245a:	d6 01       	movw	r26, r12
    245c:	a1 58       	subi	r26, 0x81	; 129
    245e:	bf 4f       	sbci	r27, 0xFF	; 255
    2460:	f7 01       	movw	r30, r14
    2462:	88 e0       	ldi	r24, 0x08	; 8
    2464:	01 90       	ld	r0, Z+
    2466:	0d 92       	st	X+, r0
    2468:	81 50       	subi	r24, 0x01	; 1
    246a:	e1 f7       	brne	.-8      	;  0x2464
    246c:	8e 01       	movw	r16, r28
    246e:	0e 5e       	subi	r16, 0xEE	; 238
    2470:	1f 4f       	sbci	r17, 0xFF	; 255
    2472:	c8 01       	movw	r24, r16
    2474:	0e 94 d6 26 	call	0x4dac	;  0x4dac
    2478:	d6 01       	movw	r26, r12
    247a:	a9 57       	subi	r26, 0x79	; 121
    247c:	bf 4f       	sbci	r27, 0xFF	; 255
    247e:	f8 01       	movw	r30, r16
    2480:	8a e0       	ldi	r24, 0x0A	; 10
    2482:	01 90       	ld	r0, Z+
    2484:	0d 92       	st	X+, r0
    2486:	81 50       	subi	r24, 0x01	; 1
    2488:	e1 f7       	brne	.-8      	;  0x2482
    248a:	c6 01       	movw	r24, r12
    248c:	01 96       	adiw	r24, 0x01	; 1
    248e:	40 e8       	ldi	r20, 0x80	; 128
    2490:	55 e2       	ldi	r21, 0x25	; 37
    2492:	60 e0       	ldi	r22, 0x00	; 0
    2494:	70 e0       	ldi	r23, 0x00	; 0
    2496:	0e 94 43 28 	call	0x5086	;  0x5086
    249a:	8e 01       	movw	r16, r28
    249c:	07 5f       	subi	r16, 0xF7	; 247
    249e:	1f 4f       	sbci	r17, 0xFF	; 255
    24a0:	c8 01       	movw	r24, r16
    24a2:	0e 94 af 26 	call	0x4d5e	;  0x4d5e
    24a6:	d6 01       	movw	r26, r12
    24a8:	af 56       	subi	r26, 0x6F	; 111
    24aa:	bf 4f       	sbci	r27, 0xFF	; 255
    24ac:	f8 01       	movw	r30, r16
    24ae:	89 e0       	ldi	r24, 0x09	; 9
    24b0:	01 90       	ld	r0, Z+
    24b2:	0d 92       	st	X+, r0
    24b4:	81 50       	subi	r24, 0x01	; 1
    24b6:	e1 f7       	brne	.-8      	;  0x24b0
    24b8:	ce 01       	movw	r24, r28
    24ba:	4c 96       	adiw	r24, 0x1c	; 28
    24bc:	0e 94 d0 26 	call	0x4da0	;  0x4da0
    24c0:	d6 01       	movw	r26, r12
    24c2:	a4 56       	subi	r26, 0x64	; 100
    24c4:	bf 4f       	sbci	r27, 0xFF	; 255
    24c6:	fe 01       	movw	r30, r28
    24c8:	7e 96       	adiw	r30, 0x1e	; 30
    24ca:	89 e0       	ldi	r24, 0x09	; 9
    24cc:	01 90       	ld	r0, Z+
    24ce:	0d 92       	st	X+, r0
    24d0:	81 50       	subi	r24, 0x01	; 1
    24d2:	e1 f7       	brne	.-8      	;  0x24cc
    24d4:	85 ea       	ldi	r24, 0xA5	; 165
    24d6:	90 e0       	ldi	r25, 0x00	; 0
    24d8:	c8 0e       	add	r12, r24
    24da:	d9 1e       	adc	r13, r25
    24dc:	8f a1       	ldd	r24, Y+39	; 0x27
    24de:	98 a5       	ldd	r25, Y+40	; 0x28
    24e0:	f6 01       	movw	r30, r12
    24e2:	91 83       	std	Z+1, r25	; 0x01
    24e4:	80 83       	st	Z, r24
    24e6:	8b e5       	ldi	r24, 0x5B	; 91
    24e8:	9f ef       	ldi	r25, 0xFF	; 255
    24ea:	c8 0e       	add	r12, r24
    24ec:	d9 1e       	adc	r13, r25
    24ee:	ce 01       	movw	r24, r28
    24f0:	89 96       	adiw	r24, 0x29	; 41
    24f2:	0e 94 b0 26 	call	0x4d60	;  0x4d60
    24f6:	d6 01       	movw	r26, r12
    24f8:	a7 55       	subi	r26, 0x57	; 87
    24fa:	bf 4f       	sbci	r27, 0xFF	; 255
    24fc:	fe 01       	movw	r30, r28
    24fe:	bb 96       	adiw	r30, 0x2b	; 43
    2500:	89 e0       	ldi	r24, 0x09	; 9
    2502:	01 90       	ld	r0, Z+
    2504:	0d 92       	st	X+, r0
    2506:	81 50       	subi	r24, 0x01	; 1
    2508:	e1 f7       	brne	.-8      	;  0x2502
    250a:	d6 01       	movw	r26, r12
    250c:	ae 54       	subi	r26, 0x4E	; 78
    250e:	bf 4f       	sbci	r27, 0xFF	; 255
    2510:	fe 01       	movw	r30, r28
    2512:	f4 96       	adiw	r30, 0x34	; 52
    2514:	88 e0       	ldi	r24, 0x08	; 8
    2516:	01 90       	ld	r0, Z+
    2518:	0d 92       	st	X+, r0
    251a:	81 50       	subi	r24, 0x01	; 1
    251c:	e1 f7       	brne	.-8      	;  0x2516
    251e:	c7 54       	subi	r28, 0x47	; 71
    2520:	df 4f       	sbci	r29, 0xFF	; 255
    2522:	0f b6       	in	r0, 0x3f	; 63
    2524:	f8 94       	cli
    2526:	de bf       	out	0x3e, r29	; 62
    2528:	0f be       	out	0x3f, r0	; 63
    252a:	cd bf       	out	0x3d, r28	; 61
    252c:	cf 91       	pop	r28
    252e:	df 91       	pop	r29
    2530:	1f 91       	pop	r17
    2532:	0f 91       	pop	r16
    2534:	ff 90       	pop	r15
    2536:	ef 90       	pop	r14
    2538:	df 90       	pop	r13
    253a:	cf 90       	pop	r12
    253c:	08 95       	ret
    253e:	0f 93       	push	r16
    2540:	1f 93       	push	r17
    2542:	8c 01       	movw	r16, r24
    2544:	01 96       	adiw	r24, 0x01	; 1
    2546:	0e 94 f6 26 	call	0x4dec	;  0x4dec
    254a:	c8 01       	movw	r24, r16
    254c:	81 58       	subi	r24, 0x81	; 129
    254e:	9f 4f       	sbci	r25, 0xFF	; 255
    2550:	0e 94 16 27 	call	0x4e2c	;  0x4e2c
    2554:	c8 01       	movw	r24, r16
    2556:	89 57       	subi	r24, 0x79	; 121
    2558:	9f 4f       	sbci	r25, 0xFF	; 255
    255a:	0e 94 d6 26 	call	0x4dac	;  0x4dac
    255e:	c8 01       	movw	r24, r16
    2560:	8f 56       	subi	r24, 0x6F	; 111
    2562:	9f 4f       	sbci	r25, 0xFF	; 255
    2564:	0e 94 af 26 	call	0x4d5e	;  0x4d5e
    2568:	c8 01       	movw	r24, r16
    256a:	86 56       	subi	r24, 0x66	; 102
    256c:	9f 4f       	sbci	r25, 0xFF	; 255
    256e:	0e 94 d0 26 	call	0x4da0	;  0x4da0
    2572:	c8 01       	movw	r24, r16
    2574:	89 55       	subi	r24, 0x59	; 89
    2576:	9f 4f       	sbci	r25, 0xFF	; 255
    2578:	0e 94 b0 26 	call	0x4d60	;  0x4d60
    257c:	1f 91       	pop	r17
    257e:	0f 91       	pop	r16
    2580:	08 95       	ret
    2582:	81 30       	cpi	r24, 0x01	; 1
    2584:	91 05       	cpc	r25, r1
    2586:	41 f4       	brne	.+16     	;  0x2598
    2588:	6f 5f       	subi	r22, 0xFF	; 255
    258a:	7f 4f       	sbci	r23, 0xFF	; 255
    258c:	71 f4       	brne	.+28     	;  0x25aa
    258e:	8e ee       	ldi	r24, 0xEE	; 238
    2590:	91 e0       	ldi	r25, 0x01	; 1
    2592:	0e 94 9c 0a 	call	0x1538	;  0x1538
    2596:	08 95       	ret
    2598:	89 2b       	or	r24, r25
    259a:	39 f4       	brne	.+14     	;  0x25aa
    259c:	6f 5f       	subi	r22, 0xFF	; 255
    259e:	7f 4f       	sbci	r23, 0xFF	; 255
    25a0:	21 f4       	brne	.+8      	;  0x25aa
    25a2:	8e ee       	ldi	r24, 0xEE	; 238
    25a4:	91 e0       	ldi	r25, 0x01	; 1
    25a6:	0e 94 5e 0a 	call	0x14bc	;  0x14bc
    25aa:	08 95       	ret
    25ac:	80 e0       	ldi	r24, 0x00	; 0
    25ae:	90 e0       	ldi	r25, 0x00	; 0
    25b0:	6f ef       	ldi	r22, 0xFF	; 255
    25b2:	7f ef       	ldi	r23, 0xFF	; 255
    25b4:	0e 94 c1 12 	call	0x2582	;  0x2582
    25b8:	08 95       	ret
    25ba:	81 e0       	ldi	r24, 0x01	; 1
    25bc:	90 e0       	ldi	r25, 0x00	; 0
    25be:	6f ef       	ldi	r22, 0xFF	; 255
    25c0:	7f ef       	ldi	r23, 0xFF	; 255
    25c2:	0e 94 c1 12 	call	0x2582	;  0x2582
    25c6:	08 95       	ret
    25c8:	88 ed       	ldi	r24, 0xD8	; 216
    25ca:	91 e0       	ldi	r25, 0x01	; 1
    25cc:	0e 94 31 0e 	call	0x1c62	;  0x1c62
    25d0:	89 2b       	or	r24, r25
    25d2:	29 f4       	brne	.+10     	;  0x25de
    25d4:	88 ed       	ldi	r24, 0xD8	; 216
    25d6:	91 e0       	ldi	r25, 0x01	; 1
    25d8:	0e 94 33 11 	call	0x2266	;  0x2266
    25dc:	08 95       	ret
    25de:	88 ed       	ldi	r24, 0xD8	; 216
    25e0:	91 e0       	ldi	r25, 0x01	; 1
    25e2:	0e 94 31 0e 	call	0x1c62	;  0x1c62
    25e6:	01 97       	sbiw	r24, 0x01	; 1
    25e8:	29 f4       	brne	.+10     	;  0x25f4
    25ea:	88 ed       	ldi	r24, 0xD8	; 216
    25ec:	91 e0       	ldi	r25, 0x01	; 1
    25ee:	0e 94 ea 10 	call	0x21d4	;  0x21d4
    25f2:	08 95       	ret
    25f4:	88 ed       	ldi	r24, 0xD8	; 216
    25f6:	91 e0       	ldi	r25, 0x01	; 1
    25f8:	0e 94 31 0e 	call	0x1c62	;  0x1c62
    25fc:	02 97       	sbiw	r24, 0x02	; 2
    25fe:	29 f4       	brne	.+10     	;  0x260a
    2600:	88 ed       	ldi	r24, 0xD8	; 216
    2602:	91 e0       	ldi	r25, 0x01	; 1
    2604:	0e 94 97 10 	call	0x212e	;  0x212e
    2608:	08 95       	ret
    260a:	88 ed       	ldi	r24, 0xD8	; 216
    260c:	91 e0       	ldi	r25, 0x01	; 1
    260e:	0e 94 31 0e 	call	0x1c62	;  0x1c62
    2612:	04 97       	sbiw	r24, 0x04	; 4
    2614:	49 f4       	brne	.+18     	;  0x2628
    2616:	88 ed       	ldi	r24, 0xD8	; 216
    2618:	91 e0       	ldi	r25, 0x01	; 1
    261a:	60 ed       	ldi	r22, 0xD0	; 208
    261c:	77 e0       	ldi	r23, 0x07	; 7
    261e:	48 ee       	ldi	r20, 0xE8	; 232
    2620:	53 e0       	ldi	r21, 0x03	; 3
    2622:	0e 94 b8 0f 	call	0x1f70	;  0x1f70
    2626:	08 95       	ret
    2628:	88 ed       	ldi	r24, 0xD8	; 216
    262a:	91 e0       	ldi	r25, 0x01	; 1
    262c:	0e 94 31 0e 	call	0x1c62	;  0x1c62
    2630:	05 97       	sbiw	r24, 0x05	; 5
    2632:	29 f4       	brne	.+10     	;  0x263e
    2634:	88 ed       	ldi	r24, 0xD8	; 216
    2636:	91 e0       	ldi	r25, 0x01	; 1
    2638:	0e 94 ac 0f 	call	0x1f58	;  0x1f58
    263c:	08 95       	ret
    263e:	88 ed       	ldi	r24, 0xD8	; 216
    2640:	91 e0       	ldi	r25, 0x01	; 1
    2642:	0e 94 31 0e 	call	0x1c62	;  0x1c62
    2646:	03 97       	sbiw	r24, 0x03	; 3
    2648:	51 f4       	brne	.+20     	;  0x265e
    264a:	88 ed       	ldi	r24, 0xD8	; 216
    264c:	91 e0       	ldi	r25, 0x01	; 1
    264e:	60 ed       	ldi	r22, 0xD0	; 208
    2650:	77 e0       	ldi	r23, 0x07	; 7
    2652:	48 ee       	ldi	r20, 0xE8	; 232
    2654:	53 e0       	ldi	r21, 0x03	; 3
    2656:	22 e3       	ldi	r18, 0x32	; 50
    2658:	30 e0       	ldi	r19, 0x00	; 0
    265a:	0e 94 82 0e 	call	0x1d04	;  0x1d04
    265e:	08 95       	ret
    2660:	88 ed       	ldi	r24, 0xD8	; 216
    2662:	91 e0       	ldi	r25, 0x01	; 1
    2664:	0e 94 85 11 	call	0x230a	;  0x230a
    2668:	08 95       	ret
    266a:	ff 92       	push	r15
    266c:	0f 93       	push	r16
    266e:	1f 93       	push	r17
    2670:	cf 93       	push	r28
    2672:	df 93       	push	r29
    2674:	8b 01       	movw	r16, r22
    2676:	0e 94 03 2d 	call	0x5a06	;  0x5a06
    267a:	eb 01       	movw	r28, r22
    267c:	ff 24       	eor	r15, r15
    267e:	fa 94       	dec	r15
    2680:	09 c0       	rjmp	.+18     	;  0x2694
    2682:	0e 94 03 2d 	call	0x5a06	;  0x5a06
    2686:	6c 1b       	sub	r22, r28
    2688:	7d 0b       	sbc	r23, r29
    268a:	60 17       	cp	r22, r16
    268c:	71 07       	cpc	r23, r17
    268e:	10 f0       	brcs	.+4      	;  0x2694
    2690:	80 e0       	ldi	r24, 0x00	; 0
    2692:	08 c0       	rjmp	.+16     	;  0x26a4
    2694:	fe bc       	out	0x2e, r15	; 46
    2696:	0d b4       	in	r0, 0x2d	; 45
    2698:	07 fe       	sbrs	r0, 7
    269a:	fd cf       	rjmp	.-6      	;  0x2696
    269c:	8e b5       	in	r24, 0x2e	; 46
    269e:	8f 3f       	cpi	r24, 0xFF	; 255
    26a0:	81 f7       	brne	.-32     	;  0x2682
    26a2:	81 e0       	ldi	r24, 0x01	; 1
    26a4:	df 91       	pop	r29
    26a6:	cf 91       	pop	r28
    26a8:	1f 91       	pop	r17
    26aa:	0f 91       	pop	r16
    26ac:	ff 90       	pop	r15
    26ae:	08 95       	ret
    26b0:	fc 01       	movw	r30, r24
    26b2:	42 81       	ldd	r20, Z+2	; 0x02
    26b4:	24 2f       	mov	r18, r20
    26b6:	30 e0       	ldi	r19, 0x00	; 0
    26b8:	c9 01       	movw	r24, r18
    26ba:	95 95       	asr	r25
    26bc:	87 95       	ror	r24
    26be:	80 65       	ori	r24, 0x50	; 80
    26c0:	8c bd       	out	0x2c, r24	; 44
    26c2:	40 ff       	sbrs	r20, 0
    26c4:	02 c0       	rjmp	.+4      	;  0x26ca
    26c6:	80 e0       	ldi	r24, 0x00	; 0
    26c8:	04 c0       	rjmp	.+8      	;  0x26d2
    26ca:	80 e0       	ldi	r24, 0x00	; 0
    26cc:	46 30       	cpi	r20, 0x06	; 6
    26ce:	09 f0       	breq	.+2      	;  0x26d2
    26d0:	81 e0       	ldi	r24, 0x01	; 1
    26d2:	8d bd       	out	0x2d, r24	; 45
    26d4:	80 81       	ld	r24, Z
    26d6:	60 e0       	ldi	r22, 0x00	; 0
    26d8:	0e 94 70 2e 	call	0x5ce0	;  0x5ce0
    26dc:	08 95       	ret
    26de:	df 92       	push	r13
    26e0:	ef 92       	push	r14
    26e2:	ff 92       	push	r15
    26e4:	0f 93       	push	r16
    26e6:	1f 93       	push	r17
    26e8:	cf 93       	push	r28
    26ea:	df 93       	push	r29
    26ec:	ec 01       	movw	r28, r24
    26ee:	d6 2e       	mov	r13, r22
    26f0:	79 01       	movw	r14, r18
    26f2:	8a 01       	movw	r16, r20
    26f4:	0e 94 58 13 	call	0x26b0	;  0x26b0
    26f8:	ce 01       	movw	r24, r28
    26fa:	6c e2       	ldi	r22, 0x2C	; 44
    26fc:	71 e0       	ldi	r23, 0x01	; 1
    26fe:	0e 94 35 13 	call	0x266a	;  0x266a
    2702:	8d 2d       	mov	r24, r13
    2704:	80 64       	ori	r24, 0x40	; 64
    2706:	8e bd       	out	0x2e, r24	; 46
    2708:	0d b4       	in	r0, 0x2d	; 45
    270a:	07 fe       	sbrs	r0, 7
    270c:	fd cf       	rjmp	.-6      	;  0x2708
    270e:	28 e1       	ldi	r18, 0x18	; 24
    2710:	30 e0       	ldi	r19, 0x00	; 0
    2712:	d8 01       	movw	r26, r16
    2714:	c7 01       	movw	r24, r14
    2716:	02 2e       	mov	r0, r18
    2718:	04 c0       	rjmp	.+8      	;  0x2722
    271a:	b6 95       	lsr	r27
    271c:	a7 95       	ror	r26
    271e:	97 95       	ror	r25
    2720:	87 95       	ror	r24
    2722:	0a 94       	dec	r0
    2724:	d2 f7       	brpl	.-12     	;  0x271a
    2726:	8e bd       	out	0x2e, r24	; 46
    2728:	0d b4       	in	r0, 0x2d	; 45
    272a:	07 fe       	sbrs	r0, 7
    272c:	fd cf       	rjmp	.-6      	;  0x2728
    272e:	28 50       	subi	r18, 0x08	; 8
    2730:	30 40       	sbci	r19, 0x00	; 0
    2732:	8f ef       	ldi	r24, 0xFF	; 255
    2734:	28 3f       	cpi	r18, 0xF8	; 248
    2736:	38 07       	cpc	r19, r24
    2738:	61 f7       	brne	.-40     	;  0x2712
    273a:	dd 20       	and	r13, r13
    273c:	11 f4       	brne	.+4      	;  0x2742
    273e:	85 e9       	ldi	r24, 0x95	; 149
    2740:	06 c0       	rjmp	.+12     	;  0x274e
    2742:	88 e0       	ldi	r24, 0x08	; 8
    2744:	d8 16       	cp	r13, r24
    2746:	11 f4       	brne	.+4      	;  0x274c
    2748:	87 e8       	ldi	r24, 0x87	; 135
    274a:	01 c0       	rjmp	.+2      	;  0x274e
    274c:	8f ef       	ldi	r24, 0xFF	; 255
    274e:	8e bd       	out	0x2e, r24	; 46
    2750:	0d b4       	in	r0, 0x2d	; 45
    2752:	07 fe       	sbrs	r0, 7
    2754:	fd cf       	rjmp	.-6      	;  0x2750
    2756:	8c e0       	ldi	r24, 0x0C	; 12
    2758:	d8 16       	cp	r13, r24
    275a:	31 f4       	brne	.+12     	;  0x2768
    275c:	8f ef       	ldi	r24, 0xFF	; 255
    275e:	8e bd       	out	0x2e, r24	; 46
    2760:	0d b4       	in	r0, 0x2d	; 45
    2762:	07 fe       	sbrs	r0, 7
    2764:	fd cf       	rjmp	.-6      	;  0x2760
    2766:	8e b5       	in	r24, 0x2e	; 46
    2768:	9f ef       	ldi	r25, 0xFF	; 255
    276a:	2f ef       	ldi	r18, 0xFF	; 255
    276c:	2e bd       	out	0x2e, r18	; 46
    276e:	0d b4       	in	r0, 0x2d	; 45
    2770:	07 fe       	sbrs	r0, 7
    2772:	fd cf       	rjmp	.-6      	;  0x276e
    2774:	8e b5       	in	r24, 0x2e	; 46
    2776:	87 ff       	sbrs	r24, 7
    2778:	04 c0       	rjmp	.+8      	;  0x2782
    277a:	99 23       	and	r25, r25
    277c:	11 f0       	breq	.+4      	;  0x2782
    277e:	91 50       	subi	r25, 0x01	; 1
    2780:	f5 cf       	rjmp	.-22     	;  0x276c
    2782:	8b 83       	std	Y+3, r24	; 0x03
    2784:	df 91       	pop	r29
    2786:	cf 91       	pop	r28
    2788:	1f 91       	pop	r17
    278a:	0f 91       	pop	r16
    278c:	ff 90       	pop	r15
    278e:	ef 90       	pop	r14
    2790:	df 90       	pop	r13
    2792:	08 95       	ret
    2794:	fc 01       	movw	r30, r24
    2796:	80 81       	ld	r24, Z
    2798:	61 e0       	ldi	r22, 0x01	; 1
    279a:	0e 94 70 2e 	call	0x5ce0	;  0x5ce0
    279e:	8f ef       	ldi	r24, 0xFF	; 255
    27a0:	8e bd       	out	0x2e, r24	; 46
    27a2:	0d b4       	in	r0, 0x2d	; 45
    27a4:	07 fe       	sbrs	r0, 7
    27a6:	fd cf       	rjmp	.-6      	;  0x27a2
    27a8:	08 95       	ret
    27aa:	dc 01       	movw	r26, r24
    27ac:	6e bd       	out	0x2e, r22	; 46
    27ae:	fa 01       	movw	r30, r20
    27b0:	20 e0       	ldi	r18, 0x00	; 0
    27b2:	30 e0       	ldi	r19, 0x00	; 0
    27b4:	0d b4       	in	r0, 0x2d	; 45
    27b6:	07 fe       	sbrs	r0, 7
    27b8:	fd cf       	rjmp	.-6      	;  0x27b4
    27ba:	80 81       	ld	r24, Z
    27bc:	8e bd       	out	0x2e, r24	; 46
    27be:	0d b4       	in	r0, 0x2d	; 45
    27c0:	07 fe       	sbrs	r0, 7
    27c2:	fd cf       	rjmp	.-6      	;  0x27be
    27c4:	81 81       	ldd	r24, Z+1	; 0x01
    27c6:	8e bd       	out	0x2e, r24	; 46
    27c8:	2e 5f       	subi	r18, 0xFE	; 254
    27ca:	3f 4f       	sbci	r19, 0xFF	; 255
    27cc:	32 96       	adiw	r30, 0x02	; 2
    27ce:	82 e0       	ldi	r24, 0x02	; 2
    27d0:	20 30       	cpi	r18, 0x00	; 0
    27d2:	38 07       	cpc	r19, r24
    27d4:	79 f7       	brne	.-34     	;  0x27b4
    27d6:	0d b4       	in	r0, 0x2d	; 45
    27d8:	07 fe       	sbrs	r0, 7
    27da:	fd cf       	rjmp	.-6      	;  0x27d6
    27dc:	8f ef       	ldi	r24, 0xFF	; 255
    27de:	8e bd       	out	0x2e, r24	; 46
    27e0:	0d b4       	in	r0, 0x2d	; 45
    27e2:	07 fe       	sbrs	r0, 7
    27e4:	fd cf       	rjmp	.-6      	;  0x27e0
    27e6:	8f ef       	ldi	r24, 0xFF	; 255
    27e8:	8e bd       	out	0x2e, r24	; 46
    27ea:	0d b4       	in	r0, 0x2d	; 45
    27ec:	07 fe       	sbrs	r0, 7
    27ee:	fd cf       	rjmp	.-6      	;  0x27ea
    27f0:	8f ef       	ldi	r24, 0xFF	; 255
    27f2:	8e bd       	out	0x2e, r24	; 46
    27f4:	0d b4       	in	r0, 0x2d	; 45
    27f6:	07 fe       	sbrs	r0, 7
    27f8:	fd cf       	rjmp	.-6      	;  0x27f4
    27fa:	8e b5       	in	r24, 0x2e	; 46
    27fc:	13 96       	adiw	r26, 0x03	; 3
    27fe:	8c 93       	st	X, r24
    2800:	13 97       	sbiw	r26, 0x03	; 3
    2802:	8f 71       	andi	r24, 0x1F	; 31
    2804:	85 30       	cpi	r24, 0x05	; 5
    2806:	11 f4       	brne	.+4      	;  0x280c
    2808:	81 e0       	ldi	r24, 0x01	; 1
    280a:	08 95       	ret
    280c:	83 e1       	ldi	r24, 0x13	; 19
    280e:	11 96       	adiw	r26, 0x01	; 1
    2810:	8c 93       	st	X, r24
    2812:	11 97       	sbiw	r26, 0x01	; 1
    2814:	cd 01       	movw	r24, r26
    2816:	0e 94 ca 13 	call	0x2794	;  0x2794
    281a:	80 e0       	ldi	r24, 0x00	; 0
    281c:	08 95       	ret
    281e:	cf 92       	push	r12
    2820:	df 92       	push	r13
    2822:	ef 92       	push	r14
    2824:	ff 92       	push	r15
    2826:	0f 93       	push	r16
    2828:	1f 93       	push	r17
    282a:	cf 93       	push	r28
    282c:	df 93       	push	r29
    282e:	ec 01       	movw	r28, r24
    2830:	7a 01       	movw	r14, r20
    2832:	8b 01       	movw	r16, r22
    2834:	69 01       	movw	r12, r18
    2836:	8c 81       	ldd	r24, Y+4	; 0x04
    2838:	83 30       	cpi	r24, 0x03	; 3
    283a:	39 f0       	breq	.+14     	;  0x284a
    283c:	59 e0       	ldi	r21, 0x09	; 9
    283e:	ee 0c       	add	r14, r14
    2840:	ff 1c       	adc	r15, r15
    2842:	00 1f       	adc	r16, r16
    2844:	11 1f       	adc	r17, r17
    2846:	5a 95       	dec	r21
    2848:	d1 f7       	brne	.-12     	;  0x283e
    284a:	ce 01       	movw	r24, r28
    284c:	68 e1       	ldi	r22, 0x18	; 24
    284e:	a8 01       	movw	r20, r16
    2850:	97 01       	movw	r18, r14
    2852:	0e 94 6f 13 	call	0x26de	;  0x26de
    2856:	88 23       	and	r24, r24
    2858:	11 f0       	breq	.+4      	;  0x285e
    285a:	86 e0       	ldi	r24, 0x06	; 6
    285c:	23 c0       	rjmp	.+70     	;  0x28a4
    285e:	ce 01       	movw	r24, r28
    2860:	6e ef       	ldi	r22, 0xFE	; 254
    2862:	a6 01       	movw	r20, r12
    2864:	0e 94 d5 13 	call	0x27aa	;  0x27aa
    2868:	88 23       	and	r24, r24
    286a:	e9 f0       	breq	.+58     	;  0x28a6
    286c:	ce 01       	movw	r24, r28
    286e:	68 e5       	ldi	r22, 0x58	; 88
    2870:	72 e0       	ldi	r23, 0x02	; 2
    2872:	0e 94 35 13 	call	0x266a	;  0x266a
    2876:	88 23       	and	r24, r24
    2878:	11 f4       	brne	.+4      	;  0x287e
    287a:	87 e1       	ldi	r24, 0x17	; 23
    287c:	13 c0       	rjmp	.+38     	;  0x28a4
    287e:	ce 01       	movw	r24, r28
    2880:	6d e0       	ldi	r22, 0x0D	; 13
    2882:	20 e0       	ldi	r18, 0x00	; 0
    2884:	30 e0       	ldi	r19, 0x00	; 0
    2886:	40 e0       	ldi	r20, 0x00	; 0
    2888:	50 e0       	ldi	r21, 0x00	; 0
    288a:	0e 94 6f 13 	call	0x26de	;  0x26de
    288e:	88 23       	and	r24, r24
    2890:	41 f4       	brne	.+16     	;  0x28a2
    2892:	8f ef       	ldi	r24, 0xFF	; 255
    2894:	8e bd       	out	0x2e, r24	; 46
    2896:	0d b4       	in	r0, 0x2d	; 45
    2898:	07 fe       	sbrs	r0, 7
    289a:	fd cf       	rjmp	.-6      	;  0x2896
    289c:	8e b5       	in	r24, 0x2e	; 46
    289e:	88 23       	and	r24, r24
    28a0:	79 f0       	breq	.+30     	;  0x28c0
    28a2:	86 e1       	ldi	r24, 0x16	; 22
    28a4:	89 83       	std	Y+1, r24	; 0x01
    28a6:	ce 01       	movw	r24, r28
    28a8:	0e 94 ca 13 	call	0x2794	;  0x2794
    28ac:	80 e0       	ldi	r24, 0x00	; 0
    28ae:	df 91       	pop	r29
    28b0:	cf 91       	pop	r28
    28b2:	1f 91       	pop	r17
    28b4:	0f 91       	pop	r16
    28b6:	ff 90       	pop	r15
    28b8:	ef 90       	pop	r14
    28ba:	df 90       	pop	r13
    28bc:	cf 90       	pop	r12
    28be:	08 95       	ret
    28c0:	ce 01       	movw	r24, r28
    28c2:	0e 94 ca 13 	call	0x2794	;  0x2794
    28c6:	81 e0       	ldi	r24, 0x01	; 1
    28c8:	f2 cf       	rjmp	.-28     	;  0x28ae
    28ca:	bf 92       	push	r11
    28cc:	cf 92       	push	r12
    28ce:	df 92       	push	r13
    28d0:	ef 92       	push	r14
    28d2:	ff 92       	push	r15
    28d4:	0f 93       	push	r16
    28d6:	1f 93       	push	r17
    28d8:	cf 93       	push	r28
    28da:	df 93       	push	r29
    28dc:	ec 01       	movw	r28, r24
    28de:	6b 01       	movw	r12, r22
    28e0:	7a 01       	movw	r14, r20
    28e2:	0e 94 03 2d 	call	0x5a06	;  0x5a06
    28e6:	8b 01       	movw	r16, r22
    28e8:	bb 24       	eor	r11, r11
    28ea:	ba 94       	dec	r11
    28ec:	09 c0       	rjmp	.+18     	;  0x2900
    28ee:	0e 94 03 2d 	call	0x5a06	;  0x5a06
    28f2:	60 1b       	sub	r22, r16
    28f4:	71 0b       	sbc	r23, r17
    28f6:	6d 52       	subi	r22, 0x2D	; 45
    28f8:	71 40       	sbci	r23, 0x01	; 1
    28fa:	10 f0       	brcs	.+4      	;  0x2900
    28fc:	81 e1       	ldi	r24, 0x11	; 17
    28fe:	0b c0       	rjmp	.+22     	;  0x2916
    2900:	be bc       	out	0x2e, r11	; 46
    2902:	0d b4       	in	r0, 0x2d	; 45
    2904:	07 fe       	sbrs	r0, 7
    2906:	fd cf       	rjmp	.-6      	;  0x2902
    2908:	8e b5       	in	r24, 0x2e	; 46
    290a:	8b 83       	std	Y+3, r24	; 0x03
    290c:	8f 3f       	cpi	r24, 0xFF	; 255
    290e:	79 f3       	breq	.-34     	;  0x28ee
    2910:	8e 3f       	cpi	r24, 0xFE	; 254
    2912:	39 f0       	breq	.+14     	;  0x2922
    2914:	8f e0       	ldi	r24, 0x0F	; 15
    2916:	89 83       	std	Y+1, r24	; 0x01
    2918:	ce 01       	movw	r24, r28
    291a:	0e 94 ca 13 	call	0x2794	;  0x2794
    291e:	80 e0       	ldi	r24, 0x00	; 0
    2920:	2f c0       	rjmp	.+94     	;  0x2980
    2922:	d7 01       	movw	r26, r14
    2924:	11 97       	sbiw	r26, 0x01	; 1
    2926:	ef 28       	or	r14, r15
    2928:	d9 f0       	breq	.+54     	;  0x2960
    292a:	8f ef       	ldi	r24, 0xFF	; 255
    292c:	8e bd       	out	0x2e, r24	; 46
    292e:	20 e0       	ldi	r18, 0x00	; 0
    2930:	30 e0       	ldi	r19, 0x00	; 0
    2932:	9f ef       	ldi	r25, 0xFF	; 255
    2934:	0b c0       	rjmp	.+22     	;  0x294c
    2936:	0d b4       	in	r0, 0x2d	; 45
    2938:	07 fe       	sbrs	r0, 7
    293a:	fd cf       	rjmp	.-6      	;  0x2936
    293c:	8e b5       	in	r24, 0x2e	; 46
    293e:	f6 01       	movw	r30, r12
    2940:	e2 0f       	add	r30, r18
    2942:	f3 1f       	adc	r31, r19
    2944:	80 83       	st	Z, r24
    2946:	9e bd       	out	0x2e, r25	; 46
    2948:	2f 5f       	subi	r18, 0xFF	; 255
    294a:	3f 4f       	sbci	r19, 0xFF	; 255
    294c:	2a 17       	cp	r18, r26
    294e:	3b 07       	cpc	r19, r27
    2950:	90 f3       	brcs	.-28     	;  0x2936
    2952:	0d b4       	in	r0, 0x2d	; 45
    2954:	07 fe       	sbrs	r0, 7
    2956:	fd cf       	rjmp	.-6      	;  0x2952
    2958:	8e b5       	in	r24, 0x2e	; 46
    295a:	ac 0d       	add	r26, r12
    295c:	bd 1d       	adc	r27, r13
    295e:	8c 93       	st	X, r24
    2960:	8f ef       	ldi	r24, 0xFF	; 255
    2962:	8e bd       	out	0x2e, r24	; 46
    2964:	0d b4       	in	r0, 0x2d	; 45
    2966:	07 fe       	sbrs	r0, 7
    2968:	fd cf       	rjmp	.-6      	;  0x2964
    296a:	8e b5       	in	r24, 0x2e	; 46
    296c:	8f ef       	ldi	r24, 0xFF	; 255
    296e:	8e bd       	out	0x2e, r24	; 46
    2970:	0d b4       	in	r0, 0x2d	; 45
    2972:	07 fe       	sbrs	r0, 7
    2974:	fd cf       	rjmp	.-6      	;  0x2970
    2976:	8e b5       	in	r24, 0x2e	; 46
    2978:	ce 01       	movw	r24, r28
    297a:	0e 94 ca 13 	call	0x2794	;  0x2794
    297e:	81 e0       	ldi	r24, 0x01	; 1
    2980:	df 91       	pop	r29
    2982:	cf 91       	pop	r28
    2984:	1f 91       	pop	r17
    2986:	0f 91       	pop	r16
    2988:	ff 90       	pop	r15
    298a:	ef 90       	pop	r14
    298c:	df 90       	pop	r13
    298e:	cf 90       	pop	r12
    2990:	bf 90       	pop	r11
    2992:	08 95       	ret
    2994:	cf 92       	push	r12
    2996:	df 92       	push	r13
    2998:	ef 92       	push	r14
    299a:	ff 92       	push	r15
    299c:	0f 93       	push	r16
    299e:	1f 93       	push	r17
    29a0:	cf 93       	push	r28
    29a2:	df 93       	push	r29
    29a4:	ec 01       	movw	r28, r24
    29a6:	7a 01       	movw	r14, r20
    29a8:	8b 01       	movw	r16, r22
    29aa:	69 01       	movw	r12, r18
    29ac:	8c 81       	ldd	r24, Y+4	; 0x04
    29ae:	83 30       	cpi	r24, 0x03	; 3
    29b0:	39 f0       	breq	.+14     	;  0x29c0
    29b2:	a9 e0       	ldi	r26, 0x09	; 9
    29b4:	ee 0c       	add	r14, r14
    29b6:	ff 1c       	adc	r15, r15
    29b8:	00 1f       	adc	r16, r16
    29ba:	11 1f       	adc	r17, r17
    29bc:	aa 95       	dec	r26
    29be:	d1 f7       	brne	.-12     	;  0x29b4
    29c0:	ce 01       	movw	r24, r28
    29c2:	61 e1       	ldi	r22, 0x11	; 17
    29c4:	a8 01       	movw	r20, r16
    29c6:	97 01       	movw	r18, r14
    29c8:	0e 94 6f 13 	call	0x26de	;  0x26de
    29cc:	88 23       	and	r24, r24
    29ce:	39 f0       	breq	.+14     	;  0x29de
    29d0:	84 e0       	ldi	r24, 0x04	; 4
    29d2:	89 83       	std	Y+1, r24	; 0x01
    29d4:	ce 01       	movw	r24, r28
    29d6:	0e 94 ca 13 	call	0x2794	;  0x2794
    29da:	80 e0       	ldi	r24, 0x00	; 0
    29dc:	06 c0       	rjmp	.+12     	;  0x29ea
    29de:	ce 01       	movw	r24, r28
    29e0:	b6 01       	movw	r22, r12
    29e2:	40 e0       	ldi	r20, 0x00	; 0
    29e4:	52 e0       	ldi	r21, 0x02	; 2
    29e6:	0e 94 65 14 	call	0x28ca	;  0x28ca
    29ea:	df 91       	pop	r29
    29ec:	cf 91       	pop	r28
    29ee:	1f 91       	pop	r17
    29f0:	0f 91       	pop	r16
    29f2:	ff 90       	pop	r15
    29f4:	ef 90       	pop	r14
    29f6:	df 90       	pop	r13
    29f8:	cf 90       	pop	r12
    29fa:	08 95       	ret
    29fc:	bf 92       	push	r11
    29fe:	cf 92       	push	r12
    2a00:	df 92       	push	r13
    2a02:	ef 92       	push	r14
    2a04:	ff 92       	push	r15
    2a06:	0f 93       	push	r16
    2a08:	1f 93       	push	r17
    2a0a:	cf 93       	push	r28
    2a0c:	df 93       	push	r29
    2a0e:	ec 01       	movw	r28, r24
    2a10:	b6 2e       	mov	r11, r22
    2a12:	1c 82       	std	Y+4, r1	; 0x04
    2a14:	19 82       	std	Y+1, r1	; 0x01
    2a16:	48 83       	st	Y, r20
    2a18:	0e 94 03 2d 	call	0x5a06	;  0x5a06
    2a1c:	6b 01       	movw	r12, r22
    2a1e:	88 81       	ld	r24, Y
    2a20:	61 e0       	ldi	r22, 0x01	; 1
    2a22:	0e 94 1d 2e 	call	0x5c3a	;  0x5c3a
    2a26:	88 81       	ld	r24, Y
    2a28:	61 e0       	ldi	r22, 0x01	; 1
    2a2a:	0e 94 70 2e 	call	0x5ce0	;  0x5ce0
    2a2e:	8c e0       	ldi	r24, 0x0C	; 12
    2a30:	60 e0       	ldi	r22, 0x00	; 0
    2a32:	0e 94 1d 2e 	call	0x5c3a	;  0x5c3a
    2a36:	8b e0       	ldi	r24, 0x0B	; 11
    2a38:	61 e0       	ldi	r22, 0x01	; 1
    2a3a:	0e 94 1d 2e 	call	0x5c3a	;  0x5c3a
    2a3e:	8d e0       	ldi	r24, 0x0D	; 13
    2a40:	61 e0       	ldi	r22, 0x01	; 1
    2a42:	0e 94 1d 2e 	call	0x5c3a	;  0x5c3a
    2a46:	8a e0       	ldi	r24, 0x0A	; 10
    2a48:	61 e0       	ldi	r22, 0x01	; 1
    2a4a:	0e 94 1d 2e 	call	0x5c3a	;  0x5c3a
    2a4e:	8a e0       	ldi	r24, 0x0A	; 10
    2a50:	61 e0       	ldi	r22, 0x01	; 1
    2a52:	0e 94 70 2e 	call	0x5ce0	;  0x5ce0
    2a56:	85 e0       	ldi	r24, 0x05	; 5
    2a58:	8a 83       	std	Y+2, r24	; 0x02
    2a5a:	82 e5       	ldi	r24, 0x52	; 82
    2a5c:	8c bd       	out	0x2c, r24	; 44
    2a5e:	1d bc       	out	0x2d, r1	; 45
    2a60:	80 e0       	ldi	r24, 0x00	; 0
    2a62:	9f ef       	ldi	r25, 0xFF	; 255
    2a64:	9e bd       	out	0x2e, r25	; 46
    2a66:	0d b4       	in	r0, 0x2d	; 45
    2a68:	07 fe       	sbrs	r0, 7
    2a6a:	fd cf       	rjmp	.-6      	;  0x2a66
    2a6c:	8f 5f       	subi	r24, 0xFF	; 255
    2a6e:	8a 30       	cpi	r24, 0x0A	; 10
    2a70:	c9 f7       	brne	.-14     	;  0x2a64
    2a72:	09 c0       	rjmp	.+18     	;  0x2a86
    2a74:	0e 94 03 2d 	call	0x5a06	;  0x5a06
    2a78:	6c 19       	sub	r22, r12
    2a7a:	7d 09       	sbc	r23, r13
    2a7c:	61 5d       	subi	r22, 0xD1	; 209
    2a7e:	77 40       	sbci	r23, 0x07	; 7
    2a80:	10 f0       	brcs	.+4      	;  0x2a86
    2a82:	81 e0       	ldi	r24, 0x01	; 1
    2a84:	5e c0       	rjmp	.+188    	;  0x2b42
    2a86:	ce 01       	movw	r24, r28
    2a88:	60 e0       	ldi	r22, 0x00	; 0
    2a8a:	20 e0       	ldi	r18, 0x00	; 0
    2a8c:	30 e0       	ldi	r19, 0x00	; 0
    2a8e:	40 e0       	ldi	r20, 0x00	; 0
    2a90:	50 e0       	ldi	r21, 0x00	; 0
    2a92:	0e 94 6f 13 	call	0x26de	;  0x26de
    2a96:	18 2f       	mov	r17, r24
    2a98:	8b 83       	std	Y+3, r24	; 0x03
    2a9a:	81 30       	cpi	r24, 0x01	; 1
    2a9c:	59 f7       	brne	.-42     	;  0x2a74
    2a9e:	ce 01       	movw	r24, r28
    2aa0:	68 e0       	ldi	r22, 0x08	; 8
    2aa2:	2a ea       	ldi	r18, 0xAA	; 170
    2aa4:	31 e0       	ldi	r19, 0x01	; 1
    2aa6:	40 e0       	ldi	r20, 0x00	; 0
    2aa8:	50 e0       	ldi	r21, 0x00	; 0
    2aaa:	0e 94 6f 13 	call	0x26de	;  0x26de
    2aae:	82 ff       	sbrs	r24, 2
    2ab0:	02 c0       	rjmp	.+4      	;  0x2ab6
    2ab2:	1c 83       	std	Y+4, r17	; 0x04
    2ab4:	11 c0       	rjmp	.+34     	;  0x2ad8
    2ab6:	80 e0       	ldi	r24, 0x00	; 0
    2ab8:	2f ef       	ldi	r18, 0xFF	; 255
    2aba:	2e bd       	out	0x2e, r18	; 46
    2abc:	0d b4       	in	r0, 0x2d	; 45
    2abe:	07 fe       	sbrs	r0, 7
    2ac0:	fd cf       	rjmp	.-6      	;  0x2abc
    2ac2:	9e b5       	in	r25, 0x2e	; 46
    2ac4:	8f 5f       	subi	r24, 0xFF	; 255
    2ac6:	84 30       	cpi	r24, 0x04	; 4
    2ac8:	c1 f7       	brne	.-16     	;  0x2aba
    2aca:	9b 83       	std	Y+3, r25	; 0x03
    2acc:	9a 3a       	cpi	r25, 0xAA	; 170
    2ace:	11 f0       	breq	.+4      	;  0x2ad4
    2ad0:	82 e0       	ldi	r24, 0x02	; 2
    2ad2:	37 c0       	rjmp	.+110    	;  0x2b42
    2ad4:	82 e0       	ldi	r24, 0x02	; 2
    2ad6:	8c 83       	std	Y+4, r24	; 0x04
    2ad8:	8c 81       	ldd	r24, Y+4	; 0x04
    2ada:	82 30       	cpi	r24, 0x02	; 2
    2adc:	21 f0       	breq	.+8      	;  0x2ae6
    2ade:	ee 24       	eor	r14, r14
    2ae0:	ff 24       	eor	r15, r15
    2ae2:	87 01       	movw	r16, r14
    2ae4:	0f c0       	rjmp	.+30     	;  0x2b04
    2ae6:	e1 2c       	mov	r14, r1
    2ae8:	f1 2c       	mov	r15, r1
    2aea:	01 2d       	mov	r16, r1
    2aec:	80 e4       	ldi	r24, 0x40	; 64
    2aee:	18 2f       	mov	r17, r24
    2af0:	09 c0       	rjmp	.+18     	;  0x2b04
    2af2:	0e 94 03 2d 	call	0x5a06	;  0x5a06
    2af6:	6c 19       	sub	r22, r12
    2af8:	7d 09       	sbc	r23, r13
    2afa:	61 5d       	subi	r22, 0xD1	; 209
    2afc:	77 40       	sbci	r23, 0x07	; 7
    2afe:	10 f0       	brcs	.+4      	;  0x2b04
    2b00:	8a e0       	ldi	r24, 0x0A	; 10
    2b02:	1f c0       	rjmp	.+62     	;  0x2b42
    2b04:	ce 01       	movw	r24, r28
    2b06:	67 e3       	ldi	r22, 0x37	; 55
    2b08:	20 e0       	ldi	r18, 0x00	; 0
    2b0a:	30 e0       	ldi	r19, 0x00	; 0
    2b0c:	40 e0       	ldi	r20, 0x00	; 0
    2b0e:	50 e0       	ldi	r21, 0x00	; 0
    2b10:	0e 94 6f 13 	call	0x26de	;  0x26de
    2b14:	ce 01       	movw	r24, r28
    2b16:	69 e2       	ldi	r22, 0x29	; 41
    2b18:	a8 01       	movw	r20, r16
    2b1a:	97 01       	movw	r18, r14
    2b1c:	0e 94 6f 13 	call	0x26de	;  0x26de
    2b20:	8b 83       	std	Y+3, r24	; 0x03
    2b22:	88 23       	and	r24, r24
    2b24:	31 f7       	brne	.-52     	;  0x2af2
    2b26:	8c 81       	ldd	r24, Y+4	; 0x04
    2b28:	82 30       	cpi	r24, 0x02	; 2
    2b2a:	29 f5       	brne	.+74     	;  0x2b76
    2b2c:	ce 01       	movw	r24, r28
    2b2e:	6a e3       	ldi	r22, 0x3A	; 58
    2b30:	20 e0       	ldi	r18, 0x00	; 0
    2b32:	30 e0       	ldi	r19, 0x00	; 0
    2b34:	40 e0       	ldi	r20, 0x00	; 0
    2b36:	50 e0       	ldi	r21, 0x00	; 0
    2b38:	0e 94 6f 13 	call	0x26de	;  0x26de
    2b3c:	88 23       	and	r24, r24
    2b3e:	31 f0       	breq	.+12     	;  0x2b4c
    2b40:	88 e0       	ldi	r24, 0x08	; 8
    2b42:	89 83       	std	Y+1, r24	; 0x01
    2b44:	ce 01       	movw	r24, r28
    2b46:	0e 94 ca 13 	call	0x2794	;  0x2794
    2b4a:	21 c0       	rjmp	.+66     	;  0x2b8e
    2b4c:	8f ef       	ldi	r24, 0xFF	; 255
    2b4e:	8e bd       	out	0x2e, r24	; 46
    2b50:	0d b4       	in	r0, 0x2d	; 45
    2b52:	07 fe       	sbrs	r0, 7
    2b54:	fd cf       	rjmp	.-6      	;  0x2b50
    2b56:	8e b5       	in	r24, 0x2e	; 46
    2b58:	80 7c       	andi	r24, 0xC0	; 192
    2b5a:	80 3c       	cpi	r24, 0xC0	; 192
    2b5c:	11 f4       	brne	.+4      	;  0x2b62
    2b5e:	83 e0       	ldi	r24, 0x03	; 3
    2b60:	8c 83       	std	Y+4, r24	; 0x04
    2b62:	80 e0       	ldi	r24, 0x00	; 0
    2b64:	9f ef       	ldi	r25, 0xFF	; 255
    2b66:	9e bd       	out	0x2e, r25	; 46
    2b68:	0d b4       	in	r0, 0x2d	; 45
    2b6a:	07 fe       	sbrs	r0, 7
    2b6c:	fd cf       	rjmp	.-6      	;  0x2b68
    2b6e:	2e b5       	in	r18, 0x2e	; 46
    2b70:	8f 5f       	subi	r24, 0xFF	; 255
    2b72:	83 30       	cpi	r24, 0x03	; 3
    2b74:	c1 f7       	brne	.-16     	;  0x2b66
    2b76:	ce 01       	movw	r24, r28
    2b78:	0e 94 ca 13 	call	0x2794	;  0x2794
    2b7c:	86 e0       	ldi	r24, 0x06	; 6
    2b7e:	8b 15       	cp	r24, r11
    2b80:	18 f4       	brcc	.+6      	;  0x2b88
    2b82:	88 e1       	ldi	r24, 0x18	; 24
    2b84:	89 83       	std	Y+1, r24	; 0x01
    2b86:	03 c0       	rjmp	.+6      	;  0x2b8e
    2b88:	ba 82       	std	Y+2, r11	; 0x02
    2b8a:	81 e0       	ldi	r24, 0x01	; 1
    2b8c:	01 c0       	rjmp	.+2      	;  0x2b90
    2b8e:	80 e0       	ldi	r24, 0x00	; 0
    2b90:	df 91       	pop	r29
    2b92:	cf 91       	pop	r28
    2b94:	1f 91       	pop	r17
    2b96:	0f 91       	pop	r16
    2b98:	ff 90       	pop	r15
    2b9a:	ef 90       	pop	r14
    2b9c:	df 90       	pop	r13
    2b9e:	cf 90       	pop	r12
    2ba0:	bf 90       	pop	r11
    2ba2:	08 95       	ret
    2ba4:	0f 93       	push	r16
    2ba6:	1f 93       	push	r17
    2ba8:	cf 93       	push	r28
    2baa:	df 93       	push	r29
    2bac:	dc 01       	movw	r26, r24
    2bae:	eb 01       	movw	r28, r22
    2bb0:	8a 01       	movw	r16, r20
    2bb2:	80 e0       	ldi	r24, 0x00	; 0
    2bb4:	90 e0       	ldi	r25, 0x00	; 0
    2bb6:	20 e2       	ldi	r18, 0x20	; 32
    2bb8:	fe 01       	movw	r30, r28
    2bba:	e8 0f       	add	r30, r24
    2bbc:	f9 1f       	adc	r31, r25
    2bbe:	20 83       	st	Z, r18
    2bc0:	01 96       	adiw	r24, 0x01	; 1
    2bc2:	8b 30       	cpi	r24, 0x0B	; 11
    2bc4:	91 05       	cpc	r25, r1
    2bc6:	c1 f7       	brne	.-16     	;  0x2bb8
    2bc8:	57 e0       	ldi	r21, 0x07	; 7
    2bca:	40 e0       	ldi	r20, 0x00	; 0
    2bcc:	24 c0       	rjmp	.+72     	;  0x2c16
    2bce:	62 2f       	mov	r22, r18
    2bd0:	2e 32       	cpi	r18, 0x2E	; 46
    2bd2:	19 f0       	breq	.+6      	;  0x2bda
    2bd4:	88 e6       	ldi	r24, 0x68	; 104
    2bd6:	90 e0       	ldi	r25, 0x00	; 0
    2bd8:	07 c0       	rjmp	.+14     	;  0x2be8
    2bda:	5a 30       	cpi	r21, 0x0A	; 10
    2bdc:	51 f1       	breq	.+84     	;  0x2c32
    2bde:	5a e0       	ldi	r21, 0x0A	; 10
    2be0:	48 e0       	ldi	r20, 0x08	; 8
    2be2:	18 c0       	rjmp	.+48     	;  0x2c14
    2be4:	32 17       	cp	r19, r18
    2be6:	29 f1       	breq	.+74     	;  0x2c32
    2be8:	fc 01       	movw	r30, r24
    2bea:	01 96       	adiw	r24, 0x01	; 1
    2bec:	34 91       	lpm	r19, Z+
    2bee:	33 23       	and	r19, r19
    2bf0:	c9 f7       	brne	.-14     	;  0x2be4
    2bf2:	54 17       	cp	r21, r20
    2bf4:	f0 f0       	brcs	.+60     	;  0x2c32
    2bf6:	21 32       	cpi	r18, 0x21	; 33
    2bf8:	e0 f0       	brcs	.+56     	;  0x2c32
    2bfa:	2f 37       	cpi	r18, 0x7F	; 127
    2bfc:	d0 f4       	brcc	.+52     	;  0x2c32
    2bfe:	82 2f       	mov	r24, r18
    2c00:	81 56       	subi	r24, 0x61	; 97
    2c02:	8a 31       	cpi	r24, 0x1A	; 26
    2c04:	10 f4       	brcc	.+4      	;  0x2c0a
    2c06:	62 2f       	mov	r22, r18
    2c08:	60 52       	subi	r22, 0x20	; 32
    2c0a:	fe 01       	movw	r30, r28
    2c0c:	e4 0f       	add	r30, r20
    2c0e:	f1 1d       	adc	r31, r1
    2c10:	60 83       	st	Z, r22
    2c12:	4f 5f       	subi	r20, 0xFF	; 255
    2c14:	11 96       	adiw	r26, 0x01	; 1
    2c16:	2c 91       	ld	r18, X
    2c18:	22 23       	and	r18, r18
    2c1a:	11 f0       	breq	.+4      	;  0x2c20
    2c1c:	2f 32       	cpi	r18, 0x2F	; 47
    2c1e:	b9 f6       	brne	.-82     	;  0x2bce
    2c20:	f8 01       	movw	r30, r16
    2c22:	b1 83       	std	Z+1, r27	; 0x01
    2c24:	a0 83       	st	Z, r26
    2c26:	90 e0       	ldi	r25, 0x00	; 0
    2c28:	88 81       	ld	r24, Y
    2c2a:	80 32       	cpi	r24, 0x20	; 32
    2c2c:	19 f0       	breq	.+6      	;  0x2c34
    2c2e:	91 e0       	ldi	r25, 0x01	; 1
    2c30:	01 c0       	rjmp	.+2      	;  0x2c34
    2c32:	90 e0       	ldi	r25, 0x00	; 0
    2c34:	89 2f       	mov	r24, r25
    2c36:	df 91       	pop	r29
    2c38:	cf 91       	pop	r28
    2c3a:	1f 91       	pop	r17
    2c3c:	0f 91       	pop	r16
    2c3e:	08 95       	ret
    2c40:	6f 92       	push	r6
    2c42:	7f 92       	push	r7
    2c44:	8f 92       	push	r8
    2c46:	9f 92       	push	r9
    2c48:	af 92       	push	r10
    2c4a:	bf 92       	push	r11
    2c4c:	cf 92       	push	r12
    2c4e:	df 92       	push	r13
    2c50:	ef 92       	push	r14
    2c52:	ff 92       	push	r15
    2c54:	0f 93       	push	r16
    2c56:	1f 93       	push	r17
    2c58:	cf 93       	push	r28
    2c5a:	df 93       	push	r29
    2c5c:	ec 01       	movw	r28, r24
    2c5e:	7a 01       	movw	r14, r20
    2c60:	8b 01       	movw	r16, r22
    2c62:	2b 81       	ldd	r18, Y+3	; 0x03
    2c64:	22 23       	and	r18, r18
    2c66:	09 f4       	brne	.+2      	;  0x2c6a
    2c68:	80 c0       	rjmp	.+256    	;  0x2d6a
    2c6a:	89 89       	ldd	r24, Y+17	; 0x11
    2c6c:	9a 89       	ldd	r25, Y+18	; 0x12
    2c6e:	ab 89       	ldd	r26, Y+19	; 0x13
    2c70:	bc 89       	ldd	r27, Y+20	; 0x14
    2c72:	84 17       	cp	r24, r20
    2c74:	95 07       	cpc	r25, r21
    2c76:	a6 07       	cpc	r26, r22
    2c78:	b7 07       	cpc	r27, r23
    2c7a:	08 f4       	brcc	.+2      	;  0x2c7e
    2c7c:	76 c0       	rjmp	.+236    	;  0x2d6a
    2c7e:	85 c0       	rjmp	.+266    	;  0x2d8a
    2c80:	e1 14       	cp	r14, r1
    2c82:	f1 04       	cpc	r15, r1
    2c84:	01 05       	cpc	r16, r1
    2c86:	11 05       	cpc	r17, r1
    2c88:	51 f4       	brne	.+20     	;  0x2c9e
    2c8a:	1c 82       	std	Y+4, r1	; 0x04
    2c8c:	1d 82       	std	Y+5, r1	; 0x05
    2c8e:	1e 82       	std	Y+6, r1	; 0x06
    2c90:	1f 82       	std	Y+7, r1	; 0x07
    2c92:	18 86       	std	Y+8, r1	; 0x08
    2c94:	19 86       	std	Y+9, r1	; 0x09
    2c96:	1a 86       	std	Y+10, r1	; 0x0a
    2c98:	1b 86       	std	Y+11, r1	; 0x0b
    2c9a:	81 e0       	ldi	r24, 0x01	; 1
    2c9c:	67 c0       	rjmp	.+206    	;  0x2d6c
    2c9e:	28 85       	ldd	r18, Y+8	; 0x08
    2ca0:	39 85       	ldd	r19, Y+9	; 0x09
    2ca2:	4a 85       	ldd	r20, Y+10	; 0x0a
    2ca4:	5b 85       	ldd	r21, Y+11	; 0x0b
    2ca6:	e9 8d       	ldd	r30, Y+25	; 0x19
    2ca8:	fa 8d       	ldd	r31, Y+26	; 0x1a
    2caa:	85 85       	ldd	r24, Z+13	; 0x0d
    2cac:	90 e0       	ldi	r25, 0x00	; 0
    2cae:	09 96       	adiw	r24, 0x09	; 9
    2cb0:	21 50       	subi	r18, 0x01	; 1
    2cb2:	30 40       	sbci	r19, 0x00	; 0
    2cb4:	40 40       	sbci	r20, 0x00	; 0
    2cb6:	50 40       	sbci	r21, 0x00	; 0
    2cb8:	39 01       	movw	r6, r18
    2cba:	4a 01       	movw	r8, r20
    2cbc:	08 2e       	mov	r0, r24
    2cbe:	04 c0       	rjmp	.+8      	;  0x2cc8
    2cc0:	96 94       	lsr	r9
    2cc2:	87 94       	ror	r8
    2cc4:	77 94       	ror	r7
    2cc6:	67 94       	ror	r6
    2cc8:	0a 94       	dec	r0
    2cca:	d2 f7       	brpl	.-12     	;  0x2cc0
    2ccc:	2f 5f       	subi	r18, 0xFF	; 255
    2cce:	3f 4f       	sbci	r19, 0xFF	; 255
    2cd0:	4f 4f       	sbci	r20, 0xFF	; 255
    2cd2:	5f 4f       	sbci	r21, 0xFF	; 255
    2cd4:	08 94       	sec
    2cd6:	e1 08       	sbc	r14, r1
    2cd8:	f1 08       	sbc	r15, r1
    2cda:	01 09       	sbc	r16, r1
    2cdc:	11 09       	sbc	r17, r1
    2cde:	57 01       	movw	r10, r14
    2ce0:	68 01       	movw	r12, r16
    2ce2:	04 c0       	rjmp	.+8      	;  0x2cec
    2ce4:	d6 94       	lsr	r13
    2ce6:	c7 94       	ror	r12
    2ce8:	b7 94       	ror	r11
    2cea:	a7 94       	ror	r10
    2cec:	8a 95       	dec	r24
    2cee:	d2 f7       	brpl	.-12     	;  0x2ce4
    2cf0:	08 94       	sec
    2cf2:	e1 1c       	adc	r14, r1
    2cf4:	f1 1c       	adc	r15, r1
    2cf6:	01 1d       	adc	r16, r1
    2cf8:	11 1d       	adc	r17, r1
    2cfa:	a6 14       	cp	r10, r6
    2cfc:	b7 04       	cpc	r11, r7
    2cfe:	c8 04       	cpc	r12, r8
    2d00:	d9 04       	cpc	r13, r9
    2d02:	28 f0       	brcs	.+10     	;  0x2d0e
    2d04:	21 15       	cp	r18, r1
    2d06:	31 05       	cpc	r19, r1
    2d08:	41 05       	cpc	r20, r1
    2d0a:	51 05       	cpc	r21, r1
    2d0c:	49 f4       	brne	.+18     	;  0x2d20
    2d0e:	8d 89       	ldd	r24, Y+21	; 0x15
    2d10:	9e 89       	ldd	r25, Y+22	; 0x16
    2d12:	af 89       	ldd	r26, Y+23	; 0x17
    2d14:	b8 8d       	ldd	r27, Y+24	; 0x18
    2d16:	8c 83       	std	Y+4, r24	; 0x04
    2d18:	9d 83       	std	Y+5, r25	; 0x05
    2d1a:	ae 83       	std	Y+6, r26	; 0x06
    2d1c:	bf 83       	std	Y+7, r27	; 0x07
    2d1e:	16 c0       	rjmp	.+44     	;  0x2d4c
    2d20:	a6 18       	sub	r10, r6
    2d22:	b7 08       	sbc	r11, r7
    2d24:	c8 08       	sbc	r12, r8
    2d26:	d9 08       	sbc	r13, r9
    2d28:	11 c0       	rjmp	.+34     	;  0x2d4c
    2d2a:	4c 81       	ldd	r20, Y+4	; 0x04
    2d2c:	5d 81       	ldd	r21, Y+5	; 0x05
    2d2e:	6e 81       	ldd	r22, Y+6	; 0x06
    2d30:	7f 81       	ldd	r23, Y+7	; 0x07
    2d32:	89 8d       	ldd	r24, Y+25	; 0x19
    2d34:	9a 8d       	ldd	r25, Y+26	; 0x1a
    2d36:	94 01       	movw	r18, r8
    2d38:	0e 94 1e 21 	call	0x423c	;  0x423c
    2d3c:	08 94       	sec
    2d3e:	a1 08       	sbc	r10, r1
    2d40:	b1 08       	sbc	r11, r1
    2d42:	c1 08       	sbc	r12, r1
    2d44:	d1 08       	sbc	r13, r1
    2d46:	88 23       	and	r24, r24
    2d48:	31 f4       	brne	.+12     	;  0x2d56
    2d4a:	0f c0       	rjmp	.+30     	;  0x2d6a
    2d4c:	84 e0       	ldi	r24, 0x04	; 4
    2d4e:	88 2e       	mov	r8, r24
    2d50:	91 2c       	mov	r9, r1
    2d52:	8c 0e       	add	r8, r28
    2d54:	9d 1e       	adc	r9, r29
    2d56:	a1 14       	cp	r10, r1
    2d58:	b1 04       	cpc	r11, r1
    2d5a:	c1 04       	cpc	r12, r1
    2d5c:	d1 04       	cpc	r13, r1
    2d5e:	29 f7       	brne	.-54     	;  0x2d2a
    2d60:	e8 86       	std	Y+8, r14	; 0x08
    2d62:	f9 86       	std	Y+9, r15	; 0x09
    2d64:	0a 87       	std	Y+10, r16	; 0x0a
    2d66:	1b 87       	std	Y+11, r17	; 0x0b
    2d68:	98 cf       	rjmp	.-208    	;  0x2c9a
    2d6a:	80 e0       	ldi	r24, 0x00	; 0
    2d6c:	df 91       	pop	r29
    2d6e:	cf 91       	pop	r28
    2d70:	1f 91       	pop	r17
    2d72:	0f 91       	pop	r16
    2d74:	ff 90       	pop	r15
    2d76:	ef 90       	pop	r14
    2d78:	df 90       	pop	r13
    2d7a:	cf 90       	pop	r12
    2d7c:	bf 90       	pop	r11
    2d7e:	af 90       	pop	r10
    2d80:	9f 90       	pop	r9
    2d82:	8f 90       	pop	r8
    2d84:	7f 90       	pop	r7
    2d86:	6f 90       	pop	r6
    2d88:	08 95       	ret
    2d8a:	22 30       	cpi	r18, 0x02	; 2
    2d8c:	09 f0       	breq	.+2      	;  0x2d90
    2d8e:	78 cf       	rjmp	.-272    	;  0x2c80
    2d90:	e7 cf       	rjmp	.-50     	;  0x2d60
    2d92:	cf 93       	push	r28
    2d94:	df 93       	push	r29
    2d96:	ec 01       	movw	r28, r24
    2d98:	8c 85       	ldd	r24, Y+12	; 0x0c
    2d9a:	9d 85       	ldd	r25, Y+13	; 0x0d
    2d9c:	ae 85       	ldd	r26, Y+14	; 0x0e
    2d9e:	bf 85       	ldd	r27, Y+15	; 0x0f
    2da0:	40 e0       	ldi	r20, 0x00	; 0
    2da2:	61 11       	cpse	r22, r1
    2da4:	41 e0       	ldi	r20, 0x01	; 1
    2da6:	bc 01       	movw	r22, r24
    2da8:	cd 01       	movw	r24, r26
    2daa:	0e 94 f4 1e 	call	0x3de8	;  0x3de8
    2dae:	88 23       	and	r24, r24
    2db0:	19 f4       	brne	.+6      	;  0x2db8
    2db2:	20 e0       	ldi	r18, 0x00	; 0
    2db4:	30 e0       	ldi	r19, 0x00	; 0
    2db6:	0a c0       	rjmp	.+20     	;  0x2dcc
    2db8:	88 89       	ldd	r24, Y+16	; 0x10
    2dba:	28 2f       	mov	r18, r24
    2dbc:	30 e0       	ldi	r19, 0x00	; 0
    2dbe:	95 e0       	ldi	r25, 0x05	; 5
    2dc0:	22 0f       	add	r18, r18
    2dc2:	33 1f       	adc	r19, r19
    2dc4:	9a 95       	dec	r25
    2dc6:	e1 f7       	brne	.-8      	;  0x2dc0
    2dc8:	22 5b       	subi	r18, 0xB2	; 178
    2dca:	3b 4f       	sbci	r19, 0xFB	; 251
    2dcc:	c9 01       	movw	r24, r18
    2dce:	df 91       	pop	r29
    2dd0:	cf 91       	pop	r28
    2dd2:	08 95       	ret
    2dd4:	0f 93       	push	r16
    2dd6:	1f 93       	push	r17
    2dd8:	cf 93       	push	r28
    2dda:	df 93       	push	r29
    2ddc:	8c 01       	movw	r16, r24
    2dde:	fc 01       	movw	r30, r24
    2de0:	83 81       	ldd	r24, Z+3	; 0x03
    2de2:	88 23       	and	r24, r24
    2de4:	f1 f1       	breq	.+124    	;  0x2e62
    2de6:	81 81       	ldd	r24, Z+1	; 0x01
    2de8:	87 ff       	sbrs	r24, 7
    2dea:	38 c0       	rjmp	.+112    	;  0x2e5c
    2dec:	c8 01       	movw	r24, r16
    2dee:	61 e0       	ldi	r22, 0x01	; 1
    2df0:	0e 94 c9 16 	call	0x2d92	;  0x2d92
    2df4:	ec 01       	movw	r28, r24
    2df6:	00 97       	sbiw	r24, 0x00	; 0
    2df8:	a1 f1       	breq	.+104    	;  0x2e62
    2dfa:	88 81       	ld	r24, Y
    2dfc:	85 3e       	cpi	r24, 0xE5	; 229
    2dfe:	89 f1       	breq	.+98     	;  0x2e62
    2e00:	f8 01       	movw	r30, r16
    2e02:	83 81       	ldd	r24, Z+3	; 0x03
    2e04:	82 30       	cpi	r24, 0x02	; 2
    2e06:	40 f4       	brcc	.+16     	;  0x2e18
    2e08:	81 89       	ldd	r24, Z+17	; 0x11
    2e0a:	92 89       	ldd	r25, Z+18	; 0x12
    2e0c:	a3 89       	ldd	r26, Z+19	; 0x13
    2e0e:	b4 89       	ldd	r27, Z+20	; 0x14
    2e10:	8c 8f       	std	Y+28, r24	; 0x1c
    2e12:	9d 8f       	std	Y+29, r25	; 0x1d
    2e14:	ae 8f       	std	Y+30, r26	; 0x1e
    2e16:	bf 8f       	std	Y+31, r27	; 0x1f
    2e18:	f8 01       	movw	r30, r16
    2e1a:	85 89       	ldd	r24, Z+21	; 0x15
    2e1c:	96 89       	ldd	r25, Z+22	; 0x16
    2e1e:	9b 8f       	std	Y+27, r25	; 0x1b
    2e20:	8a 8f       	std	Y+26, r24	; 0x1a
    2e22:	85 89       	ldd	r24, Z+21	; 0x15
    2e24:	96 89       	ldd	r25, Z+22	; 0x16
    2e26:	a7 89       	ldd	r26, Z+23	; 0x17
    2e28:	b0 8d       	ldd	r27, Z+24	; 0x18
    2e2a:	cd 01       	movw	r24, r26
    2e2c:	aa 27       	eor	r26, r26
    2e2e:	bb 27       	eor	r27, r27
    2e30:	9d 8b       	std	Y+21, r25	; 0x15
    2e32:	8c 8b       	std	Y+20, r24	; 0x14
    2e34:	e0 91 48 04 	lds	r30, 0x0448
    2e38:	f0 91 49 04 	lds	r31, 0x0449
    2e3c:	30 97       	sbiw	r30, 0x00	; 0
    2e3e:	51 f0       	breq	.+20     	;  0x2e54
    2e40:	be 01       	movw	r22, r28
    2e42:	6a 5e       	subi	r22, 0xEA	; 234
    2e44:	7f 4f       	sbci	r23, 0xFF	; 255
    2e46:	ce 01       	movw	r24, r28
    2e48:	48 96       	adiw	r24, 0x18	; 24
    2e4a:	09 95       	icall
    2e4c:	88 8d       	ldd	r24, Y+24	; 0x18
    2e4e:	99 8d       	ldd	r25, Y+25	; 0x19
    2e50:	9b 8b       	std	Y+19, r25	; 0x13
    2e52:	8a 8b       	std	Y+18, r24	; 0x12
    2e54:	f8 01       	movw	r30, r16
    2e56:	81 81       	ldd	r24, Z+1	; 0x01
    2e58:	8f 77       	andi	r24, 0x7F	; 127
    2e5a:	81 83       	std	Z+1, r24	; 0x01
    2e5c:	0e 94 b9 1e 	call	0x3d72	;  0x3d72
    2e60:	04 c0       	rjmp	.+8      	;  0x2e6a
    2e62:	81 e0       	ldi	r24, 0x01	; 1
    2e64:	f8 01       	movw	r30, r16
    2e66:	80 83       	st	Z, r24
    2e68:	80 e0       	ldi	r24, 0x00	; 0
    2e6a:	df 91       	pop	r29
    2e6c:	cf 91       	pop	r28
    2e6e:	1f 91       	pop	r17
    2e70:	0f 91       	pop	r16
    2e72:	08 95       	ret
    2e74:	0f 93       	push	r16
    2e76:	1f 93       	push	r17
    2e78:	8c 01       	movw	r16, r24
    2e7a:	0e 94 ea 16 	call	0x2dd4	;  0x2dd4
    2e7e:	f8 01       	movw	r30, r16
    2e80:	13 82       	std	Z+3, r1	; 0x03
    2e82:	1f 91       	pop	r17
    2e84:	0f 91       	pop	r16
    2e86:	08 95       	ret
    2e88:	fc 01       	movw	r30, r24
    2e8a:	83 81       	ldd	r24, Z+3	; 0x03
    2e8c:	88 23       	and	r24, r24
    2e8e:	19 f0       	breq	.+6      	;  0x2e96
    2e90:	cf 01       	movw	r24, r30
    2e92:	0e 94 3a 17 	call	0x2e74	;  0x2e74
    2e96:	08 95       	ret
    2e98:	6f 92       	push	r6
    2e9a:	7f 92       	push	r7
    2e9c:	8f 92       	push	r8
    2e9e:	9f 92       	push	r9
    2ea0:	af 92       	push	r10
    2ea2:	bf 92       	push	r11
    2ea4:	cf 92       	push	r12
    2ea6:	df 92       	push	r13
    2ea8:	ef 92       	push	r14
    2eaa:	ff 92       	push	r15
    2eac:	0f 93       	push	r16
    2eae:	1f 93       	push	r17
    2eb0:	df 93       	push	r29
    2eb2:	cf 93       	push	r28
    2eb4:	00 d0       	rcall	.+0      	;  0x2eb6
    2eb6:	00 d0       	rcall	.+0      	;  0x2eb8
    2eb8:	cd b7       	in	r28, 0x3d	; 61
    2eba:	de b7       	in	r29, 0x3e	; 62
    2ebc:	7c 01       	movw	r14, r24
    2ebe:	5a 01       	movw	r10, r20
    2ec0:	6b 01       	movw	r12, r22
    2ec2:	dc 01       	movw	r26, r24
    2ec4:	13 96       	adiw	r26, 0x03	; 3
    2ec6:	8c 91       	ld	r24, X
    2ec8:	13 97       	sbiw	r26, 0x03	; 3
    2eca:	81 30       	cpi	r24, 0x01	; 1
    2ecc:	09 f0       	breq	.+2      	;  0x2ed0
    2ece:	91 c0       	rjmp	.+290    	;  0x2ff2
    2ed0:	11 96       	adiw	r26, 0x01	; 1
    2ed2:	8c 91       	ld	r24, X
    2ed4:	81 ff       	sbrs	r24, 1
    2ed6:	8d c0       	rjmp	.+282    	;  0x2ff2
    2ed8:	a0 c0       	rjmp	.+320    	;  0x301a
    2eda:	00 97       	sbiw	r24, 0x00	; 0
    2edc:	a1 05       	cpc	r26, r1
    2ede:	b1 05       	cpc	r27, r1
    2ee0:	11 f4       	brne	.+4      	;  0x2ee6
    2ee2:	81 e0       	ldi	r24, 0x01	; 1
    2ee4:	87 c0       	rjmp	.+270    	;  0x2ff4
    2ee6:	f7 01       	movw	r30, r14
    2ee8:	60 84       	ldd	r6, Z+8	; 0x08
    2eea:	71 84       	ldd	r7, Z+9	; 0x09
    2eec:	82 84       	ldd	r8, Z+10	; 0x0a
    2eee:	93 84       	ldd	r9, Z+11	; 0x0b
    2ef0:	c7 01       	movw	r24, r14
    2ef2:	b6 01       	movw	r22, r12
    2ef4:	a5 01       	movw	r20, r10
    2ef6:	0e 94 20 16 	call	0x2c40	;  0x2c40
    2efa:	88 23       	and	r24, r24
    2efc:	09 f4       	brne	.+2      	;  0x2f00
    2efe:	79 c0       	rjmp	.+242    	;  0x2ff2
    2f00:	d7 01       	movw	r26, r14
    2f02:	59 96       	adiw	r26, 0x19	; 25
    2f04:	8d 91       	ld	r24, X+
    2f06:	9c 91       	ld	r25, X
    2f08:	5a 97       	sbiw	r26, 0x1a	; 26
    2f0a:	a1 14       	cp	r10, r1
    2f0c:	b1 04       	cpc	r11, r1
    2f0e:	c1 04       	cpc	r12, r1
    2f10:	d1 04       	cpc	r13, r1
    2f12:	89 f4       	brne	.+34     	;  0x2f36
    2f14:	55 96       	adiw	r26, 0x15	; 21
    2f16:	4d 91       	ld	r20, X+
    2f18:	5d 91       	ld	r21, X+
    2f1a:	6d 91       	ld	r22, X+
    2f1c:	7c 91       	ld	r23, X
    2f1e:	58 97       	sbiw	r26, 0x18	; 24
    2f20:	0e 94 94 21 	call	0x4328	;  0x4328
    2f24:	88 23       	and	r24, r24
    2f26:	09 f4       	brne	.+2      	;  0x2f2a
    2f28:	64 c0       	rjmp	.+200    	;  0x2ff2
    2f2a:	f7 01       	movw	r30, r14
    2f2c:	15 8a       	std	Z+21, r1	; 0x15
    2f2e:	16 8a       	std	Z+22, r1	; 0x16
    2f30:	17 8a       	std	Z+23, r1	; 0x17
    2f32:	10 8e       	std	Z+24, r1	; 0x18
    2f34:	44 c0       	rjmp	.+136    	;  0x2fbe
    2f36:	d7 01       	movw	r26, r14
    2f38:	14 96       	adiw	r26, 0x04	; 4
    2f3a:	4d 91       	ld	r20, X+
    2f3c:	5d 91       	ld	r21, X+
    2f3e:	6d 91       	ld	r22, X+
    2f40:	7c 91       	ld	r23, X
    2f42:	17 97       	sbiw	r26, 0x07	; 7
    2f44:	9e 01       	movw	r18, r28
    2f46:	2f 5f       	subi	r18, 0xFF	; 255
    2f48:	3f 4f       	sbci	r19, 0xFF	; 255
    2f4a:	0e 94 1e 21 	call	0x423c	;  0x423c
    2f4e:	88 23       	and	r24, r24
    2f50:	09 f4       	brne	.+2      	;  0x2f54
    2f52:	4f c0       	rjmp	.+158    	;  0x2ff2
    2f54:	d7 01       	movw	r26, r14
    2f56:	59 96       	adiw	r26, 0x19	; 25
    2f58:	ed 91       	ld	r30, X+
    2f5a:	fc 91       	ld	r31, X
    2f5c:	5a 97       	sbiw	r26, 0x1a	; 26
    2f5e:	49 81       	ldd	r20, Y+1	; 0x01
    2f60:	5a 81       	ldd	r21, Y+2	; 0x02
    2f62:	6b 81       	ldd	r22, Y+3	; 0x03
    2f64:	7c 81       	ldd	r23, Y+4	; 0x04
    2f66:	87 89       	ldd	r24, Z+23	; 0x17
    2f68:	80 31       	cpi	r24, 0x10	; 16
    2f6a:	49 f4       	brne	.+18     	;  0x2f7e
    2f6c:	48 3f       	cpi	r20, 0xF8	; 248
    2f6e:	bf ef       	ldi	r27, 0xFF	; 255
    2f70:	5b 07       	cpc	r21, r27
    2f72:	b0 e0       	ldi	r27, 0x00	; 0
    2f74:	6b 07       	cpc	r22, r27
    2f76:	b0 e0       	ldi	r27, 0x00	; 0
    2f78:	7b 07       	cpc	r23, r27
    2f7a:	48 f0       	brcs	.+18     	;  0x2f8e
    2f7c:	20 c0       	rjmp	.+64     	;  0x2fbe
    2f7e:	48 3f       	cpi	r20, 0xF8	; 248
    2f80:	8f ef       	ldi	r24, 0xFF	; 255
    2f82:	58 07       	cpc	r21, r24
    2f84:	8f ef       	ldi	r24, 0xFF	; 255
    2f86:	68 07       	cpc	r22, r24
    2f88:	8f e0       	ldi	r24, 0x0F	; 15
    2f8a:	78 07       	cpc	r23, r24
    2f8c:	c0 f4       	brcc	.+48     	;  0x2fbe
    2f8e:	cf 01       	movw	r24, r30
    2f90:	0e 94 94 21 	call	0x4328	;  0x4328
    2f94:	88 23       	and	r24, r24
    2f96:	69 f1       	breq	.+90     	;  0x2ff2
    2f98:	d7 01       	movw	r26, r14
    2f9a:	14 96       	adiw	r26, 0x04	; 4
    2f9c:	4d 91       	ld	r20, X+
    2f9e:	5d 91       	ld	r21, X+
    2fa0:	6d 91       	ld	r22, X+
    2fa2:	7c 91       	ld	r23, X
    2fa4:	17 97       	sbiw	r26, 0x07	; 7
    2fa6:	59 96       	adiw	r26, 0x19	; 25
    2fa8:	8d 91       	ld	r24, X+
    2faa:	9c 91       	ld	r25, X
    2fac:	5a 97       	sbiw	r26, 0x1a	; 26
    2fae:	0f ef       	ldi	r16, 0xFF	; 255
    2fb0:	1f ef       	ldi	r17, 0xFF	; 255
    2fb2:	2f ef       	ldi	r18, 0xFF	; 255
    2fb4:	3f e0       	ldi	r19, 0x0F	; 15
    2fb6:	0e 94 97 20 	call	0x412e	;  0x412e
    2fba:	88 23       	and	r24, r24
    2fbc:	d1 f0       	breq	.+52     	;  0x2ff2
    2fbe:	f7 01       	movw	r30, r14
    2fc0:	a1 8a       	std	Z+17, r10	; 0x11
    2fc2:	b2 8a       	std	Z+18, r11	; 0x12
    2fc4:	c3 8a       	std	Z+19, r12	; 0x13
    2fc6:	d4 8a       	std	Z+20, r13	; 0x14
    2fc8:	81 81       	ldd	r24, Z+1	; 0x01
    2fca:	80 68       	ori	r24, 0x80	; 128
    2fcc:	81 83       	std	Z+1, r24	; 0x01
    2fce:	c7 01       	movw	r24, r14
    2fd0:	0e 94 ea 16 	call	0x2dd4	;  0x2dd4
    2fd4:	88 23       	and	r24, r24
    2fd6:	69 f0       	breq	.+26     	;  0x2ff2
    2fd8:	b6 01       	movw	r22, r12
    2fda:	a5 01       	movw	r20, r10
    2fdc:	6a 14       	cp	r6, r10
    2fde:	7b 04       	cpc	r7, r11
    2fe0:	8c 04       	cpc	r8, r12
    2fe2:	9d 04       	cpc	r9, r13
    2fe4:	10 f4       	brcc	.+4      	;  0x2fea
    2fe6:	b4 01       	movw	r22, r8
    2fe8:	a3 01       	movw	r20, r6
    2fea:	c7 01       	movw	r24, r14
    2fec:	0e 94 20 16 	call	0x2c40	;  0x2c40
    2ff0:	01 c0       	rjmp	.+2      	;  0x2ff4
    2ff2:	80 e0       	ldi	r24, 0x00	; 0
    2ff4:	0f 90       	pop	r0
    2ff6:	0f 90       	pop	r0
    2ff8:	0f 90       	pop	r0
    2ffa:	0f 90       	pop	r0
    2ffc:	cf 91       	pop	r28
    2ffe:	df 91       	pop	r29
    3000:	1f 91       	pop	r17
    3002:	0f 91       	pop	r16
    3004:	ff 90       	pop	r15
    3006:	ef 90       	pop	r14
    3008:	df 90       	pop	r13
    300a:	cf 90       	pop	r12
    300c:	bf 90       	pop	r11
    300e:	af 90       	pop	r10
    3010:	9f 90       	pop	r9
    3012:	8f 90       	pop	r8
    3014:	7f 90       	pop	r7
    3016:	6f 90       	pop	r6
    3018:	08 95       	ret
    301a:	f7 01       	movw	r30, r14
    301c:	81 89       	ldd	r24, Z+17	; 0x11
    301e:	92 89       	ldd	r25, Z+18	; 0x12
    3020:	a3 89       	ldd	r26, Z+19	; 0x13
    3022:	b4 89       	ldd	r27, Z+20	; 0x14
    3024:	84 17       	cp	r24, r20
    3026:	95 07       	cpc	r25, r21
    3028:	a6 07       	cpc	r26, r22
    302a:	b7 07       	cpc	r27, r23
    302c:	08 f0       	brcs	.+2      	;  0x3030
    302e:	55 cf       	rjmp	.-342    	;  0x2eda
    3030:	e0 cf       	rjmp	.-64     	;  0x2ff2
    3032:	2f 92       	push	r2
    3034:	3f 92       	push	r3
    3036:	4f 92       	push	r4
    3038:	5f 92       	push	r5
    303a:	6f 92       	push	r6
    303c:	7f 92       	push	r7
    303e:	8f 92       	push	r8
    3040:	9f 92       	push	r9
    3042:	af 92       	push	r10
    3044:	bf 92       	push	r11
    3046:	cf 92       	push	r12
    3048:	df 92       	push	r13
    304a:	ef 92       	push	r14
    304c:	ff 92       	push	r15
    304e:	0f 93       	push	r16
    3050:	1f 93       	push	r17
    3052:	cf 93       	push	r28
    3054:	df 93       	push	r29
    3056:	ec 01       	movw	r28, r24
    3058:	2a 01       	movw	r4, r20
    305a:	8b 81       	ldd	r24, Y+3	; 0x03
    305c:	88 23       	and	r24, r24
    305e:	09 f4       	brne	.+2      	;  0x3062
    3060:	b6 c0       	rjmp	.+364    	;  0x31ce
    3062:	89 81       	ldd	r24, Y+1	; 0x01
    3064:	80 ff       	sbrs	r24, 0
    3066:	b3 c0       	rjmp	.+358    	;  0x31ce
    3068:	c8 c0       	rjmp	.+400    	;  0x31fa
    306a:	25 01       	movw	r4, r10
    306c:	4e 18       	sub	r4, r14
    306e:	5f 08       	sbc	r5, r15
    3070:	3b 01       	movw	r6, r22
    3072:	74 e0       	ldi	r23, 0x04	; 4
    3074:	27 2e       	mov	r2, r23
    3076:	31 2c       	mov	r3, r1
    3078:	2c 0e       	add	r2, r28
    307a:	3d 1e       	adc	r3, r29
    307c:	42 01       	movw	r8, r4
    307e:	a1 c0       	rjmp	.+322    	;  0x31c2
    3080:	28 85       	ldd	r18, Y+8	; 0x08
    3082:	39 85       	ldd	r19, Y+9	; 0x09
    3084:	4a 85       	ldd	r20, Y+10	; 0x0a
    3086:	5b 85       	ldd	r21, Y+11	; 0x0b
    3088:	6f ef       	ldi	r22, 0xFF	; 255
    308a:	a6 2e       	mov	r10, r22
    308c:	61 e0       	ldi	r22, 0x01	; 1
    308e:	b6 2e       	mov	r11, r22
    3090:	a2 22       	and	r10, r18
    3092:	b3 22       	and	r11, r19
    3094:	8b 81       	ldd	r24, Y+3	; 0x03
    3096:	79 01       	movw	r14, r18
    3098:	8a 01       	movw	r16, r20
    309a:	99 e0       	ldi	r25, 0x09	; 9
    309c:	16 95       	lsr	r17
    309e:	07 95       	ror	r16
    30a0:	f7 94       	ror	r15
    30a2:	e7 94       	ror	r14
    30a4:	9a 95       	dec	r25
    30a6:	d1 f7       	brne	.-12     	;  0x309c
    30a8:	e9 8d       	ldd	r30, Y+25	; 0x19
    30aa:	fa 8d       	ldd	r31, Y+26	; 0x1a
    30ac:	82 30       	cpi	r24, 0x02	; 2
    30ae:	49 f4       	brne	.+18     	;  0x30c2
    30b0:	42 8d       	ldd	r20, Z+26	; 0x1a
    30b2:	53 8d       	ldd	r21, Z+27	; 0x1b
    30b4:	64 8d       	ldd	r22, Z+28	; 0x1c
    30b6:	75 8d       	ldd	r23, Z+29	; 0x1d
    30b8:	4e 0d       	add	r20, r14
    30ba:	5f 1d       	adc	r21, r15
    30bc:	60 1f       	adc	r22, r16
    30be:	71 1f       	adc	r23, r17
    30c0:	3f c0       	rjmp	.+126    	;  0x3140
    30c2:	d4 80       	ldd	r13, Z+4	; 0x04
    30c4:	da 94       	dec	r13
    30c6:	de 20       	and	r13, r14
    30c8:	a1 14       	cp	r10, r1
    30ca:	b1 04       	cpc	r11, r1
    30cc:	d9 f4       	brne	.+54     	;  0x3104
    30ce:	dd 20       	and	r13, r13
    30d0:	c9 f4       	brne	.+50     	;  0x3104
    30d2:	21 15       	cp	r18, r1
    30d4:	31 05       	cpc	r19, r1
    30d6:	41 05       	cpc	r20, r1
    30d8:	51 05       	cpc	r21, r1
    30da:	49 f4       	brne	.+18     	;  0x30ee
    30dc:	8d 89       	ldd	r24, Y+21	; 0x15
    30de:	9e 89       	ldd	r25, Y+22	; 0x16
    30e0:	af 89       	ldd	r26, Y+23	; 0x17
    30e2:	b8 8d       	ldd	r27, Y+24	; 0x18
    30e4:	8c 83       	std	Y+4, r24	; 0x04
    30e6:	9d 83       	std	Y+5, r25	; 0x05
    30e8:	ae 83       	std	Y+6, r26	; 0x06
    30ea:	bf 83       	std	Y+7, r27	; 0x07
    30ec:	0b c0       	rjmp	.+22     	;  0x3104
    30ee:	4c 81       	ldd	r20, Y+4	; 0x04
    30f0:	5d 81       	ldd	r21, Y+5	; 0x05
    30f2:	6e 81       	ldd	r22, Y+6	; 0x06
    30f4:	7f 81       	ldd	r23, Y+7	; 0x07
    30f6:	cf 01       	movw	r24, r30
    30f8:	91 01       	movw	r18, r2
    30fa:	0e 94 1e 21 	call	0x423c	;  0x423c
    30fe:	88 23       	and	r24, r24
    3100:	09 f4       	brne	.+2      	;  0x3104
    3102:	65 c0       	rjmp	.+202    	;  0x31ce
    3104:	e9 8d       	ldd	r30, Y+25	; 0x19
    3106:	fa 8d       	ldd	r31, Y+26	; 0x1a
    3108:	4c 81       	ldd	r20, Y+4	; 0x04
    310a:	5d 81       	ldd	r21, Y+5	; 0x05
    310c:	6e 81       	ldd	r22, Y+6	; 0x06
    310e:	7f 81       	ldd	r23, Y+7	; 0x07
    3110:	42 50       	subi	r20, 0x02	; 2
    3112:	50 40       	sbci	r21, 0x00	; 0
    3114:	60 40       	sbci	r22, 0x00	; 0
    3116:	70 40       	sbci	r23, 0x00	; 0
    3118:	05 84       	ldd	r0, Z+13	; 0x0d
    311a:	04 c0       	rjmp	.+8      	;  0x3124
    311c:	44 0f       	add	r20, r20
    311e:	55 1f       	adc	r21, r21
    3120:	66 1f       	adc	r22, r22
    3122:	77 1f       	adc	r23, r23
    3124:	0a 94       	dec	r0
    3126:	d2 f7       	brpl	.-12     	;  0x311c
    3128:	86 85       	ldd	r24, Z+14	; 0x0e
    312a:	97 85       	ldd	r25, Z+15	; 0x0f
    312c:	a0 89       	ldd	r26, Z+16	; 0x10
    312e:	b1 89       	ldd	r27, Z+17	; 0x11
    3130:	48 0f       	add	r20, r24
    3132:	59 1f       	adc	r21, r25
    3134:	6a 1f       	adc	r22, r26
    3136:	7b 1f       	adc	r23, r27
    3138:	4d 0d       	add	r20, r13
    313a:	51 1d       	adc	r21, r1
    313c:	61 1d       	adc	r22, r1
    313e:	71 1d       	adc	r23, r1
    3140:	80 e0       	ldi	r24, 0x00	; 0
    3142:	92 e0       	ldi	r25, 0x02	; 2
    3144:	8a 19       	sub	r24, r10
    3146:	9b 09       	sbc	r25, r11
    3148:	84 01       	movw	r16, r8
    314a:	88 15       	cp	r24, r8
    314c:	99 05       	cpc	r25, r9
    314e:	08 f4       	brcc	.+2      	;  0x3152
    3150:	8c 01       	movw	r16, r24
    3152:	82 e0       	ldi	r24, 0x02	; 2
    3154:	00 30       	cpi	r16, 0x00	; 0
    3156:	18 07       	cpc	r17, r24
    3158:	09 f0       	breq	.+2      	;  0x315c
    315a:	67 c0       	rjmp	.+206    	;  0x322a
    315c:	80 91 4a 04 	lds	r24, 0x044A
    3160:	90 91 4b 04 	lds	r25, 0x044B
    3164:	a0 91 4c 04 	lds	r26, 0x044C
    3168:	b0 91 4d 04 	lds	r27, 0x044D
    316c:	48 17       	cp	r20, r24
    316e:	59 07       	cpc	r21, r25
    3170:	6a 07       	cpc	r22, r26
    3172:	7b 07       	cpc	r23, r27
    3174:	09 f4       	brne	.+2      	;  0x3178
    3176:	59 c0       	rjmp	.+178    	;  0x322a
    3178:	80 91 4e 06 	lds	r24, 0x064E
    317c:	90 91 4f 06 	lds	r25, 0x064F
    3180:	93 01       	movw	r18, r6
    3182:	0e 94 ca 14 	call	0x2994	;  0x2994
    3186:	88 23       	and	r24, r24
    3188:	49 f4       	brne	.+18     	;  0x319c
    318a:	21 c0       	rjmp	.+66     	;  0x31ce
    318c:	95 01       	movw	r18, r10
    318e:	22 5b       	subi	r18, 0xB2	; 178
    3190:	3b 4f       	sbci	r19, 0xFB	; 251
    3192:	c3 01       	movw	r24, r6
    3194:	b9 01       	movw	r22, r18
    3196:	a8 01       	movw	r20, r16
    3198:	0e 94 18 31 	call	0x6230	;  0x6230
    319c:	60 0e       	add	r6, r16
    319e:	71 1e       	adc	r7, r17
    31a0:	98 01       	movw	r18, r16
    31a2:	40 e0       	ldi	r20, 0x00	; 0
    31a4:	50 e0       	ldi	r21, 0x00	; 0
    31a6:	88 85       	ldd	r24, Y+8	; 0x08
    31a8:	99 85       	ldd	r25, Y+9	; 0x09
    31aa:	aa 85       	ldd	r26, Y+10	; 0x0a
    31ac:	bb 85       	ldd	r27, Y+11	; 0x0b
    31ae:	82 0f       	add	r24, r18
    31b0:	93 1f       	adc	r25, r19
    31b2:	a4 1f       	adc	r26, r20
    31b4:	b5 1f       	adc	r27, r21
    31b6:	88 87       	std	Y+8, r24	; 0x08
    31b8:	99 87       	std	Y+9, r25	; 0x09
    31ba:	aa 87       	std	Y+10, r26	; 0x0a
    31bc:	bb 87       	std	Y+11, r27	; 0x0b
    31be:	80 1a       	sub	r8, r16
    31c0:	91 0a       	sbc	r9, r17
    31c2:	81 14       	cp	r8, r1
    31c4:	91 04       	cpc	r9, r1
    31c6:	09 f0       	breq	.+2      	;  0x31ca
    31c8:	5b cf       	rjmp	.-330    	;  0x3080
    31ca:	a2 01       	movw	r20, r4
    31cc:	02 c0       	rjmp	.+4      	;  0x31d2
    31ce:	4f ef       	ldi	r20, 0xFF	; 255
    31d0:	5f ef       	ldi	r21, 0xFF	; 255
    31d2:	ca 01       	movw	r24, r20
    31d4:	df 91       	pop	r29
    31d6:	cf 91       	pop	r28
    31d8:	1f 91       	pop	r17
    31da:	0f 91       	pop	r16
    31dc:	ff 90       	pop	r15
    31de:	ef 90       	pop	r14
    31e0:	df 90       	pop	r13
    31e2:	cf 90       	pop	r12
    31e4:	bf 90       	pop	r11
    31e6:	af 90       	pop	r10
    31e8:	9f 90       	pop	r9
    31ea:	8f 90       	pop	r8
    31ec:	7f 90       	pop	r7
    31ee:	6f 90       	pop	r6
    31f0:	5f 90       	pop	r5
    31f2:	4f 90       	pop	r4
    31f4:	3f 90       	pop	r3
    31f6:	2f 90       	pop	r2
    31f8:	08 95       	ret
    31fa:	a9 88       	ldd	r10, Y+17	; 0x11
    31fc:	ba 88       	ldd	r11, Y+18	; 0x12
    31fe:	cb 88       	ldd	r12, Y+19	; 0x13
    3200:	dc 88       	ldd	r13, Y+20	; 0x14
    3202:	e8 84       	ldd	r14, Y+8	; 0x08
    3204:	f9 84       	ldd	r15, Y+9	; 0x09
    3206:	0a 85       	ldd	r16, Y+10	; 0x0a
    3208:	1b 85       	ldd	r17, Y+11	; 0x0b
    320a:	9a 01       	movw	r18, r20
    320c:	40 e0       	ldi	r20, 0x00	; 0
    320e:	50 e0       	ldi	r21, 0x00	; 0
    3210:	d6 01       	movw	r26, r12
    3212:	c5 01       	movw	r24, r10
    3214:	8e 19       	sub	r24, r14
    3216:	9f 09       	sbc	r25, r15
    3218:	a0 0b       	sbc	r26, r16
    321a:	b1 0b       	sbc	r27, r17
    321c:	28 17       	cp	r18, r24
    321e:	39 07       	cpc	r19, r25
    3220:	4a 07       	cpc	r20, r26
    3222:	5b 07       	cpc	r21, r27
    3224:	08 f0       	brcs	.+2      	;  0x3228
    3226:	21 cf       	rjmp	.-446    	;  0x306a
    3228:	23 cf       	rjmp	.-442    	;  0x3070
    322a:	cb 01       	movw	r24, r22
    322c:	ba 01       	movw	r22, r20
    322e:	40 e0       	ldi	r20, 0x00	; 0
    3230:	0e 94 f4 1e 	call	0x3de8	;  0x3de8
    3234:	88 23       	and	r24, r24
    3236:	09 f0       	breq	.+2      	;  0x323a
    3238:	a9 cf       	rjmp	.-174    	;  0x318c
    323a:	c9 cf       	rjmp	.-110    	;  0x31ce
    323c:	df 93       	push	r29
    323e:	cf 93       	push	r28
    3240:	0f 92       	push	r0
    3242:	cd b7       	in	r28, 0x3d	; 61
    3244:	de b7       	in	r29, 0x3e	; 62
    3246:	be 01       	movw	r22, r28
    3248:	6f 5f       	subi	r22, 0xFF	; 255
    324a:	7f 4f       	sbci	r23, 0xFF	; 255
    324c:	41 e0       	ldi	r20, 0x01	; 1
    324e:	50 e0       	ldi	r21, 0x00	; 0
    3250:	0e 94 19 18 	call	0x3032	;  0x3032
    3254:	01 97       	sbiw	r24, 0x01	; 1
    3256:	19 f0       	breq	.+6      	;  0x325e
    3258:	2f ef       	ldi	r18, 0xFF	; 255
    325a:	3f ef       	ldi	r19, 0xFF	; 255
    325c:	03 c0       	rjmp	.+6      	;  0x3264
    325e:	89 81       	ldd	r24, Y+1	; 0x01
    3260:	28 2f       	mov	r18, r24
    3262:	30 e0       	ldi	r19, 0x00	; 0
    3264:	c9 01       	movw	r24, r18
    3266:	0f 90       	pop	r0
    3268:	cf 91       	pop	r28
    326a:	df 91       	pop	r29
    326c:	08 95       	ret
    326e:	ef 92       	push	r14
    3270:	ff 92       	push	r15
    3272:	0f 93       	push	r16
    3274:	1f 93       	push	r17
    3276:	cf 93       	push	r28
    3278:	df 93       	push	r29
    327a:	ec 01       	movw	r28, r24
    327c:	8b 81       	ldd	r24, Y+3	; 0x03
    327e:	82 30       	cpi	r24, 0x02	; 2
    3280:	38 f1       	brcs	.+78     	;  0x32d0
    3282:	e8 84       	ldd	r14, Y+8	; 0x08
    3284:	f9 84       	ldd	r15, Y+9	; 0x09
    3286:	0a 85       	ldd	r16, Y+10	; 0x0a
    3288:	1b 85       	ldd	r17, Y+11	; 0x0b
    328a:	ce 01       	movw	r24, r28
    328c:	0e 94 1e 19 	call	0x323c	;  0x323c
    3290:	97 fd       	sbrc	r25, 7
    3292:	1e c0       	rjmp	.+60     	;  0x32d0
    3294:	88 85       	ldd	r24, Y+8	; 0x08
    3296:	99 85       	ldd	r25, Y+9	; 0x09
    3298:	aa 85       	ldd	r26, Y+10	; 0x0a
    329a:	bb 85       	ldd	r27, Y+11	; 0x0b
    329c:	4f 96       	adiw	r24, 0x1f	; 31
    329e:	a1 1d       	adc	r26, r1
    32a0:	b1 1d       	adc	r27, r1
    32a2:	88 87       	std	Y+8, r24	; 0x08
    32a4:	99 87       	std	Y+9, r25	; 0x09
    32a6:	aa 87       	std	Y+10, r26	; 0x0a
    32a8:	bb 87       	std	Y+11, r27	; 0x0b
    32aa:	f5 e0       	ldi	r31, 0x05	; 5
    32ac:	16 95       	lsr	r17
    32ae:	07 95       	ror	r16
    32b0:	f7 94       	ror	r15
    32b2:	e7 94       	ror	r14
    32b4:	fa 95       	dec	r31
    32b6:	d1 f7       	brne	.-12     	;  0x32ac
    32b8:	2e 2d       	mov	r18, r14
    32ba:	30 e0       	ldi	r19, 0x00	; 0
    32bc:	2f 70       	andi	r18, 0x0F	; 15
    32be:	30 70       	andi	r19, 0x00	; 0
    32c0:	e5 e0       	ldi	r30, 0x05	; 5
    32c2:	22 0f       	add	r18, r18
    32c4:	33 1f       	adc	r19, r19
    32c6:	ea 95       	dec	r30
    32c8:	e1 f7       	brne	.-8      	;  0x32c2
    32ca:	22 5b       	subi	r18, 0xB2	; 178
    32cc:	3b 4f       	sbci	r19, 0xFB	; 251
    32ce:	02 c0       	rjmp	.+4      	;  0x32d4
    32d0:	20 e0       	ldi	r18, 0x00	; 0
    32d2:	30 e0       	ldi	r19, 0x00	; 0
    32d4:	c9 01       	movw	r24, r18
    32d6:	df 91       	pop	r29
    32d8:	cf 91       	pop	r28
    32da:	1f 91       	pop	r17
    32dc:	0f 91       	pop	r16
    32de:	ff 90       	pop	r15
    32e0:	ef 90       	pop	r14
    32e2:	08 95       	ret
    32e4:	0f 93       	push	r16
    32e6:	1f 93       	push	r17
    32e8:	cf 93       	push	r28
    32ea:	df 93       	push	r29
    32ec:	ec 01       	movw	r28, r24
    32ee:	8b 01       	movw	r16, r22
    32f0:	8b 81       	ldd	r24, Y+3	; 0x03
    32f2:	88 23       	and	r24, r24
    32f4:	09 f0       	breq	.+2      	;  0x32f8
    32f6:	40 c0       	rjmp	.+128    	;  0x3378
    32f8:	fb 01       	movw	r30, r22
    32fa:	87 89       	ldd	r24, Z+23	; 0x17
    32fc:	80 31       	cpi	r24, 0x10	; 16
    32fe:	09 f0       	breq	.+2      	;  0x3302
    3300:	41 c0       	rjmp	.+130    	;  0x3384
    3302:	82 e0       	ldi	r24, 0x02	; 2
    3304:	8b 83       	std	Y+3, r24	; 0x03
    3306:	1d 8a       	std	Y+21, r1	; 0x15
    3308:	1e 8a       	std	Y+22, r1	; 0x16
    330a:	1f 8a       	std	Y+23, r1	; 0x17
    330c:	18 8e       	std	Y+24, r1	; 0x18
    330e:	80 8d       	ldd	r24, Z+24	; 0x18
    3310:	91 8d       	ldd	r25, Z+25	; 0x19
    3312:	a0 e0       	ldi	r26, 0x00	; 0
    3314:	b0 e0       	ldi	r27, 0x00	; 0
    3316:	25 e0       	ldi	r18, 0x05	; 5
    3318:	88 0f       	add	r24, r24
    331a:	99 1f       	adc	r25, r25
    331c:	aa 1f       	adc	r26, r26
    331e:	bb 1f       	adc	r27, r27
    3320:	2a 95       	dec	r18
    3322:	d1 f7       	brne	.-12     	;  0x3318
    3324:	89 8b       	std	Y+17, r24	; 0x11
    3326:	9a 8b       	std	Y+18, r25	; 0x12
    3328:	ab 8b       	std	Y+19, r26	; 0x13
    332a:	bc 8b       	std	Y+20, r27	; 0x14
    332c:	13 c0       	rjmp	.+38     	;  0x3354
    332e:	83 e0       	ldi	r24, 0x03	; 3
    3330:	8b 83       	std	Y+3, r24	; 0x03
    3332:	f8 01       	movw	r30, r16
    3334:	42 8d       	ldd	r20, Z+26	; 0x1a
    3336:	53 8d       	ldd	r21, Z+27	; 0x1b
    3338:	64 8d       	ldd	r22, Z+28	; 0x1c
    333a:	75 8d       	ldd	r23, Z+29	; 0x1d
    333c:	4d 8b       	std	Y+21, r20	; 0x15
    333e:	5e 8b       	std	Y+22, r21	; 0x16
    3340:	6f 8b       	std	Y+23, r22	; 0x17
    3342:	78 8f       	std	Y+24, r23	; 0x18
    3344:	9e 01       	movw	r18, r28
    3346:	2f 5e       	subi	r18, 0xEF	; 239
    3348:	3f 4f       	sbci	r19, 0xFF	; 255
    334a:	c8 01       	movw	r24, r16
    334c:	0e 94 f2 21 	call	0x43e4	;  0x43e4
    3350:	88 23       	and	r24, r24
    3352:	91 f0       	breq	.+36     	;  0x3378
    3354:	1a 8f       	std	Y+26, r17	; 0x1a
    3356:	09 8f       	std	Y+25, r16	; 0x19
    3358:	81 e0       	ldi	r24, 0x01	; 1
    335a:	89 83       	std	Y+1, r24	; 0x01
    335c:	1c 82       	std	Y+4, r1	; 0x04
    335e:	1d 82       	std	Y+5, r1	; 0x05
    3360:	1e 82       	std	Y+6, r1	; 0x06
    3362:	1f 82       	std	Y+7, r1	; 0x07
    3364:	18 86       	std	Y+8, r1	; 0x08
    3366:	19 86       	std	Y+9, r1	; 0x09
    3368:	1a 86       	std	Y+10, r1	; 0x0a
    336a:	1b 86       	std	Y+11, r1	; 0x0b
    336c:	1c 86       	std	Y+12, r1	; 0x0c
    336e:	1d 86       	std	Y+13, r1	; 0x0d
    3370:	1e 86       	std	Y+14, r1	; 0x0e
    3372:	1f 86       	std	Y+15, r1	; 0x0f
    3374:	18 8a       	std	Y+16, r1	; 0x10
    3376:	01 c0       	rjmp	.+2      	;  0x337a
    3378:	80 e0       	ldi	r24, 0x00	; 0
    337a:	df 91       	pop	r29
    337c:	cf 91       	pop	r28
    337e:	1f 91       	pop	r17
    3380:	0f 91       	pop	r16
    3382:	08 95       	ret
    3384:	80 32       	cpi	r24, 0x20	; 32
    3386:	c1 f7       	brne	.-16     	;  0x3378
    3388:	d2 cf       	rjmp	.-92     	;  0x332e
    338a:	1f 93       	push	r17
    338c:	cf 93       	push	r28
    338e:	df 93       	push	r29
    3390:	ec 01       	movw	r28, r24
    3392:	14 2f       	mov	r17, r20
    3394:	26 2f       	mov	r18, r22
    3396:	30 e0       	ldi	r19, 0x00	; 0
    3398:	f9 01       	movw	r30, r18
    339a:	55 e0       	ldi	r21, 0x05	; 5
    339c:	ee 0f       	add	r30, r30
    339e:	ff 1f       	adc	r31, r31
    33a0:	5a 95       	dec	r21
    33a2:	e1 f7       	brne	.-8      	;  0x339c
    33a4:	e2 5b       	subi	r30, 0xB2	; 178
    33a6:	fb 4f       	sbci	r31, 0xFB	; 251
    33a8:	83 85       	ldd	r24, Z+11	; 0x0b
    33aa:	81 71       	andi	r24, 0x11	; 17
    33ac:	21 f0       	breq	.+8      	;  0x33b6
    33ae:	84 2f       	mov	r24, r20
    33b0:	82 71       	andi	r24, 0x12	; 18
    33b2:	09 f0       	breq	.+2      	;  0x33b6
    33b4:	69 c0       	rjmp	.+210    	;  0x3488
    33b6:	80 91 4a 04 	lds	r24, 0x044A
    33ba:	90 91 4b 04 	lds	r25, 0x044B
    33be:	a0 91 4c 04 	lds	r26, 0x044C
    33c2:	b0 91 4d 04 	lds	r27, 0x044D
    33c6:	8c 87       	std	Y+12, r24	; 0x0c
    33c8:	9d 87       	std	Y+13, r25	; 0x0d
    33ca:	ae 87       	std	Y+14, r26	; 0x0e
    33cc:	bf 87       	std	Y+15, r27	; 0x0f
    33ce:	68 8b       	std	Y+16, r22	; 0x10
    33d0:	f9 01       	movw	r30, r18
    33d2:	45 e0       	ldi	r20, 0x05	; 5
    33d4:	ee 0f       	add	r30, r30
    33d6:	ff 1f       	adc	r31, r31
    33d8:	4a 95       	dec	r20
    33da:	e1 f7       	brne	.-8      	;  0x33d4
    33dc:	e2 5b       	subi	r30, 0xB2	; 178
    33de:	fb 4f       	sbci	r31, 0xFB	; 251
    33e0:	84 89       	ldd	r24, Z+20	; 0x14
    33e2:	95 89       	ldd	r25, Z+21	; 0x15
    33e4:	a0 e0       	ldi	r26, 0x00	; 0
    33e6:	b0 e0       	ldi	r27, 0x00	; 0
    33e8:	dc 01       	movw	r26, r24
    33ea:	99 27       	eor	r25, r25
    33ec:	88 27       	eor	r24, r24
    33ee:	8d 8b       	std	Y+21, r24	; 0x15
    33f0:	9e 8b       	std	Y+22, r25	; 0x16
    33f2:	af 8b       	std	Y+23, r26	; 0x17
    33f4:	b8 8f       	std	Y+24, r27	; 0x18
    33f6:	22 8d       	ldd	r18, Z+26	; 0x1a
    33f8:	33 8d       	ldd	r19, Z+27	; 0x1b
    33fa:	a9 01       	movw	r20, r18
    33fc:	60 e0       	ldi	r22, 0x00	; 0
    33fe:	70 e0       	ldi	r23, 0x00	; 0
    3400:	48 2b       	or	r20, r24
    3402:	59 2b       	or	r21, r25
    3404:	6a 2b       	or	r22, r26
    3406:	7b 2b       	or	r23, r27
    3408:	4d 8b       	std	Y+21, r20	; 0x15
    340a:	5e 8b       	std	Y+22, r21	; 0x16
    340c:	6f 8b       	std	Y+23, r22	; 0x17
    340e:	78 8f       	std	Y+24, r23	; 0x18
    3410:	83 85       	ldd	r24, Z+11	; 0x0b
    3412:	90 e0       	ldi	r25, 0x00	; 0
    3414:	88 71       	andi	r24, 0x18	; 24
    3416:	90 70       	andi	r25, 0x00	; 0
    3418:	00 97       	sbiw	r24, 0x00	; 0
    341a:	51 f4       	brne	.+20     	;  0x3430
    341c:	84 8d       	ldd	r24, Z+28	; 0x1c
    341e:	95 8d       	ldd	r25, Z+29	; 0x1d
    3420:	a6 8d       	ldd	r26, Z+30	; 0x1e
    3422:	b7 8d       	ldd	r27, Z+31	; 0x1f
    3424:	89 8b       	std	Y+17, r24	; 0x11
    3426:	9a 8b       	std	Y+18, r25	; 0x12
    3428:	ab 8b       	std	Y+19, r26	; 0x13
    342a:	bc 8b       	std	Y+20, r27	; 0x14
    342c:	81 e0       	ldi	r24, 0x01	; 1
    342e:	0c c0       	rjmp	.+24     	;  0x3448
    3430:	40 97       	sbiw	r24, 0x10	; 16
    3432:	51 f5       	brne	.+84     	;  0x3488
    3434:	9e 01       	movw	r18, r28
    3436:	2f 5e       	subi	r18, 0xEF	; 239
    3438:	3f 4f       	sbci	r19, 0xFF	; 255
    343a:	89 8d       	ldd	r24, Y+25	; 0x19
    343c:	9a 8d       	ldd	r25, Y+26	; 0x1a
    343e:	0e 94 f2 21 	call	0x43e4	;  0x43e4
    3442:	88 23       	and	r24, r24
    3444:	09 f1       	breq	.+66     	;  0x3488
    3446:	84 e0       	ldi	r24, 0x04	; 4
    3448:	8b 83       	std	Y+3, r24	; 0x03
    344a:	81 2f       	mov	r24, r17
    344c:	8f 70       	andi	r24, 0x0F	; 15
    344e:	89 83       	std	Y+1, r24	; 0x01
    3450:	1c 82       	std	Y+4, r1	; 0x04
    3452:	1d 82       	std	Y+5, r1	; 0x05
    3454:	1e 82       	std	Y+6, r1	; 0x06
    3456:	1f 82       	std	Y+7, r1	; 0x07
    3458:	18 86       	std	Y+8, r1	; 0x08
    345a:	19 86       	std	Y+9, r1	; 0x09
    345c:	1a 86       	std	Y+10, r1	; 0x0a
    345e:	1b 86       	std	Y+11, r1	; 0x0b
    3460:	14 ff       	sbrs	r17, 4
    3462:	18 c0       	rjmp	.+48     	;  0x3494
    3464:	ce 01       	movw	r24, r28
    3466:	40 e0       	ldi	r20, 0x00	; 0
    3468:	50 e0       	ldi	r21, 0x00	; 0
    346a:	60 e0       	ldi	r22, 0x00	; 0
    346c:	70 e0       	ldi	r23, 0x00	; 0
    346e:	0e 94 4c 17 	call	0x2e98	;  0x2e98
    3472:	88 23       	and	r24, r24
    3474:	79 f4       	brne	.+30     	;  0x3494
    3476:	0a c0       	rjmp	.+20     	;  0x348c
    3478:	49 89       	ldd	r20, Y+17	; 0x11
    347a:	5a 89       	ldd	r21, Y+18	; 0x12
    347c:	6b 89       	ldd	r22, Y+19	; 0x13
    347e:	7c 89       	ldd	r23, Y+20	; 0x14
    3480:	ce 01       	movw	r24, r28
    3482:	0e 94 20 16 	call	0x2c40	;  0x2c40
    3486:	02 c0       	rjmp	.+4      	;  0x348c
    3488:	1b 82       	std	Y+3, r1	; 0x03
    348a:	80 e0       	ldi	r24, 0x00	; 0
    348c:	df 91       	pop	r29
    348e:	cf 91       	pop	r28
    3490:	1f 91       	pop	r17
    3492:	08 95       	ret
    3494:	15 fd       	sbrc	r17, 5
    3496:	f0 cf       	rjmp	.-32     	;  0x3478
    3498:	81 e0       	ldi	r24, 0x01	; 1
    349a:	f8 cf       	rjmp	.-16     	;  0x348c
    349c:	cf 93       	push	r28
    349e:	df 93       	push	r29
    34a0:	ec 01       	movw	r28, r24
    34a2:	9c 01       	movw	r18, r24
    34a4:	2c 5f       	subi	r18, 0xFC	; 252
    34a6:	3f 4f       	sbci	r19, 0xFF	; 255
    34a8:	89 8d       	ldd	r24, Y+25	; 0x19
    34aa:	9a 8d       	ldd	r25, Y+26	; 0x1a
    34ac:	41 e0       	ldi	r20, 0x01	; 1
    34ae:	50 e0       	ldi	r21, 0x00	; 0
    34b0:	60 e0       	ldi	r22, 0x00	; 0
    34b2:	70 e0       	ldi	r23, 0x00	; 0
    34b4:	0e 94 5e 22 	call	0x44bc	;  0x44bc
    34b8:	88 23       	and	r24, r24
    34ba:	a1 f0       	breq	.+40     	;  0x34e4
    34bc:	8d 89       	ldd	r24, Y+21	; 0x15
    34be:	9e 89       	ldd	r25, Y+22	; 0x16
    34c0:	af 89       	ldd	r26, Y+23	; 0x17
    34c2:	b8 8d       	ldd	r27, Y+24	; 0x18
    34c4:	00 97       	sbiw	r24, 0x00	; 0
    34c6:	a1 05       	cpc	r26, r1
    34c8:	b1 05       	cpc	r27, r1
    34ca:	59 f4       	brne	.+22     	;  0x34e2
    34cc:	8c 81       	ldd	r24, Y+4	; 0x04
    34ce:	9d 81       	ldd	r25, Y+5	; 0x05
    34d0:	ae 81       	ldd	r26, Y+6	; 0x06
    34d2:	bf 81       	ldd	r27, Y+7	; 0x07
    34d4:	8d 8b       	std	Y+21, r24	; 0x15
    34d6:	9e 8b       	std	Y+22, r25	; 0x16
    34d8:	af 8b       	std	Y+23, r26	; 0x17
    34da:	b8 8f       	std	Y+24, r27	; 0x18
    34dc:	89 81       	ldd	r24, Y+1	; 0x01
    34de:	80 68       	ori	r24, 0x80	; 128
    34e0:	89 83       	std	Y+1, r24	; 0x01
    34e2:	81 e0       	ldi	r24, 0x01	; 1
    34e4:	df 91       	pop	r29
    34e6:	cf 91       	pop	r28
    34e8:	08 95       	ret
    34ea:	2f 92       	push	r2
    34ec:	3f 92       	push	r3
    34ee:	4f 92       	push	r4
    34f0:	5f 92       	push	r5
    34f2:	7f 92       	push	r7
    34f4:	8f 92       	push	r8
    34f6:	9f 92       	push	r9
    34f8:	af 92       	push	r10
    34fa:	bf 92       	push	r11
    34fc:	cf 92       	push	r12
    34fe:	df 92       	push	r13
    3500:	ef 92       	push	r14
    3502:	ff 92       	push	r15
    3504:	0f 93       	push	r16
    3506:	1f 93       	push	r17
    3508:	df 93       	push	r29
    350a:	cf 93       	push	r28
    350c:	00 d0       	rcall	.+0      	;  0x350e
    350e:	00 d0       	rcall	.+0      	;  0x3510
    3510:	00 d0       	rcall	.+0      	;  0x3512
    3512:	cd b7       	in	r28, 0x3d	; 61
    3514:	de b7       	in	r29, 0x3e	; 62
    3516:	6c 01       	movw	r12, r24
    3518:	16 2f       	mov	r17, r22
    351a:	07 2f       	mov	r16, r23
    351c:	5e 83       	std	Y+6, r21	; 0x06
    351e:	4d 83       	std	Y+5, r20	; 0x05
    3520:	dc 01       	movw	r26, r24
    3522:	13 96       	adiw	r26, 0x03	; 3
    3524:	8c 91       	ld	r24, X
    3526:	13 97       	sbiw	r26, 0x03	; 3
    3528:	81 30       	cpi	r24, 0x01	; 1
    352a:	09 f0       	breq	.+2      	;  0x352e
    352c:	6f c1       	rjmp	.+734    	;  0x380c
    352e:	11 96       	adiw	r26, 0x01	; 1
    3530:	8c 91       	ld	r24, X
    3532:	81 ff       	sbrs	r24, 1
    3534:	6b c1       	rjmp	.+726    	;  0x380c
    3536:	88 c1       	rjmp	.+784    	;  0x3848
    3538:	f6 01       	movw	r30, r12
    353a:	41 89       	ldd	r20, Z+17	; 0x11
    353c:	52 89       	ldd	r21, Z+18	; 0x12
    353e:	63 89       	ldd	r22, Z+19	; 0x13
    3540:	74 89       	ldd	r23, Z+20	; 0x14
    3542:	80 85       	ldd	r24, Z+8	; 0x08
    3544:	91 85       	ldd	r25, Z+9	; 0x09
    3546:	a2 85       	ldd	r26, Z+10	; 0x0a
    3548:	b3 85       	ldd	r27, Z+11	; 0x0b
    354a:	84 17       	cp	r24, r20
    354c:	95 07       	cpc	r25, r21
    354e:	a6 07       	cpc	r26, r22
    3550:	b7 07       	cpc	r27, r23
    3552:	31 f0       	breq	.+12     	;  0x3560
    3554:	c6 01       	movw	r24, r12
    3556:	0e 94 20 16 	call	0x2c40	;  0x2c40
    355a:	88 23       	and	r24, r24
    355c:	09 f4       	brne	.+2      	;  0x3560
    355e:	56 c1       	rjmp	.+684    	;  0x380c
    3560:	81 2f       	mov	r24, r17
    3562:	90 2f       	mov	r25, r16
    3564:	9c 01       	movw	r18, r24
    3566:	19 01       	movw	r2, r18
    3568:	4d 80       	ldd	r4, Y+5	; 0x05
    356a:	5e 80       	ldd	r5, Y+6	; 0x06
    356c:	13 c1       	rjmp	.+550    	;  0x3794
    356e:	d6 01       	movw	r26, r12
    3570:	59 96       	adiw	r26, 0x19	; 25
    3572:	ed 91       	ld	r30, X+
    3574:	fc 91       	ld	r31, X
    3576:	5a 97       	sbiw	r26, 0x1a	; 26
    3578:	da 01       	movw	r26, r20
    357a:	c9 01       	movw	r24, r18
    357c:	49 e0       	ldi	r20, 0x09	; 9
    357e:	b6 95       	lsr	r27
    3580:	a7 95       	ror	r26
    3582:	97 95       	ror	r25
    3584:	87 95       	ror	r24
    3586:	4a 95       	dec	r20
    3588:	d1 f7       	brne	.-12     	;  0x357e
    358a:	74 80       	ldd	r7, Z+4	; 0x04
    358c:	7a 94       	dec	r7
    358e:	78 22       	and	r7, r24
    3590:	8f ef       	ldi	r24, 0xFF	; 255
    3592:	88 2e       	mov	r8, r24
    3594:	81 e0       	ldi	r24, 0x01	; 1
    3596:	98 2e       	mov	r9, r24
    3598:	82 22       	and	r8, r18
    359a:	93 22       	and	r9, r19
    359c:	77 20       	and	r7, r7
    359e:	09 f0       	breq	.+2      	;  0x35a2
    35a0:	53 c0       	rjmp	.+166    	;  0x3648
    35a2:	81 14       	cp	r8, r1
    35a4:	91 04       	cpc	r9, r1
    35a6:	09 f0       	breq	.+2      	;  0x35aa
    35a8:	4f c0       	rjmp	.+158    	;  0x3648
    35aa:	d6 01       	movw	r26, r12
    35ac:	14 96       	adiw	r26, 0x04	; 4
    35ae:	4d 91       	ld	r20, X+
    35b0:	5d 91       	ld	r21, X+
    35b2:	6d 91       	ld	r22, X+
    35b4:	7c 91       	ld	r23, X
    35b6:	17 97       	sbiw	r26, 0x07	; 7
    35b8:	41 15       	cp	r20, r1
    35ba:	51 05       	cpc	r21, r1
    35bc:	61 05       	cpc	r22, r1
    35be:	71 05       	cpc	r23, r1
    35c0:	81 f4       	brne	.+32     	;  0x35e2
    35c2:	55 96       	adiw	r26, 0x15	; 21
    35c4:	8d 91       	ld	r24, X+
    35c6:	9d 91       	ld	r25, X+
    35c8:	0d 90       	ld	r0, X+
    35ca:	bc 91       	ld	r27, X
    35cc:	a0 2d       	mov	r26, r0
    35ce:	00 97       	sbiw	r24, 0x00	; 0
    35d0:	a1 05       	cpc	r26, r1
    35d2:	b1 05       	cpc	r27, r1
    35d4:	61 f1       	breq	.+88     	;  0x362e
    35d6:	f6 01       	movw	r30, r12
    35d8:	84 83       	std	Z+4, r24	; 0x04
    35da:	95 83       	std	Z+5, r25	; 0x05
    35dc:	a6 83       	std	Z+6, r26	; 0x06
    35de:	b7 83       	std	Z+7, r27	; 0x07
    35e0:	33 c0       	rjmp	.+102    	;  0x3648
    35e2:	cf 01       	movw	r24, r30
    35e4:	9e 01       	movw	r18, r28
    35e6:	2f 5f       	subi	r18, 0xFF	; 255
    35e8:	3f 4f       	sbci	r19, 0xFF	; 255
    35ea:	0e 94 1e 21 	call	0x423c	;  0x423c
    35ee:	88 23       	and	r24, r24
    35f0:	09 f4       	brne	.+2      	;  0x35f4
    35f2:	0c c1       	rjmp	.+536    	;  0x380c
    35f4:	29 81       	ldd	r18, Y+1	; 0x01
    35f6:	3a 81       	ldd	r19, Y+2	; 0x02
    35f8:	4b 81       	ldd	r20, Y+3	; 0x03
    35fa:	5c 81       	ldd	r21, Y+4	; 0x04
    35fc:	d6 01       	movw	r26, r12
    35fe:	59 96       	adiw	r26, 0x19	; 25
    3600:	ed 91       	ld	r30, X+
    3602:	fc 91       	ld	r31, X
    3604:	5a 97       	sbiw	r26, 0x1a	; 26
    3606:	87 89       	ldd	r24, Z+23	; 0x17
    3608:	80 31       	cpi	r24, 0x10	; 16
    360a:	49 f4       	brne	.+18     	;  0x361e
    360c:	28 3f       	cpi	r18, 0xF8	; 248
    360e:	bf ef       	ldi	r27, 0xFF	; 255
    3610:	3b 07       	cpc	r19, r27
    3612:	b0 e0       	ldi	r27, 0x00	; 0
    3614:	4b 07       	cpc	r20, r27
    3616:	b0 e0       	ldi	r27, 0x00	; 0
    3618:	5b 07       	cpc	r21, r27
    361a:	78 f0       	brcs	.+30     	;  0x363a
    361c:	08 c0       	rjmp	.+16     	;  0x362e
    361e:	28 3f       	cpi	r18, 0xF8	; 248
    3620:	ef ef       	ldi	r30, 0xFF	; 255
    3622:	3e 07       	cpc	r19, r30
    3624:	ef ef       	ldi	r30, 0xFF	; 255
    3626:	4e 07       	cpc	r20, r30
    3628:	ef e0       	ldi	r30, 0x0F	; 15
    362a:	5e 07       	cpc	r21, r30
    362c:	30 f0       	brcs	.+12     	;  0x363a
    362e:	c6 01       	movw	r24, r12
    3630:	0e 94 4e 1a 	call	0x349c	;  0x349c
    3634:	88 23       	and	r24, r24
    3636:	41 f4       	brne	.+16     	;  0x3648
    3638:	e9 c0       	rjmp	.+466    	;  0x380c
    363a:	d6 01       	movw	r26, r12
    363c:	14 96       	adiw	r26, 0x04	; 4
    363e:	2d 93       	st	X+, r18
    3640:	3d 93       	st	X+, r19
    3642:	4d 93       	st	X+, r20
    3644:	5c 93       	st	X, r21
    3646:	17 97       	sbiw	r26, 0x07	; 7
    3648:	80 e0       	ldi	r24, 0x00	; 0
    364a:	92 e0       	ldi	r25, 0x02	; 2
    364c:	88 19       	sub	r24, r8
    364e:	99 09       	sbc	r25, r9
    3650:	52 01       	movw	r10, r4
    3652:	84 15       	cp	r24, r4
    3654:	95 05       	cpc	r25, r5
    3656:	08 f4       	brcc	.+2      	;  0x365a
    3658:	5c 01       	movw	r10, r24
    365a:	d6 01       	movw	r26, r12
    365c:	59 96       	adiw	r26, 0x19	; 25
    365e:	ed 91       	ld	r30, X+
    3660:	fc 91       	ld	r31, X
    3662:	5a 97       	sbiw	r26, 0x1a	; 26
    3664:	14 96       	adiw	r26, 0x04	; 4
    3666:	ed 90       	ld	r14, X+
    3668:	fd 90       	ld	r15, X+
    366a:	0d 91       	ld	r16, X+
    366c:	1c 91       	ld	r17, X
    366e:	17 97       	sbiw	r26, 0x07	; 7
    3670:	8e ef       	ldi	r24, 0xFE	; 254
    3672:	9f ef       	ldi	r25, 0xFF	; 255
    3674:	af ef       	ldi	r26, 0xFF	; 255
    3676:	bf ef       	ldi	r27, 0xFF	; 255
    3678:	e8 0e       	add	r14, r24
    367a:	f9 1e       	adc	r15, r25
    367c:	0a 1f       	adc	r16, r26
    367e:	1b 1f       	adc	r17, r27
    3680:	05 84       	ldd	r0, Z+13	; 0x0d
    3682:	04 c0       	rjmp	.+8      	;  0x368c
    3684:	ee 0c       	add	r14, r14
    3686:	ff 1c       	adc	r15, r15
    3688:	00 1f       	adc	r16, r16
    368a:	11 1f       	adc	r17, r17
    368c:	0a 94       	dec	r0
    368e:	d2 f7       	brpl	.-12     	;  0x3684
    3690:	86 85       	ldd	r24, Z+14	; 0x0e
    3692:	97 85       	ldd	r25, Z+15	; 0x0f
    3694:	a0 89       	ldd	r26, Z+16	; 0x10
    3696:	b1 89       	ldd	r27, Z+17	; 0x11
    3698:	e8 0e       	add	r14, r24
    369a:	f9 1e       	adc	r15, r25
    369c:	0a 1f       	adc	r16, r26
    369e:	1b 1f       	adc	r17, r27
    36a0:	e7 0c       	add	r14, r7
    36a2:	f1 1c       	adc	r15, r1
    36a4:	01 1d       	adc	r16, r1
    36a6:	11 1d       	adc	r17, r1
    36a8:	90 e0       	ldi	r25, 0x00	; 0
    36aa:	a9 16       	cp	r10, r25
    36ac:	92 e0       	ldi	r25, 0x02	; 2
    36ae:	b9 06       	cpc	r11, r25
    36b0:	39 f5       	brne	.+78     	;  0x3700
    36b2:	80 91 4a 04 	lds	r24, 0x044A
    36b6:	90 91 4b 04 	lds	r25, 0x044B
    36ba:	a0 91 4c 04 	lds	r26, 0x044C
    36be:	b0 91 4d 04 	lds	r27, 0x044D
    36c2:	8e 15       	cp	r24, r14
    36c4:	9f 05       	cpc	r25, r15
    36c6:	a0 07       	cpc	r26, r16
    36c8:	b1 07       	cpc	r27, r17
    36ca:	71 f4       	brne	.+28     	;  0x36e8
    36cc:	10 92 50 06 	sts	0x0650, r1
    36d0:	8f ef       	ldi	r24, 0xFF	; 255
    36d2:	9f ef       	ldi	r25, 0xFF	; 255
    36d4:	af ef       	ldi	r26, 0xFF	; 255
    36d6:	bf ef       	ldi	r27, 0xFF	; 255
    36d8:	80 93 4a 04 	sts	0x044A, r24
    36dc:	90 93 4b 04 	sts	0x044B, r25
    36e0:	a0 93 4c 04 	sts	0x044C, r26
    36e4:	b0 93 4d 04 	sts	0x044D, r27
    36e8:	80 91 4e 06 	lds	r24, 0x064E
    36ec:	90 91 4f 06 	lds	r25, 0x064F
    36f0:	b8 01       	movw	r22, r16
    36f2:	a7 01       	movw	r20, r14
    36f4:	91 01       	movw	r18, r2
    36f6:	0e 94 0f 14 	call	0x281e	;  0x281e
    36fa:	88 23       	and	r24, r24
    36fc:	b9 f5       	brne	.+110    	;  0x376c
    36fe:	86 c0       	rjmp	.+268    	;  0x380c
    3700:	81 14       	cp	r8, r1
    3702:	91 04       	cpc	r9, r1
    3704:	19 f5       	brne	.+70     	;  0x374c
    3706:	d6 01       	movw	r26, r12
    3708:	18 96       	adiw	r26, 0x08	; 8
    370a:	2d 91       	ld	r18, X+
    370c:	3d 91       	ld	r19, X+
    370e:	4d 91       	ld	r20, X+
    3710:	5c 91       	ld	r21, X
    3712:	1b 97       	sbiw	r26, 0x0b	; 11
    3714:	51 96       	adiw	r26, 0x11	; 17
    3716:	8d 91       	ld	r24, X+
    3718:	9d 91       	ld	r25, X+
    371a:	0d 90       	ld	r0, X+
    371c:	bc 91       	ld	r27, X
    371e:	a0 2d       	mov	r26, r0
    3720:	28 17       	cp	r18, r24
    3722:	39 07       	cpc	r19, r25
    3724:	4a 07       	cpc	r20, r26
    3726:	5b 07       	cpc	r21, r27
    3728:	88 f0       	brcs	.+34     	;  0x374c
    372a:	0e 94 b9 1e 	call	0x3d72	;  0x3d72
    372e:	88 23       	and	r24, r24
    3730:	09 f4       	brne	.+2      	;  0x3734
    3732:	6c c0       	rjmp	.+216    	;  0x380c
    3734:	81 e0       	ldi	r24, 0x01	; 1
    3736:	80 93 50 06 	sts	0x0650, r24
    373a:	e0 92 4a 04 	sts	0x044A, r14
    373e:	f0 92 4b 04 	sts	0x044B, r15
    3742:	00 93 4c 04 	sts	0x044C, r16
    3746:	10 93 4d 04 	sts	0x044D, r17
    374a:	08 c0       	rjmp	.+16     	;  0x375c
    374c:	c8 01       	movw	r24, r16
    374e:	b7 01       	movw	r22, r14
    3750:	41 e0       	ldi	r20, 0x01	; 1
    3752:	0e 94 f4 1e 	call	0x3de8	;  0x3de8
    3756:	88 23       	and	r24, r24
    3758:	09 f4       	brne	.+2      	;  0x375c
    375a:	58 c0       	rjmp	.+176    	;  0x380c
    375c:	94 01       	movw	r18, r8
    375e:	22 5b       	subi	r18, 0xB2	; 178
    3760:	3b 4f       	sbci	r19, 0xFB	; 251
    3762:	c9 01       	movw	r24, r18
    3764:	b1 01       	movw	r22, r2
    3766:	a5 01       	movw	r20, r10
    3768:	0e 94 18 31 	call	0x6230	;  0x6230
    376c:	95 01       	movw	r18, r10
    376e:	40 e0       	ldi	r20, 0x00	; 0
    3770:	50 e0       	ldi	r21, 0x00	; 0
    3772:	f6 01       	movw	r30, r12
    3774:	80 85       	ldd	r24, Z+8	; 0x08
    3776:	91 85       	ldd	r25, Z+9	; 0x09
    3778:	a2 85       	ldd	r26, Z+10	; 0x0a
    377a:	b3 85       	ldd	r27, Z+11	; 0x0b
    377c:	82 0f       	add	r24, r18
    377e:	93 1f       	adc	r25, r19
    3780:	a4 1f       	adc	r26, r20
    3782:	b5 1f       	adc	r27, r21
    3784:	80 87       	std	Z+8, r24	; 0x08
    3786:	91 87       	std	Z+9, r25	; 0x09
    3788:	a2 87       	std	Z+10, r26	; 0x0a
    378a:	b3 87       	std	Z+11, r27	; 0x0b
    378c:	2a 0c       	add	r2, r10
    378e:	3b 1c       	adc	r3, r11
    3790:	4a 18       	sub	r4, r10
    3792:	5b 08       	sbc	r5, r11
    3794:	d6 01       	movw	r26, r12
    3796:	18 96       	adiw	r26, 0x08	; 8
    3798:	2d 91       	ld	r18, X+
    379a:	3d 91       	ld	r19, X+
    379c:	4d 91       	ld	r20, X+
    379e:	5c 91       	ld	r21, X
    37a0:	1b 97       	sbiw	r26, 0x0b	; 11
    37a2:	41 14       	cp	r4, r1
    37a4:	51 04       	cpc	r5, r1
    37a6:	09 f0       	breq	.+2      	;  0x37aa
    37a8:	e2 ce       	rjmp	.-572    	;  0x356e
    37aa:	51 96       	adiw	r26, 0x11	; 17
    37ac:	8d 91       	ld	r24, X+
    37ae:	9d 91       	ld	r25, X+
    37b0:	0d 90       	ld	r0, X+
    37b2:	bc 91       	ld	r27, X
    37b4:	a0 2d       	mov	r26, r0
    37b6:	82 17       	cp	r24, r18
    37b8:	93 07       	cpc	r25, r19
    37ba:	a4 07       	cpc	r26, r20
    37bc:	b5 07       	cpc	r27, r21
    37be:	48 f4       	brcc	.+18     	;  0x37d2
    37c0:	f6 01       	movw	r30, r12
    37c2:	21 8b       	std	Z+17, r18	; 0x11
    37c4:	32 8b       	std	Z+18, r19	; 0x12
    37c6:	43 8b       	std	Z+19, r20	; 0x13
    37c8:	54 8b       	std	Z+20, r21	; 0x14
    37ca:	81 81       	ldd	r24, Z+1	; 0x01
    37cc:	80 68       	ori	r24, 0x80	; 128
    37ce:	81 83       	std	Z+1, r24	; 0x01
    37d0:	11 c0       	rjmp	.+34     	;  0x37f4
    37d2:	80 91 48 04 	lds	r24, 0x0448
    37d6:	90 91 49 04 	lds	r25, 0x0449
    37da:	89 2b       	or	r24, r25
    37dc:	59 f0       	breq	.+22     	;  0x37f4
    37de:	8d 81       	ldd	r24, Y+5	; 0x05
    37e0:	9e 81       	ldd	r25, Y+6	; 0x06
    37e2:	89 2b       	or	r24, r25
    37e4:	39 f0       	breq	.+14     	;  0x37f4
    37e6:	d6 01       	movw	r26, r12
    37e8:	11 96       	adiw	r26, 0x01	; 1
    37ea:	8c 91       	ld	r24, X
    37ec:	11 97       	sbiw	r26, 0x01	; 1
    37ee:	80 68       	ori	r24, 0x80	; 128
    37f0:	11 96       	adiw	r26, 0x01	; 1
    37f2:	8c 93       	st	X, r24
    37f4:	f6 01       	movw	r30, r12
    37f6:	81 81       	ldd	r24, Z+1	; 0x01
    37f8:	83 ff       	sbrs	r24, 3
    37fa:	05 c0       	rjmp	.+10     	;  0x3806
    37fc:	c6 01       	movw	r24, r12
    37fe:	0e 94 ea 16 	call	0x2dd4	;  0x2dd4
    3802:	88 23       	and	r24, r24
    3804:	19 f0       	breq	.+6      	;  0x380c
    3806:	4d 81       	ldd	r20, Y+5	; 0x05
    3808:	5e 81       	ldd	r21, Y+6	; 0x06
    380a:	05 c0       	rjmp	.+10     	;  0x3816
    380c:	81 e0       	ldi	r24, 0x01	; 1
    380e:	d6 01       	movw	r26, r12
    3810:	8c 93       	st	X, r24
    3812:	4f ef       	ldi	r20, 0xFF	; 255
    3814:	5f ef       	ldi	r21, 0xFF	; 255
    3816:	ca 01       	movw	r24, r20
    3818:	26 96       	adiw	r28, 0x06	; 6
    381a:	0f b6       	in	r0, 0x3f	; 63
    381c:	f8 94       	cli
    381e:	de bf       	out	0x3e, r29	; 62
    3820:	0f be       	out	0x3f, r0	; 63
    3822:	cd bf       	out	0x3d, r28	; 61
    3824:	cf 91       	pop	r28
    3826:	df 91       	pop	r29
    3828:	1f 91       	pop	r17
    382a:	0f 91       	pop	r16
    382c:	ff 90       	pop	r15
    382e:	ef 90       	pop	r14
    3830:	df 90       	pop	r13
    3832:	cf 90       	pop	r12
    3834:	bf 90       	pop	r11
    3836:	af 90       	pop	r10
    3838:	9f 90       	pop	r9
    383a:	8f 90       	pop	r8
    383c:	7f 90       	pop	r7
    383e:	5f 90       	pop	r5
    3840:	4f 90       	pop	r4
    3842:	3f 90       	pop	r3
    3844:	2f 90       	pop	r2
    3846:	08 95       	ret
    3848:	82 fd       	sbrc	r24, 2
    384a:	76 ce       	rjmp	.-788    	;  0x3538
    384c:	89 ce       	rjmp	.-750    	;  0x3560
    384e:	df 92       	push	r13
    3850:	ef 92       	push	r14
    3852:	ff 92       	push	r15
    3854:	0f 93       	push	r16
    3856:	1f 93       	push	r17
    3858:	cf 93       	push	r28
    385a:	df 93       	push	r29
    385c:	ec 01       	movw	r28, r24
    385e:	89 89       	ldd	r24, Y+17	; 0x11
    3860:	9a 89       	ldd	r25, Y+18	; 0x12
    3862:	ab 89       	ldd	r26, Y+19	; 0x13
    3864:	bc 89       	ldd	r27, Y+20	; 0x14
    3866:	80 5e       	subi	r24, 0xE0	; 224
    3868:	9f 4f       	sbci	r25, 0xFF	; 255
    386a:	af 41       	sbci	r26, 0x1F	; 31
    386c:	b0 40       	sbci	r27, 0x00	; 0
    386e:	08 f0       	brcs	.+2      	;  0x3872
    3870:	71 c0       	rjmp	.+226    	;  0x3954
    3872:	ce 01       	movw	r24, r28
    3874:	0e 94 4e 1a 	call	0x349c	;  0x349c
    3878:	88 23       	and	r24, r24
    387a:	09 f4       	brne	.+2      	;  0x387e
    387c:	6b c0       	rjmp	.+214    	;  0x3954
    387e:	0e 94 b9 1e 	call	0x3d72	;  0x3d72
    3882:	88 23       	and	r24, r24
    3884:	09 f4       	brne	.+2      	;  0x3888
    3886:	66 c0       	rjmp	.+204    	;  0x3954
    3888:	e9 8d       	ldd	r30, Y+25	; 0x19
    388a:	fa 8d       	ldd	r31, Y+26	; 0x1a
    388c:	ec 80       	ldd	r14, Y+4	; 0x04
    388e:	fd 80       	ldd	r15, Y+5	; 0x05
    3890:	0e 81       	ldd	r16, Y+6	; 0x06
    3892:	1f 81       	ldd	r17, Y+7	; 0x07
    3894:	8e ef       	ldi	r24, 0xFE	; 254
    3896:	9f ef       	ldi	r25, 0xFF	; 255
    3898:	af ef       	ldi	r26, 0xFF	; 255
    389a:	bf ef       	ldi	r27, 0xFF	; 255
    389c:	e8 0e       	add	r14, r24
    389e:	f9 1e       	adc	r15, r25
    38a0:	0a 1f       	adc	r16, r26
    38a2:	1b 1f       	adc	r17, r27
    38a4:	05 84       	ldd	r0, Z+13	; 0x0d
    38a6:	04 c0       	rjmp	.+8      	;  0x38b0
    38a8:	ee 0c       	add	r14, r14
    38aa:	ff 1c       	adc	r15, r15
    38ac:	00 1f       	adc	r16, r16
    38ae:	11 1f       	adc	r17, r17
    38b0:	0a 94       	dec	r0
    38b2:	d2 f7       	brpl	.-12     	;  0x38a8
    38b4:	86 85       	ldd	r24, Z+14	; 0x0e
    38b6:	97 85       	ldd	r25, Z+15	; 0x0f
    38b8:	a0 89       	ldd	r26, Z+16	; 0x10
    38ba:	b1 89       	ldd	r27, Z+17	; 0x11
    38bc:	e8 0e       	add	r14, r24
    38be:	f9 1e       	adc	r15, r25
    38c0:	0a 1f       	adc	r16, r26
    38c2:	1b 1f       	adc	r17, r27
    38c4:	81 e0       	ldi	r24, 0x01	; 1
    38c6:	80 93 50 06 	sts	0x0650, r24
    38ca:	e0 92 4a 04 	sts	0x044A, r14
    38ce:	f0 92 4b 04 	sts	0x044B, r15
    38d2:	00 93 4c 04 	sts	0x044C, r16
    38d6:	10 93 4d 04 	sts	0x044D, r17
    38da:	80 e0       	ldi	r24, 0x00	; 0
    38dc:	92 e0       	ldi	r25, 0x02	; 2
    38de:	ee e4       	ldi	r30, 0x4E	; 78
    38e0:	f4 e0       	ldi	r31, 0x04	; 4
    38e2:	df 01       	movw	r26, r30
    38e4:	9c 01       	movw	r18, r24
    38e6:	1d 92       	st	X+, r1
    38e8:	21 50       	subi	r18, 0x01	; 1
    38ea:	30 40       	sbci	r19, 0x00	; 0
    38ec:	e1 f7       	brne	.-8      	;  0x38e6
    38ee:	dd 24       	eor	r13, r13
    38f0:	d3 94       	inc	r13
    38f2:	11 c0       	rjmp	.+34     	;  0x3916
    38f4:	b8 01       	movw	r22, r16
    38f6:	a7 01       	movw	r20, r14
    38f8:	4d 0d       	add	r20, r13
    38fa:	51 1d       	adc	r21, r1
    38fc:	61 1d       	adc	r22, r1
    38fe:	71 1d       	adc	r23, r1
    3900:	80 91 4e 06 	lds	r24, 0x064E
    3904:	90 91 4f 06 	lds	r25, 0x064F
    3908:	2e e4       	ldi	r18, 0x4E	; 78
    390a:	34 e0       	ldi	r19, 0x04	; 4
    390c:	0e 94 0f 14 	call	0x281e	;  0x281e
    3910:	88 23       	and	r24, r24
    3912:	01 f1       	breq	.+64     	;  0x3954
    3914:	d3 94       	inc	r13
    3916:	e9 8d       	ldd	r30, Y+25	; 0x19
    3918:	fa 8d       	ldd	r31, Y+26	; 0x1a
    391a:	84 81       	ldd	r24, Z+4	; 0x04
    391c:	d8 16       	cp	r13, r24
    391e:	50 f3       	brcs	.-44     	;  0x38f4
    3920:	20 e0       	ldi	r18, 0x00	; 0
    3922:	32 e0       	ldi	r19, 0x02	; 2
    3924:	40 e0       	ldi	r20, 0x00	; 0
    3926:	50 e0       	ldi	r21, 0x00	; 0
    3928:	05 84       	ldd	r0, Z+13	; 0x0d
    392a:	04 c0       	rjmp	.+8      	;  0x3934
    392c:	22 0f       	add	r18, r18
    392e:	33 1f       	adc	r19, r19
    3930:	44 1f       	adc	r20, r20
    3932:	55 1f       	adc	r21, r21
    3934:	0a 94       	dec	r0
    3936:	d2 f7       	brpl	.-12     	;  0x392c
    3938:	89 89       	ldd	r24, Y+17	; 0x11
    393a:	9a 89       	ldd	r25, Y+18	; 0x12
    393c:	ab 89       	ldd	r26, Y+19	; 0x13
    393e:	bc 89       	ldd	r27, Y+20	; 0x14
    3940:	82 0f       	add	r24, r18
    3942:	93 1f       	adc	r25, r19
    3944:	a4 1f       	adc	r26, r20
    3946:	b5 1f       	adc	r27, r21
    3948:	89 8b       	std	Y+17, r24	; 0x11
    394a:	9a 8b       	std	Y+18, r25	; 0x12
    394c:	ab 8b       	std	Y+19, r26	; 0x13
    394e:	bc 8b       	std	Y+20, r27	; 0x14
    3950:	81 e0       	ldi	r24, 0x01	; 1
    3952:	01 c0       	rjmp	.+2      	;  0x3956
    3954:	80 e0       	ldi	r24, 0x00	; 0
    3956:	df 91       	pop	r29
    3958:	cf 91       	pop	r28
    395a:	1f 91       	pop	r17
    395c:	0f 91       	pop	r16
    395e:	ff 90       	pop	r15
    3960:	ef 90       	pop	r14
    3962:	df 90       	pop	r13
    3964:	08 95       	ret
    3966:	8f 92       	push	r8
    3968:	9f 92       	push	r9
    396a:	af 92       	push	r10
    396c:	bf 92       	push	r11
    396e:	cf 92       	push	r12
    3970:	df 92       	push	r13
    3972:	ef 92       	push	r14
    3974:	ff 92       	push	r15
    3976:	0f 93       	push	r16
    3978:	1f 93       	push	r17
    397a:	cf 93       	push	r28
    397c:	df 93       	push	r29
    397e:	6c 01       	movw	r12, r24
    3980:	eb 01       	movw	r28, r22
    3982:	94 2e       	mov	r9, r20
    3984:	85 2e       	mov	r8, r21
    3986:	a2 2e       	mov	r10, r18
    3988:	89 8d       	ldd	r24, Y+25	; 0x19
    398a:	9a 8d       	ldd	r25, Y+26	; 0x1a
    398c:	d6 01       	movw	r26, r12
    398e:	5a 96       	adiw	r26, 0x1a	; 26
    3990:	9c 93       	st	X, r25
    3992:	8e 93       	st	-X, r24
    3994:	59 97       	sbiw	r26, 0x19	; 25
    3996:	cb 01       	movw	r24, r22
    3998:	40 e0       	ldi	r20, 0x00	; 0
    399a:	50 e0       	ldi	r21, 0x00	; 0
    399c:	60 e0       	ldi	r22, 0x00	; 0
    399e:	70 e0       	ldi	r23, 0x00	; 0
    39a0:	0e 94 20 16 	call	0x2c40	;  0x2c40
    39a4:	bb 24       	eor	r11, r11
    39a6:	38 c0       	rjmp	.+112    	;  0x3a18
    39a8:	ce 01       	movw	r24, r28
    39aa:	0e 94 37 19 	call	0x326e	;  0x326e
    39ae:	fc 01       	movw	r30, r24
    39b0:	00 97       	sbiw	r24, 0x00	; 0
    39b2:	09 f4       	brne	.+2      	;  0x39b6
    39b4:	93 c0       	rjmp	.+294    	;  0x3adc
    39b6:	55 e0       	ldi	r21, 0x05	; 5
    39b8:	16 95       	lsr	r17
    39ba:	07 95       	ror	r16
    39bc:	f7 94       	ror	r15
    39be:	e7 94       	ror	r14
    39c0:	5a 95       	dec	r21
    39c2:	d1 f7       	brne	.-12     	;  0x39b8
    39c4:	1e 2d       	mov	r17, r14
    39c6:	1f 70       	andi	r17, 0x0F	; 15
    39c8:	80 81       	ld	r24, Z
    39ca:	88 23       	and	r24, r24
    39cc:	11 f0       	breq	.+4      	;  0x39d2
    39ce:	85 3e       	cpi	r24, 0xE5	; 229
    39d0:	c9 f4       	brne	.+50     	;  0x3a04
    39d2:	bb 20       	and	r11, r11
    39d4:	99 f4       	brne	.+38     	;  0x39fc
    39d6:	20 91 4a 04 	lds	r18, 0x044A
    39da:	30 91 4b 04 	lds	r19, 0x044B
    39de:	40 91 4c 04 	lds	r20, 0x044C
    39e2:	50 91 4d 04 	lds	r21, 0x044D
    39e6:	d6 01       	movw	r26, r12
    39e8:	1c 96       	adiw	r26, 0x0c	; 12
    39ea:	2d 93       	st	X+, r18
    39ec:	3d 93       	st	X+, r19
    39ee:	4d 93       	st	X+, r20
    39f0:	5c 93       	st	X, r21
    39f2:	1f 97       	sbiw	r26, 0x0f	; 15
    39f4:	50 96       	adiw	r26, 0x10	; 16
    39f6:	1c 93       	st	X, r17
    39f8:	bb 24       	eor	r11, r11
    39fa:	b3 94       	inc	r11
    39fc:	80 81       	ld	r24, Z
    39fe:	88 23       	and	r24, r24
    3a00:	59 f4       	brne	.+22     	;  0x3a18
    3a02:	18 c0       	rjmp	.+48     	;  0x3a34
    3a04:	89 2d       	mov	r24, r9
    3a06:	98 2d       	mov	r25, r8
    3a08:	bf 01       	movw	r22, r30
    3a0a:	4b e0       	ldi	r20, 0x0B	; 11
    3a0c:	50 e0       	ldi	r21, 0x00	; 0
    3a0e:	0e 94 0b 31 	call	0x6216	;  0x6216
    3a12:	00 97       	sbiw	r24, 0x00	; 0
    3a14:	09 f4       	brne	.+2      	;  0x3a18
    3a16:	70 c0       	rjmp	.+224    	;  0x3af8
    3a18:	e8 84       	ldd	r14, Y+8	; 0x08
    3a1a:	f9 84       	ldd	r15, Y+9	; 0x09
    3a1c:	0a 85       	ldd	r16, Y+10	; 0x0a
    3a1e:	1b 85       	ldd	r17, Y+11	; 0x0b
    3a20:	89 89       	ldd	r24, Y+17	; 0x11
    3a22:	9a 89       	ldd	r25, Y+18	; 0x12
    3a24:	ab 89       	ldd	r26, Y+19	; 0x13
    3a26:	bc 89       	ldd	r27, Y+20	; 0x14
    3a28:	e8 16       	cp	r14, r24
    3a2a:	f9 06       	cpc	r15, r25
    3a2c:	0a 07       	cpc	r16, r26
    3a2e:	1b 07       	cpc	r17, r27
    3a30:	08 f4       	brcc	.+2      	;  0x3a34
    3a32:	ba cf       	rjmp	.-140    	;  0x39a8
    3a34:	a6 fe       	sbrs	r10, 6
    3a36:	52 c0       	rjmp	.+164    	;  0x3adc
    3a38:	a1 fe       	sbrs	r10, 1
    3a3a:	50 c0       	rjmp	.+160    	;  0x3adc
    3a3c:	bb 20       	and	r11, r11
    3a3e:	51 f0       	breq	.+20     	;  0x3a54
    3a40:	f6 01       	movw	r30, r12
    3a42:	10 89       	ldd	r17, Z+16	; 0x10
    3a44:	c6 01       	movw	r24, r12
    3a46:	61 e0       	ldi	r22, 0x01	; 1
    3a48:	0e 94 c9 16 	call	0x2d92	;  0x2d92
    3a4c:	ec 01       	movw	r28, r24
    3a4e:	00 97       	sbiw	r24, 0x00	; 0
    3a50:	69 f4       	brne	.+26     	;  0x3a6c
    3a52:	44 c0       	rjmp	.+136    	;  0x3adc
    3a54:	8b 81       	ldd	r24, Y+3	; 0x03
    3a56:	82 30       	cpi	r24, 0x02	; 2
    3a58:	09 f4       	brne	.+2      	;  0x3a5c
    3a5a:	40 c0       	rjmp	.+128    	;  0x3adc
    3a5c:	ce 01       	movw	r24, r28
    3a5e:	0e 94 27 1c 	call	0x384e	;  0x384e
    3a62:	88 23       	and	r24, r24
    3a64:	d9 f1       	breq	.+118    	;  0x3adc
    3a66:	10 e0       	ldi	r17, 0x00	; 0
    3a68:	ce e4       	ldi	r28, 0x4E	; 78
    3a6a:	d4 e0       	ldi	r29, 0x04	; 4
    3a6c:	80 e2       	ldi	r24, 0x20	; 32
    3a6e:	de 01       	movw	r26, r28
    3a70:	1d 92       	st	X+, r1
    3a72:	8a 95       	dec	r24
    3a74:	e9 f7       	brne	.-6      	;  0x3a70
    3a76:	de 01       	movw	r26, r28
    3a78:	29 2d       	mov	r18, r9
    3a7a:	38 2d       	mov	r19, r8
    3a7c:	c9 01       	movw	r24, r18
    3a7e:	fc 01       	movw	r30, r24
    3a80:	8b e0       	ldi	r24, 0x0B	; 11
    3a82:	01 90       	ld	r0, Z+
    3a84:	0d 92       	st	X+, r0
    3a86:	81 50       	subi	r24, 0x01	; 1
    3a88:	e1 f7       	brne	.-8      	;  0x3a82
    3a8a:	e0 91 48 04 	lds	r30, 0x0448
    3a8e:	f0 91 49 04 	lds	r31, 0x0449
    3a92:	30 97       	sbiw	r30, 0x00	; 0
    3a94:	39 f0       	breq	.+14     	;  0x3aa4
    3a96:	be 01       	movw	r22, r28
    3a98:	62 5f       	subi	r22, 0xF2	; 242
    3a9a:	7f 4f       	sbci	r23, 0xFF	; 255
    3a9c:	ce 01       	movw	r24, r28
    3a9e:	40 96       	adiw	r24, 0x10	; 16
    3aa0:	09 95       	icall
    3aa2:	08 c0       	rjmp	.+16     	;  0x3ab4
    3aa4:	81 e2       	ldi	r24, 0x21	; 33
    3aa6:	98 e2       	ldi	r25, 0x28	; 40
    3aa8:	99 8b       	std	Y+17, r25	; 0x11
    3aaa:	88 8b       	std	Y+16, r24	; 0x10
    3aac:	80 e0       	ldi	r24, 0x00	; 0
    3aae:	98 e0       	ldi	r25, 0x08	; 8
    3ab0:	9f 87       	std	Y+15, r25	; 0x0f
    3ab2:	8e 87       	std	Y+14, r24	; 0x0e
    3ab4:	88 89       	ldd	r24, Y+16	; 0x10
    3ab6:	99 89       	ldd	r25, Y+17	; 0x11
    3ab8:	9b 8b       	std	Y+19, r25	; 0x13
    3aba:	8a 8b       	std	Y+18, r24	; 0x12
    3abc:	99 8f       	std	Y+25, r25	; 0x19
    3abe:	88 8f       	std	Y+24, r24	; 0x18
    3ac0:	8e 85       	ldd	r24, Y+14	; 0x0e
    3ac2:	9f 85       	ldd	r25, Y+15	; 0x0f
    3ac4:	9f 8b       	std	Y+23, r25	; 0x17
    3ac6:	8e 8b       	std	Y+22, r24	; 0x16
    3ac8:	0e 94 b9 1e 	call	0x3d72	;  0x3d72
    3acc:	88 23       	and	r24, r24
    3ace:	31 f0       	breq	.+12     	;  0x3adc
    3ad0:	c6 01       	movw	r24, r12
    3ad2:	61 2f       	mov	r22, r17
    3ad4:	4a 2d       	mov	r20, r10
    3ad6:	0e 94 c5 19 	call	0x338a	;  0x338a
    3ada:	01 c0       	rjmp	.+2      	;  0x3ade
    3adc:	80 e0       	ldi	r24, 0x00	; 0
    3ade:	df 91       	pop	r29
    3ae0:	cf 91       	pop	r28
    3ae2:	1f 91       	pop	r17
    3ae4:	0f 91       	pop	r16
    3ae6:	ff 90       	pop	r15
    3ae8:	ef 90       	pop	r14
    3aea:	df 90       	pop	r13
    3aec:	cf 90       	pop	r12
    3aee:	bf 90       	pop	r11
    3af0:	af 90       	pop	r10
    3af2:	9f 90       	pop	r9
    3af4:	8f 90       	pop	r8
    3af6:	08 95       	ret
    3af8:	a7 fe       	sbrs	r10, 7
    3afa:	ea cf       	rjmp	.-44     	;  0x3ad0
    3afc:	ef cf       	rjmp	.-34     	;  0x3adc
    3afe:	2f 92       	push	r2
    3b00:	3f 92       	push	r3
    3b02:	4f 92       	push	r4
    3b04:	5f 92       	push	r5
    3b06:	6f 92       	push	r6
    3b08:	7f 92       	push	r7
    3b0a:	8f 92       	push	r8
    3b0c:	9f 92       	push	r9
    3b0e:	af 92       	push	r10
    3b10:	bf 92       	push	r11
    3b12:	cf 92       	push	r12
    3b14:	df 92       	push	r13
    3b16:	ef 92       	push	r14
    3b18:	ff 92       	push	r15
    3b1a:	0f 93       	push	r16
    3b1c:	1f 93       	push	r17
    3b1e:	df 93       	push	r29
    3b20:	cf 93       	push	r28
    3b22:	cd b7       	in	r28, 0x3d	; 61
    3b24:	de b7       	in	r29, 0x3e	; 62
    3b26:	c6 54       	subi	r28, 0x46	; 70
    3b28:	d0 40       	sbci	r29, 0x00	; 0
    3b2a:	0f b6       	in	r0, 0x3f	; 63
    3b2c:	f8 94       	cli
    3b2e:	de bf       	out	0x3e, r29	; 62
    3b30:	0f be       	out	0x3f, r0	; 63
    3b32:	cd bf       	out	0x3d, r28	; 61
    3b34:	3c 01       	movw	r6, r24
    3b36:	6b 01       	movw	r12, r22
    3b38:	de 01       	movw	r26, r28
    3b3a:	ae 5b       	subi	r26, 0xBE	; 190
    3b3c:	bf 4f       	sbci	r27, 0xFF	; 255
    3b3e:	11 96       	adiw	r26, 0x01	; 1
    3b40:	5c 93       	st	X, r21
    3b42:	4e 93       	st	-X, r20
    3b44:	25 96       	adiw	r28, 0x05	; 5
    3b46:	2f af       	std	Y+63, r18	; 0x3f
    3b48:	25 97       	sbiw	r28, 0x05	; 5
    3b4a:	1c 86       	std	Y+12, r1	; 0x0c
    3b4c:	1f 86       	std	Y+15, r1	; 0x0f
    3b4e:	1f a2       	std	Y+39, r1	; 0x27
    3b50:	1a a6       	std	Y+42, r1	; 0x2a
    3b52:	61 15       	cp	r22, r1
    3b54:	71 05       	cpc	r23, r1
    3b56:	09 f4       	brne	.+2      	;  0x3b5a
    3b58:	80 c0       	rjmp	.+256    	;  0x3c5a
    3b5a:	fc 01       	movw	r30, r24
    3b5c:	83 81       	ldd	r24, Z+3	; 0x03
    3b5e:	88 23       	and	r24, r24
    3b60:	09 f0       	breq	.+2      	;  0x3b64
    3b62:	7b c0       	rjmp	.+246    	;  0x3c5a
    3b64:	fa 01       	movw	r30, r20
    3b66:	80 81       	ld	r24, Z
    3b68:	8f 32       	cpi	r24, 0x2F	; 47
    3b6a:	f1 f0       	breq	.+60     	;  0x3ba8
    3b6c:	86 01       	movw	r16, r12
    3b6e:	ec e0       	ldi	r30, 0x0C	; 12
    3b70:	ee 2e       	mov	r14, r30
    3b72:	f1 2c       	mov	r15, r1
    3b74:	ec 0e       	add	r14, r28
    3b76:	fd 1e       	adc	r15, r29
    3b78:	72 e4       	ldi	r23, 0x42	; 66
    3b7a:	a7 2e       	mov	r10, r23
    3b7c:	b1 2c       	mov	r11, r1
    3b7e:	ac 0e       	add	r10, r28
    3b80:	bd 1e       	adc	r11, r29
    3b82:	4e 01       	movw	r8, r28
    3b84:	08 94       	sec
    3b86:	81 1c       	adc	r8, r1
    3b88:	91 1c       	adc	r9, r1
    3b8a:	27 96       	adiw	r28, 0x07	; 7
    3b8c:	ff ae       	std	Y+63, r15	; 0x3f
    3b8e:	ee ae       	std	Y+62, r14	; 0x3e
    3b90:	27 97       	sbiw	r28, 0x07	; 7
    3b92:	67 e2       	ldi	r22, 0x27	; 39
    3b94:	26 2e       	mov	r2, r22
    3b96:	31 2c       	mov	r3, r1
    3b98:	2c 0e       	add	r2, r28
    3b9a:	3d 1e       	adc	r3, r29
    3b9c:	27 01       	movw	r4, r14
    3b9e:	24 c0       	rjmp	.+72     	;  0x3be8
    3ba0:	11 96       	adiw	r26, 0x01	; 1
    3ba2:	b1 83       	std	Z+1, r27	; 0x01
    3ba4:	a0 83       	st	Z, r26
    3ba6:	01 c0       	rjmp	.+2      	;  0x3baa
    3ba8:	fd 01       	movw	r30, r26
    3baa:	a0 81       	ld	r26, Z
    3bac:	b1 81       	ldd	r27, Z+1	; 0x01
    3bae:	8c 91       	ld	r24, X
    3bb0:	8f 32       	cpi	r24, 0x2F	; 47
    3bb2:	b1 f3       	breq	.-20     	;  0x3ba0
    3bb4:	d6 01       	movw	r26, r12
    3bb6:	13 96       	adiw	r26, 0x03	; 3
    3bb8:	8c 91       	ld	r24, X
    3bba:	13 97       	sbiw	r26, 0x03	; 3
    3bbc:	82 50       	subi	r24, 0x02	; 2
    3bbe:	82 30       	cpi	r24, 0x02	; 2
    3bc0:	a8 f2       	brcs	.-86     	;  0x3b6c
    3bc2:	8e 01       	movw	r16, r28
    3bc4:	09 5d       	subi	r16, 0xD9	; 217
    3bc6:	1f 4f       	sbci	r17, 0xFF	; 255
    3bc8:	59 96       	adiw	r26, 0x19	; 25
    3bca:	6d 91       	ld	r22, X+
    3bcc:	7c 91       	ld	r23, X
    3bce:	5a 97       	sbiw	r26, 0x1a	; 26
    3bd0:	c8 01       	movw	r24, r16
    3bd2:	0e 94 72 19 	call	0x32e4	;  0x32e4
    3bd6:	88 23       	and	r24, r24
    3bd8:	51 f6       	brne	.-108    	;  0x3b6e
    3bda:	3f c0       	rjmp	.+126    	;  0x3c5a
    3bdc:	34 2d       	mov	r19, r4
    3bde:	25 2d       	mov	r18, r5
    3be0:	87 01       	movw	r16, r14
    3be2:	83 2f       	mov	r24, r19
    3be4:	92 2f       	mov	r25, r18
    3be6:	7c 01       	movw	r14, r24
    3be8:	f5 01       	movw	r30, r10
    3bea:	80 81       	ld	r24, Z
    3bec:	91 81       	ldd	r25, Z+1	; 0x01
    3bee:	b4 01       	movw	r22, r8
    3bf0:	a5 01       	movw	r20, r10
    3bf2:	0e 94 d2 15 	call	0x2ba4	;  0x2ba4
    3bf6:	88 23       	and	r24, r24
    3bf8:	29 f4       	brne	.+10     	;  0x3c04
    3bfa:	2f c0       	rjmp	.+94     	;  0x3c5a
    3bfc:	31 96       	adiw	r30, 0x01	; 1
    3bfe:	d5 01       	movw	r26, r10
    3c00:	ed 93       	st	X+, r30
    3c02:	fc 93       	st	X, r31
    3c04:	d5 01       	movw	r26, r10
    3c06:	ed 91       	ld	r30, X+
    3c08:	fc 91       	ld	r31, X
    3c0a:	80 81       	ld	r24, Z
    3c0c:	8f 32       	cpi	r24, 0x2F	; 47
    3c0e:	b1 f3       	breq	.-20     	;  0x3bfc
    3c10:	88 23       	and	r24, r24
    3c12:	c9 f0       	breq	.+50     	;  0x3c46
    3c14:	c7 01       	movw	r24, r14
    3c16:	b8 01       	movw	r22, r16
    3c18:	a4 01       	movw	r20, r8
    3c1a:	21 e0       	ldi	r18, 0x01	; 1
    3c1c:	0e 94 b3 1c 	call	0x3966	;  0x3966
    3c20:	88 23       	and	r24, r24
    3c22:	d9 f0       	breq	.+54     	;  0x3c5a
    3c24:	0c 15       	cp	r16, r12
    3c26:	1d 05       	cpc	r17, r13
    3c28:	19 f0       	breq	.+6      	;  0x3c30
    3c2a:	c8 01       	movw	r24, r16
    3c2c:	0e 94 3a 17 	call	0x2e74	;  0x2e74
    3c30:	27 96       	adiw	r28, 0x07	; 7
    3c32:	ee ad       	ldd	r30, Y+62	; 0x3e
    3c34:	ff ad       	ldd	r31, Y+63	; 0x3f
    3c36:	27 97       	sbiw	r28, 0x07	; 7
    3c38:	ee 16       	cp	r14, r30
    3c3a:	ff 06       	cpc	r15, r31
    3c3c:	79 f6       	brne	.-98     	;  0x3bdc
    3c3e:	c1 01       	movw	r24, r2
    3c40:	32 2d       	mov	r19, r2
    3c42:	29 2f       	mov	r18, r25
    3c44:	cd cf       	rjmp	.-102    	;  0x3be0
    3c46:	c3 01       	movw	r24, r6
    3c48:	b8 01       	movw	r22, r16
    3c4a:	a4 01       	movw	r20, r8
    3c4c:	25 96       	adiw	r28, 0x05	; 5
    3c4e:	2f ad       	ldd	r18, Y+63	; 0x3f
    3c50:	25 97       	sbiw	r28, 0x05	; 5
    3c52:	0e 94 b3 1c 	call	0x3966	;  0x3966
    3c56:	18 2f       	mov	r17, r24
    3c58:	01 c0       	rjmp	.+2      	;  0x3c5c
    3c5a:	10 e0       	ldi	r17, 0x00	; 0
    3c5c:	ce 01       	movw	r24, r28
    3c5e:	87 96       	adiw	r24, 0x27	; 39
    3c60:	0e 94 44 17 	call	0x2e88	;  0x2e88
    3c64:	ce 01       	movw	r24, r28
    3c66:	0c 96       	adiw	r24, 0x0c	; 12
    3c68:	0e 94 44 17 	call	0x2e88	;  0x2e88
    3c6c:	81 2f       	mov	r24, r17
    3c6e:	ca 5b       	subi	r28, 0xBA	; 186
    3c70:	df 4f       	sbci	r29, 0xFF	; 255
    3c72:	0f b6       	in	r0, 0x3f	; 63
    3c74:	f8 94       	cli
    3c76:	de bf       	out	0x3e, r29	; 62
    3c78:	0f be       	out	0x3f, r0	; 63
    3c7a:	cd bf       	out	0x3d, r28	; 61
    3c7c:	cf 91       	pop	r28
    3c7e:	df 91       	pop	r29
    3c80:	1f 91       	pop	r17
    3c82:	0f 91       	pop	r16
    3c84:	ff 90       	pop	r15
    3c86:	ef 90       	pop	r14
    3c88:	df 90       	pop	r13
    3c8a:	cf 90       	pop	r12
    3c8c:	bf 90       	pop	r11
    3c8e:	af 90       	pop	r10
    3c90:	9f 90       	pop	r9
    3c92:	8f 90       	pop	r8
    3c94:	7f 90       	pop	r7
    3c96:	6f 90       	pop	r6
    3c98:	5f 90       	pop	r5
    3c9a:	4f 90       	pop	r4
    3c9c:	3f 90       	pop	r3
    3c9e:	2f 90       	pop	r2
    3ca0:	08 95       	ret
    3ca2:	fb 01       	movw	r30, r22
    3ca4:	24 2f       	mov	r18, r20
    3ca6:	60 91 46 04 	lds	r22, 0x0446
    3caa:	70 91 47 04 	lds	r23, 0x0447
    3cae:	af 01       	movw	r20, r30
    3cb0:	0e 94 7f 1d 	call	0x3afe	;  0x3afe
    3cb4:	08 95       	ret
    3cb6:	0f 93       	push	r16
    3cb8:	1f 93       	push	r17
    3cba:	cf 93       	push	r28
    3cbc:	df 93       	push	r29
    3cbe:	ec 01       	movw	r28, r24
    3cc0:	66 23       	and	r22, r22
    3cc2:	31 f0       	breq	.+12     	;  0x3cd0
    3cc4:	a3 96       	adiw	r28, 0x23	; 35
    3cc6:	d0 93 47 04 	sts	0x0447, r29
    3cca:	c0 93 46 04 	sts	0x0446, r28
    3cce:	a3 97       	sbiw	r28, 0x23	; 35
    3cd0:	8e 01       	movw	r16, r28
    3cd2:	0d 5d       	subi	r16, 0xDD	; 221
    3cd4:	1f 4f       	sbci	r17, 0xFF	; 255
    3cd6:	c8 01       	movw	r24, r16
    3cd8:	0e 94 3a 17 	call	0x2e74	;  0x2e74
    3cdc:	25 96       	adiw	r28, 0x05	; 5
    3cde:	c8 01       	movw	r24, r16
    3ce0:	be 01       	movw	r22, r28
    3ce2:	0e 94 72 19 	call	0x32e4	;  0x32e4
    3ce6:	df 91       	pop	r29
    3ce8:	cf 91       	pop	r28
    3cea:	1f 91       	pop	r17
    3cec:	0f 91       	pop	r16
    3cee:	08 95       	ret
    3cf0:	0f 93       	push	r16
    3cf2:	1f 93       	push	r17
    3cf4:	cf 93       	push	r28
    3cf6:	df 93       	push	r29
    3cf8:	ec 01       	movw	r28, r24
    3cfa:	0e 94 fe 14 	call	0x29fc	;  0x29fc
    3cfe:	88 23       	and	r24, r24
    3d00:	c9 f0       	breq	.+50     	;  0x3d34
    3d02:	8e 01       	movw	r16, r28
    3d04:	0b 5f       	subi	r16, 0xFB	; 251
    3d06:	1f 4f       	sbci	r17, 0xFF	; 255
    3d08:	c8 01       	movw	r24, r16
    3d0a:	be 01       	movw	r22, r28
    3d0c:	41 e0       	ldi	r20, 0x01	; 1
    3d0e:	0e 94 30 1f 	call	0x3e60	;  0x3e60
    3d12:	88 23       	and	r24, r24
    3d14:	39 f4       	brne	.+14     	;  0x3d24
    3d16:	c8 01       	movw	r24, r16
    3d18:	be 01       	movw	r22, r28
    3d1a:	40 e0       	ldi	r20, 0x00	; 0
    3d1c:	0e 94 30 1f 	call	0x3e60	;  0x3e60
    3d20:	88 23       	and	r24, r24
    3d22:	41 f0       	breq	.+16     	;  0x3d34
    3d24:	ce 01       	movw	r24, r28
    3d26:	61 e0       	ldi	r22, 0x01	; 1
    3d28:	0e 94 5b 1e 	call	0x3cb6	;  0x3cb6
    3d2c:	88 23       	and	r24, r24
    3d2e:	19 f0       	breq	.+6      	;  0x3d36
    3d30:	81 e0       	ldi	r24, 0x01	; 1
    3d32:	01 c0       	rjmp	.+2      	;  0x3d36
    3d34:	80 e0       	ldi	r24, 0x00	; 0
    3d36:	df 91       	pop	r29
    3d38:	cf 91       	pop	r28
    3d3a:	1f 91       	pop	r17
    3d3c:	0f 91       	pop	r16
    3d3e:	08 95       	ret
    3d40:	df 93       	push	r29
    3d42:	cf 93       	push	r28
    3d44:	0f 92       	push	r0
    3d46:	cd b7       	in	r28, 0x3d	; 61
    3d48:	de b7       	in	r29, 0x3e	; 62
    3d4a:	69 83       	std	Y+1, r22	; 0x01
    3d4c:	04 96       	adiw	r24, 0x04	; 4
    3d4e:	be 01       	movw	r22, r28
    3d50:	6f 5f       	subi	r22, 0xFF	; 255
    3d52:	7f 4f       	sbci	r23, 0xFF	; 255
    3d54:	41 e0       	ldi	r20, 0x01	; 1
    3d56:	50 e0       	ldi	r21, 0x00	; 0
    3d58:	0e 94 75 1a 	call	0x34ea	;  0x34ea
    3d5c:	20 e0       	ldi	r18, 0x00	; 0
    3d5e:	30 e0       	ldi	r19, 0x00	; 0
    3d60:	01 97       	sbiw	r24, 0x01	; 1
    3d62:	11 f4       	brne	.+4      	;  0x3d68
    3d64:	21 e0       	ldi	r18, 0x01	; 1
    3d66:	30 e0       	ldi	r19, 0x00	; 0
    3d68:	c9 01       	movw	r24, r18
    3d6a:	0f 90       	pop	r0
    3d6c:	cf 91       	pop	r28
    3d6e:	df 91       	pop	r29
    3d70:	08 95       	ret
    3d72:	80 91 50 06 	lds	r24, 0x0650
    3d76:	88 23       	and	r24, r24
    3d78:	99 f1       	breq	.+102    	;  0x3de0
    3d7a:	40 91 4a 04 	lds	r20, 0x044A
    3d7e:	50 91 4b 04 	lds	r21, 0x044B
    3d82:	60 91 4c 04 	lds	r22, 0x044C
    3d86:	70 91 4d 04 	lds	r23, 0x044D
    3d8a:	80 91 4e 06 	lds	r24, 0x064E
    3d8e:	90 91 4f 06 	lds	r25, 0x064F
    3d92:	2e e4       	ldi	r18, 0x4E	; 78
    3d94:	34 e0       	ldi	r19, 0x04	; 4
    3d96:	0e 94 0f 14 	call	0x281e	;  0x281e
    3d9a:	88 23       	and	r24, r24
    3d9c:	19 f1       	breq	.+70     	;  0x3de4
    3d9e:	40 91 51 06 	lds	r20, 0x0651
    3da2:	50 91 52 06 	lds	r21, 0x0652
    3da6:	60 91 53 06 	lds	r22, 0x0653
    3daa:	70 91 54 06 	lds	r23, 0x0654
    3dae:	41 15       	cp	r20, r1
    3db0:	51 05       	cpc	r21, r1
    3db2:	61 05       	cpc	r22, r1
    3db4:	71 05       	cpc	r23, r1
    3db6:	91 f0       	breq	.+36     	;  0x3ddc
    3db8:	80 91 4e 06 	lds	r24, 0x064E
    3dbc:	90 91 4f 06 	lds	r25, 0x064F
    3dc0:	2e e4       	ldi	r18, 0x4E	; 78
    3dc2:	34 e0       	ldi	r19, 0x04	; 4
    3dc4:	0e 94 0f 14 	call	0x281e	;  0x281e
    3dc8:	88 23       	and	r24, r24
    3dca:	61 f0       	breq	.+24     	;  0x3de4
    3dcc:	10 92 51 06 	sts	0x0651, r1
    3dd0:	10 92 52 06 	sts	0x0652, r1
    3dd4:	10 92 53 06 	sts	0x0653, r1
    3dd8:	10 92 54 06 	sts	0x0654, r1
    3ddc:	10 92 50 06 	sts	0x0650, r1
    3de0:	81 e0       	ldi	r24, 0x01	; 1
    3de2:	08 95       	ret
    3de4:	80 e0       	ldi	r24, 0x00	; 0
    3de6:	08 95       	ret
    3de8:	df 92       	push	r13
    3dea:	ef 92       	push	r14
    3dec:	ff 92       	push	r15
    3dee:	0f 93       	push	r16
    3df0:	1f 93       	push	r17
    3df2:	7b 01       	movw	r14, r22
    3df4:	8c 01       	movw	r16, r24
    3df6:	d4 2e       	mov	r13, r20
    3df8:	80 91 4a 04 	lds	r24, 0x044A
    3dfc:	90 91 4b 04 	lds	r25, 0x044B
    3e00:	a0 91 4c 04 	lds	r26, 0x044C
    3e04:	b0 91 4d 04 	lds	r27, 0x044D
    3e08:	8e 15       	cp	r24, r14
    3e0a:	9f 05       	cpc	r25, r15
    3e0c:	a0 07       	cpc	r26, r16
    3e0e:	b1 07       	cpc	r27, r17
    3e10:	c1 f0       	breq	.+48     	;  0x3e42
    3e12:	0e 94 b9 1e 	call	0x3d72	;  0x3d72
    3e16:	88 23       	and	r24, r24
    3e18:	e1 f0       	breq	.+56     	;  0x3e52
    3e1a:	80 91 4e 06 	lds	r24, 0x064E
    3e1e:	90 91 4f 06 	lds	r25, 0x064F
    3e22:	b8 01       	movw	r22, r16
    3e24:	a7 01       	movw	r20, r14
    3e26:	2e e4       	ldi	r18, 0x4E	; 78
    3e28:	34 e0       	ldi	r19, 0x04	; 4
    3e2a:	0e 94 ca 14 	call	0x2994	;  0x2994
    3e2e:	88 23       	and	r24, r24
    3e30:	81 f0       	breq	.+32     	;  0x3e52
    3e32:	e0 92 4a 04 	sts	0x044A, r14
    3e36:	f0 92 4b 04 	sts	0x044B, r15
    3e3a:	00 93 4c 04 	sts	0x044C, r16
    3e3e:	10 93 4d 04 	sts	0x044D, r17
    3e42:	dd 20       	and	r13, r13
    3e44:	11 f4       	brne	.+4      	;  0x3e4a
    3e46:	81 e0       	ldi	r24, 0x01	; 1
    3e48:	05 c0       	rjmp	.+10     	;  0x3e54
    3e4a:	81 e0       	ldi	r24, 0x01	; 1
    3e4c:	80 93 50 06 	sts	0x0650, r24
    3e50:	01 c0       	rjmp	.+2      	;  0x3e54
    3e52:	80 e0       	ldi	r24, 0x00	; 0
    3e54:	1f 91       	pop	r17
    3e56:	0f 91       	pop	r16
    3e58:	ff 90       	pop	r15
    3e5a:	ef 90       	pop	r14
    3e5c:	df 90       	pop	r13
    3e5e:	08 95       	ret
    3e60:	8f 92       	push	r8
    3e62:	9f 92       	push	r9
    3e64:	af 92       	push	r10
    3e66:	bf 92       	push	r11
    3e68:	cf 92       	push	r12
    3e6a:	df 92       	push	r13
    3e6c:	ef 92       	push	r14
    3e6e:	ff 92       	push	r15
    3e70:	0f 93       	push	r16
    3e72:	1f 93       	push	r17
    3e74:	cf 93       	push	r28
    3e76:	df 93       	push	r29
    3e78:	6c 01       	movw	r12, r24
    3e7a:	14 2f       	mov	r17, r20
    3e7c:	70 93 4f 06 	sts	0x064F, r23
    3e80:	60 93 4e 06 	sts	0x064E, r22
    3e84:	fc 01       	movw	r30, r24
    3e86:	17 8a       	std	Z+23, r1	; 0x17
    3e88:	82 e0       	ldi	r24, 0x02	; 2
    3e8a:	90 e0       	ldi	r25, 0x00	; 0
    3e8c:	a0 e0       	ldi	r26, 0x00	; 0
    3e8e:	b0 e0       	ldi	r27, 0x00	; 0
    3e90:	80 83       	st	Z, r24
    3e92:	91 83       	std	Z+1, r25	; 0x01
    3e94:	a2 83       	std	Z+2, r26	; 0x02
    3e96:	b3 83       	std	Z+3, r27	; 0x03
    3e98:	10 92 50 06 	sts	0x0650, r1
    3e9c:	10 92 51 06 	sts	0x0651, r1
    3ea0:	10 92 52 06 	sts	0x0652, r1
    3ea4:	10 92 53 06 	sts	0x0653, r1
    3ea8:	10 92 54 06 	sts	0x0654, r1
    3eac:	8f ef       	ldi	r24, 0xFF	; 255
    3eae:	9f ef       	ldi	r25, 0xFF	; 255
    3eb0:	af ef       	ldi	r26, 0xFF	; 255
    3eb2:	bf ef       	ldi	r27, 0xFF	; 255
    3eb4:	80 93 4a 04 	sts	0x044A, r24
    3eb8:	90 93 4b 04 	sts	0x044B, r25
    3ebc:	a0 93 4c 04 	sts	0x044C, r26
    3ec0:	b0 93 4d 04 	sts	0x044D, r27
    3ec4:	44 23       	and	r20, r20
    3ec6:	21 f4       	brne	.+8      	;  0x3ed0
    3ec8:	88 24       	eor	r8, r8
    3eca:	99 24       	eor	r9, r9
    3ecc:	54 01       	movw	r10, r8
    3ece:	40 c0       	rjmp	.+128    	;  0x3f50
    3ed0:	45 30       	cpi	r20, 0x05	; 5
    3ed2:	08 f0       	brcs	.+2      	;  0x3ed6
    3ed4:	1e c1       	rjmp	.+572    	;  0x4112
    3ed6:	60 e0       	ldi	r22, 0x00	; 0
    3ed8:	70 e0       	ldi	r23, 0x00	; 0
    3eda:	80 e0       	ldi	r24, 0x00	; 0
    3edc:	90 e0       	ldi	r25, 0x00	; 0
    3ede:	40 e0       	ldi	r20, 0x00	; 0
    3ee0:	0e 94 f4 1e 	call	0x3de8	;  0x3de8
    3ee4:	88 23       	and	r24, r24
    3ee6:	09 f4       	brne	.+2      	;  0x3eea
    3ee8:	14 c1       	rjmp	.+552    	;  0x4112
    3eea:	c1 2f       	mov	r28, r17
    3eec:	d0 e0       	ldi	r29, 0x00	; 0
    3eee:	21 97       	sbiw	r28, 0x01	; 1
    3ef0:	fe 01       	movw	r30, r28
    3ef2:	74 e0       	ldi	r23, 0x04	; 4
    3ef4:	ee 0f       	add	r30, r30
    3ef6:	ff 1f       	adc	r31, r31
    3ef8:	7a 95       	dec	r23
    3efa:	e1 f7       	brne	.-8      	;  0x3ef4
    3efc:	e2 5b       	subi	r30, 0xB2	; 178
    3efe:	fb 4f       	sbci	r31, 0xFB	; 251
    3f00:	e2 54       	subi	r30, 0x42	; 66
    3f02:	fe 4f       	sbci	r31, 0xFE	; 254
    3f04:	80 81       	ld	r24, Z
    3f06:	ee 5b       	subi	r30, 0xBE	; 190
    3f08:	f1 40       	sbci	r31, 0x01	; 1
    3f0a:	90 e0       	ldi	r25, 0x00	; 0
    3f0c:	8f 77       	andi	r24, 0x7F	; 127
    3f0e:	90 70       	andi	r25, 0x00	; 0
    3f10:	89 2b       	or	r24, r25
    3f12:	09 f0       	breq	.+2      	;  0x3f16
    3f14:	fe c0       	rjmp	.+508    	;  0x4112
    3f16:	e6 53       	subi	r30, 0x36	; 54
    3f18:	fe 4f       	sbci	r31, 0xFE	; 254
    3f1a:	80 81       	ld	r24, Z
    3f1c:	91 81       	ldd	r25, Z+1	; 0x01
    3f1e:	a2 81       	ldd	r26, Z+2	; 0x02
    3f20:	b3 81       	ldd	r27, Z+3	; 0x03
    3f22:	84 36       	cpi	r24, 0x64	; 100
    3f24:	91 05       	cpc	r25, r1
    3f26:	a1 05       	cpc	r26, r1
    3f28:	b1 05       	cpc	r27, r1
    3f2a:	08 f4       	brcc	.+2      	;  0x3f2e
    3f2c:	f2 c0       	rjmp	.+484    	;  0x4112
    3f2e:	64 e0       	ldi	r22, 0x04	; 4
    3f30:	cc 0f       	add	r28, r28
    3f32:	dd 1f       	adc	r29, r29
    3f34:	6a 95       	dec	r22
    3f36:	e1 f7       	brne	.-8      	;  0x3f30
    3f38:	cc 5e       	subi	r28, 0xEC	; 236
    3f3a:	d9 4f       	sbci	r29, 0xF9	; 249
    3f3c:	88 80       	ld	r8, Y
    3f3e:	99 80       	ldd	r9, Y+1	; 0x01
    3f40:	aa 80       	ldd	r10, Y+2	; 0x02
    3f42:	bb 80       	ldd	r11, Y+3	; 0x03
    3f44:	81 14       	cp	r8, r1
    3f46:	91 04       	cpc	r9, r1
    3f48:	a1 04       	cpc	r10, r1
    3f4a:	b1 04       	cpc	r11, r1
    3f4c:	09 f4       	brne	.+2      	;  0x3f50
    3f4e:	e1 c0       	rjmp	.+450    	;  0x4112
    3f50:	c5 01       	movw	r24, r10
    3f52:	b4 01       	movw	r22, r8
    3f54:	40 e0       	ldi	r20, 0x00	; 0
    3f56:	0e 94 f4 1e 	call	0x3de8	;  0x3de8
    3f5a:	88 23       	and	r24, r24
    3f5c:	09 f4       	brne	.+2      	;  0x3f60
    3f5e:	d9 c0       	rjmp	.+434    	;  0x4112
    3f60:	80 91 59 04 	lds	r24, 0x0459
    3f64:	90 91 5a 04 	lds	r25, 0x045A
    3f68:	80 50       	subi	r24, 0x00	; 0
    3f6a:	92 40       	sbci	r25, 0x02	; 2
    3f6c:	09 f0       	breq	.+2      	;  0x3f70
    3f6e:	d1 c0       	rjmp	.+418    	;  0x4112
    3f70:	20 91 5e 04 	lds	r18, 0x045E
    3f74:	22 23       	and	r18, r18
    3f76:	09 f4       	brne	.+2      	;  0x3f7a
    3f78:	cc c0       	rjmp	.+408    	;  0x4112
    3f7a:	80 91 5c 04 	lds	r24, 0x045C
    3f7e:	90 91 5d 04 	lds	r25, 0x045D
    3f82:	89 2b       	or	r24, r25
    3f84:	09 f4       	brne	.+2      	;  0x3f88
    3f86:	c5 c0       	rjmp	.+394    	;  0x4112
    3f88:	80 91 5b 04 	lds	r24, 0x045B
    3f8c:	88 23       	and	r24, r24
    3f8e:	09 f4       	brne	.+2      	;  0x3f92
    3f90:	c0 c0       	rjmp	.+384    	;  0x4112
    3f92:	f6 01       	movw	r30, r12
    3f94:	22 8b       	std	Z+18, r18	; 0x12
    3f96:	80 91 5b 04 	lds	r24, 0x045B
    3f9a:	84 83       	std	Z+4, r24	; 0x04
    3f9c:	15 86       	std	Z+13, r1	; 0x0d
    3f9e:	61 e0       	ldi	r22, 0x01	; 1
    3fa0:	70 e0       	ldi	r23, 0x00	; 0
    3fa2:	07 c0       	rjmp	.+14     	;  0x3fb2
    3fa4:	4f 5f       	subi	r20, 0xFF	; 255
    3fa6:	f6 01       	movw	r30, r12
    3fa8:	45 87       	std	Z+13, r20	; 0x0d
    3faa:	41 50       	subi	r20, 0x01	; 1
    3fac:	48 30       	cpi	r20, 0x08	; 8
    3fae:	08 f0       	brcs	.+2      	;  0x3fb2
    3fb0:	b0 c0       	rjmp	.+352    	;  0x4112
    3fb2:	f6 01       	movw	r30, r12
    3fb4:	45 85       	ldd	r20, Z+13	; 0x0d
    3fb6:	84 81       	ldd	r24, Z+4	; 0x04
    3fb8:	90 e0       	ldi	r25, 0x00	; 0
    3fba:	9b 01       	movw	r18, r22
    3fbc:	04 2e       	mov	r0, r20
    3fbe:	02 c0       	rjmp	.+4      	;  0x3fc4
    3fc0:	22 0f       	add	r18, r18
    3fc2:	33 1f       	adc	r19, r19
    3fc4:	0a 94       	dec	r0
    3fc6:	e2 f7       	brpl	.-8      	;  0x3fc0
    3fc8:	82 17       	cp	r24, r18
    3fca:	93 07       	cpc	r25, r19
    3fcc:	59 f7       	brne	.-42     	;  0x3fa4
    3fce:	20 91 64 04 	lds	r18, 0x0464
    3fd2:	30 91 65 04 	lds	r19, 0x0465
    3fd6:	21 15       	cp	r18, r1
    3fd8:	31 05       	cpc	r19, r1
    3fda:	19 f0       	breq	.+6      	;  0x3fe2
    3fdc:	40 e0       	ldi	r20, 0x00	; 0
    3fde:	50 e0       	ldi	r21, 0x00	; 0
    3fe0:	08 c0       	rjmp	.+16     	;  0x3ff2
    3fe2:	20 91 72 04 	lds	r18, 0x0472
    3fe6:	30 91 73 04 	lds	r19, 0x0473
    3fea:	40 91 74 04 	lds	r20, 0x0474
    3fee:	50 91 75 04 	lds	r21, 0x0475
    3ff2:	f6 01       	movw	r30, r12
    3ff4:	25 83       	std	Z+5, r18	; 0x05
    3ff6:	36 83       	std	Z+6, r19	; 0x06
    3ff8:	47 83       	std	Z+7, r20	; 0x07
    3ffa:	50 87       	std	Z+8, r21	; 0x08
    3ffc:	e0 90 5c 04 	lds	r14, 0x045C
    4000:	f0 90 5d 04 	lds	r15, 0x045D
    4004:	00 e0       	ldi	r16, 0x00	; 0
    4006:	10 e0       	ldi	r17, 0x00	; 0
    4008:	e8 0c       	add	r14, r8
    400a:	f9 1c       	adc	r15, r9
    400c:	0a 1d       	adc	r16, r10
    400e:	1b 1d       	adc	r17, r11
    4010:	e3 8a       	std	Z+19, r14	; 0x13
    4012:	f4 8a       	std	Z+20, r15	; 0x14
    4014:	05 8b       	std	Z+21, r16	; 0x15
    4016:	16 8b       	std	Z+22, r17	; 0x16
    4018:	80 91 5f 04 	lds	r24, 0x045F
    401c:	90 91 60 04 	lds	r25, 0x0460
    4020:	91 8f       	std	Z+25, r25	; 0x19
    4022:	80 8f       	std	Z+24, r24	; 0x18
    4024:	60 91 5e 04 	lds	r22, 0x045E
    4028:	70 e0       	ldi	r23, 0x00	; 0
    402a:	80 e0       	ldi	r24, 0x00	; 0
    402c:	90 e0       	ldi	r25, 0x00	; 0
    402e:	0e 94 a3 2e 	call	0x5d46	;  0x5d46
    4032:	6e 0d       	add	r22, r14
    4034:	7f 1d       	adc	r23, r15
    4036:	80 1f       	adc	r24, r16
    4038:	91 1f       	adc	r25, r17
    403a:	f6 01       	movw	r30, r12
    403c:	62 8f       	std	Z+26, r22	; 0x1a
    403e:	73 8f       	std	Z+27, r23	; 0x1b
    4040:	84 8f       	std	Z+28, r24	; 0x1c
    4042:	95 8f       	std	Z+29, r25	; 0x1d
    4044:	20 91 5f 04 	lds	r18, 0x045F
    4048:	30 91 60 04 	lds	r19, 0x0460
    404c:	55 e0       	ldi	r21, 0x05	; 5
    404e:	22 0f       	add	r18, r18
    4050:	33 1f       	adc	r19, r19
    4052:	5a 95       	dec	r21
    4054:	e1 f7       	brne	.-8      	;  0x404e
    4056:	21 50       	subi	r18, 0x01	; 1
    4058:	3e 4f       	sbci	r19, 0xFE	; 254
    405a:	23 2f       	mov	r18, r19
    405c:	33 27       	eor	r19, r19
    405e:	26 95       	lsr	r18
    4060:	40 e0       	ldi	r20, 0x00	; 0
    4062:	50 e0       	ldi	r21, 0x00	; 0
    4064:	26 0f       	add	r18, r22
    4066:	37 1f       	adc	r19, r23
    4068:	48 1f       	adc	r20, r24
    406a:	59 1f       	adc	r21, r25
    406c:	26 87       	std	Z+14, r18	; 0x0e
    406e:	37 87       	std	Z+15, r19	; 0x0f
    4070:	40 8b       	std	Z+16, r20	; 0x10
    4072:	51 8b       	std	Z+17, r21	; 0x11
    4074:	80 91 61 04 	lds	r24, 0x0461
    4078:	90 91 62 04 	lds	r25, 0x0462
    407c:	00 97       	sbiw	r24, 0x00	; 0
    407e:	19 f0       	breq	.+6      	;  0x4086
    4080:	a0 e0       	ldi	r26, 0x00	; 0
    4082:	b0 e0       	ldi	r27, 0x00	; 0
    4084:	08 c0       	rjmp	.+16     	;  0x4096
    4086:	80 91 6e 04 	lds	r24, 0x046E
    408a:	90 91 6f 04 	lds	r25, 0x046F
    408e:	a0 91 70 04 	lds	r26, 0x0470
    4092:	b0 91 71 04 	lds	r27, 0x0471
    4096:	85 01       	movw	r16, r10
    4098:	74 01       	movw	r14, r8
    409a:	e2 1a       	sub	r14, r18
    409c:	f3 0a       	sbc	r15, r19
    409e:	04 0b       	sbc	r16, r20
    40a0:	15 0b       	sbc	r17, r21
    40a2:	a8 01       	movw	r20, r16
    40a4:	97 01       	movw	r18, r14
    40a6:	28 0f       	add	r18, r24
    40a8:	39 1f       	adc	r19, r25
    40aa:	4a 1f       	adc	r20, r26
    40ac:	5b 1f       	adc	r21, r27
    40ae:	f6 01       	movw	r30, r12
    40b0:	05 84       	ldd	r0, Z+13	; 0x0d
    40b2:	04 c0       	rjmp	.+8      	;  0x40bc
    40b4:	56 95       	lsr	r21
    40b6:	47 95       	ror	r20
    40b8:	37 95       	ror	r19
    40ba:	27 95       	ror	r18
    40bc:	0a 94       	dec	r0
    40be:	d2 f7       	brpl	.-12     	;  0x40b4
    40c0:	21 87       	std	Z+9, r18	; 0x09
    40c2:	32 87       	std	Z+10, r19	; 0x0a
    40c4:	43 87       	std	Z+11, r20	; 0x0b
    40c6:	54 87       	std	Z+12, r21	; 0x0c
    40c8:	25 3f       	cpi	r18, 0xF5	; 245
    40ca:	ff e0       	ldi	r31, 0x0F	; 15
    40cc:	3f 07       	cpc	r19, r31
    40ce:	f0 e0       	ldi	r31, 0x00	; 0
    40d0:	4f 07       	cpc	r20, r31
    40d2:	f0 e0       	ldi	r31, 0x00	; 0
    40d4:	5f 07       	cpc	r21, r31
    40d6:	20 f4       	brcc	.+8      	;  0x40e0
    40d8:	8c e0       	ldi	r24, 0x0C	; 12
    40da:	f6 01       	movw	r30, r12
    40dc:	87 8b       	std	Z+23, r24	; 0x17
    40de:	19 c0       	rjmp	.+50     	;  0x4112
    40e0:	25 5f       	subi	r18, 0xF5	; 245
    40e2:	3f 4f       	sbci	r19, 0xFF	; 255
    40e4:	40 40       	sbci	r20, 0x00	; 0
    40e6:	50 40       	sbci	r21, 0x00	; 0
    40e8:	18 f4       	brcc	.+6      	;  0x40f0
    40ea:	80 e1       	ldi	r24, 0x10	; 16
    40ec:	f6 01       	movw	r30, r12
    40ee:	0e c0       	rjmp	.+28     	;  0x410c
    40f0:	80 91 7a 04 	lds	r24, 0x047A
    40f4:	90 91 7b 04 	lds	r25, 0x047B
    40f8:	a0 91 7c 04 	lds	r26, 0x047C
    40fc:	b0 91 7d 04 	lds	r27, 0x047D
    4100:	f6 01       	movw	r30, r12
    4102:	82 8f       	std	Z+26, r24	; 0x1a
    4104:	93 8f       	std	Z+27, r25	; 0x1b
    4106:	a4 8f       	std	Z+28, r26	; 0x1c
    4108:	b5 8f       	std	Z+29, r27	; 0x1d
    410a:	80 e2       	ldi	r24, 0x20	; 32
    410c:	87 8b       	std	Z+23, r24	; 0x17
    410e:	81 e0       	ldi	r24, 0x01	; 1
    4110:	01 c0       	rjmp	.+2      	;  0x4114
    4112:	80 e0       	ldi	r24, 0x00	; 0
    4114:	df 91       	pop	r29
    4116:	cf 91       	pop	r28
    4118:	1f 91       	pop	r17
    411a:	0f 91       	pop	r16
    411c:	ff 90       	pop	r15
    411e:	ef 90       	pop	r14
    4120:	df 90       	pop	r13
    4122:	cf 90       	pop	r12
    4124:	bf 90       	pop	r11
    4126:	af 90       	pop	r10
    4128:	9f 90       	pop	r9
    412a:	8f 90       	pop	r8
    412c:	08 95       	ret
    412e:	6f 92       	push	r6
    4130:	7f 92       	push	r7
    4132:	8f 92       	push	r8
    4134:	9f 92       	push	r9
    4136:	af 92       	push	r10
    4138:	bf 92       	push	r11
    413a:	cf 92       	push	r12
    413c:	df 92       	push	r13
    413e:	ef 92       	push	r14
    4140:	ff 92       	push	r15
    4142:	0f 93       	push	r16
    4144:	1f 93       	push	r17
    4146:	cf 93       	push	r28
    4148:	df 93       	push	r29
    414a:	ec 01       	movw	r28, r24
    414c:	5a 01       	movw	r10, r20
    414e:	6b 01       	movw	r12, r22
    4150:	38 01       	movw	r6, r16
    4152:	49 01       	movw	r8, r18
    4154:	42 30       	cpi	r20, 0x02	; 2
    4156:	51 05       	cpc	r21, r1
    4158:	61 05       	cpc	r22, r1
    415a:	71 05       	cpc	r23, r1
    415c:	08 f4       	brcc	.+2      	;  0x4160
    415e:	5e c0       	rjmp	.+188    	;  0x421c
    4160:	89 85       	ldd	r24, Y+9	; 0x09
    4162:	9a 85       	ldd	r25, Y+10	; 0x0a
    4164:	ab 85       	ldd	r26, Y+11	; 0x0b
    4166:	bc 85       	ldd	r27, Y+12	; 0x0c
    4168:	01 96       	adiw	r24, 0x01	; 1
    416a:	a1 1d       	adc	r26, r1
    416c:	b1 1d       	adc	r27, r1
    416e:	84 17       	cp	r24, r20
    4170:	95 07       	cpc	r25, r21
    4172:	a6 07       	cpc	r26, r22
    4174:	b7 07       	cpc	r27, r23
    4176:	08 f4       	brcc	.+2      	;  0x417a
    4178:	51 c0       	rjmp	.+162    	;  0x421c
    417a:	8f 89       	ldd	r24, Y+23	; 0x17
    417c:	80 31       	cpi	r24, 0x10	; 16
    417e:	29 f4       	brne	.+10     	;  0x418a
    4180:	e5 2e       	mov	r14, r21
    4182:	f6 2e       	mov	r15, r22
    4184:	07 2f       	mov	r16, r23
    4186:	11 27       	eor	r17, r17
    4188:	0c c0       	rjmp	.+24     	;  0x41a2
    418a:	80 32       	cpi	r24, 0x20	; 32
    418c:	09 f0       	breq	.+2      	;  0x4190
    418e:	46 c0       	rjmp	.+140    	;  0x421c
    4190:	7a 01       	movw	r14, r20
    4192:	8b 01       	movw	r16, r22
    4194:	87 e0       	ldi	r24, 0x07	; 7
    4196:	16 95       	lsr	r17
    4198:	07 95       	ror	r16
    419a:	f7 94       	ror	r15
    419c:	e7 94       	ror	r14
    419e:	8a 95       	dec	r24
    41a0:	d1 f7       	brne	.-12     	;  0x4196
    41a2:	8b 89       	ldd	r24, Y+19	; 0x13
    41a4:	9c 89       	ldd	r25, Y+20	; 0x14
    41a6:	ad 89       	ldd	r26, Y+21	; 0x15
    41a8:	be 89       	ldd	r27, Y+22	; 0x16
    41aa:	e8 0e       	add	r14, r24
    41ac:	f9 1e       	adc	r15, r25
    41ae:	0a 1f       	adc	r16, r26
    41b0:	1b 1f       	adc	r17, r27
    41b2:	c8 01       	movw	r24, r16
    41b4:	b7 01       	movw	r22, r14
    41b6:	41 e0       	ldi	r20, 0x01	; 1
    41b8:	0e 94 f4 1e 	call	0x3de8	;  0x3de8
    41bc:	88 23       	and	r24, r24
    41be:	71 f1       	breq	.+92     	;  0x421c
    41c0:	8f 89       	ldd	r24, Y+23	; 0x17
    41c2:	80 31       	cpi	r24, 0x10	; 16
    41c4:	49 f4       	brne	.+18     	;  0x41d8
    41c6:	f5 01       	movw	r30, r10
    41c8:	f0 70       	andi	r31, 0x00	; 0
    41ca:	ee 0f       	add	r30, r30
    41cc:	ff 1f       	adc	r31, r31
    41ce:	e2 5b       	subi	r30, 0xB2	; 178
    41d0:	fb 4f       	sbci	r31, 0xFB	; 251
    41d2:	71 82       	std	Z+1, r7	; 0x01
    41d4:	60 82       	st	Z, r6
    41d6:	0d c0       	rjmp	.+26     	;  0x41f2
    41d8:	f5 01       	movw	r30, r10
    41da:	ef 77       	andi	r30, 0x7F	; 127
    41dc:	f0 70       	andi	r31, 0x00	; 0
    41de:	ee 0f       	add	r30, r30
    41e0:	ff 1f       	adc	r31, r31
    41e2:	ee 0f       	add	r30, r30
    41e4:	ff 1f       	adc	r31, r31
    41e6:	e2 5b       	subi	r30, 0xB2	; 178
    41e8:	fb 4f       	sbci	r31, 0xFB	; 251
    41ea:	60 82       	st	Z, r6
    41ec:	71 82       	std	Z+1, r7	; 0x01
    41ee:	82 82       	std	Z+2, r8	; 0x02
    41f0:	93 82       	std	Z+3, r9	; 0x03
    41f2:	8a 89       	ldd	r24, Y+18	; 0x12
    41f4:	82 30       	cpi	r24, 0x02	; 2
    41f6:	80 f0       	brcs	.+32     	;  0x4218
    41f8:	8d 81       	ldd	r24, Y+5	; 0x05
    41fa:	9e 81       	ldd	r25, Y+6	; 0x06
    41fc:	af 81       	ldd	r26, Y+7	; 0x07
    41fe:	b8 85       	ldd	r27, Y+8	; 0x08
    4200:	e8 0e       	add	r14, r24
    4202:	f9 1e       	adc	r15, r25
    4204:	0a 1f       	adc	r16, r26
    4206:	1b 1f       	adc	r17, r27
    4208:	e0 92 51 06 	sts	0x0651, r14
    420c:	f0 92 52 06 	sts	0x0652, r15
    4210:	00 93 53 06 	sts	0x0653, r16
    4214:	10 93 54 06 	sts	0x0654, r17
    4218:	81 e0       	ldi	r24, 0x01	; 1
    421a:	01 c0       	rjmp	.+2      	;  0x421e
    421c:	80 e0       	ldi	r24, 0x00	; 0
    421e:	df 91       	pop	r29
    4220:	cf 91       	pop	r28
    4222:	1f 91       	pop	r17
    4224:	0f 91       	pop	r16
    4226:	ff 90       	pop	r15
    4228:	ef 90       	pop	r14
    422a:	df 90       	pop	r13
    422c:	cf 90       	pop	r12
    422e:	bf 90       	pop	r11
    4230:	af 90       	pop	r10
    4232:	9f 90       	pop	r9
    4234:	8f 90       	pop	r8
    4236:	7f 90       	pop	r7
    4238:	6f 90       	pop	r6
    423a:	08 95       	ret
    423c:	cf 92       	push	r12
    423e:	df 92       	push	r13
    4240:	ef 92       	push	r14
    4242:	ff 92       	push	r15
    4244:	0f 93       	push	r16
    4246:	1f 93       	push	r17
    4248:	cf 93       	push	r28
    424a:	df 93       	push	r29
    424c:	ec 01       	movw	r28, r24
    424e:	7a 01       	movw	r14, r20
    4250:	8b 01       	movw	r16, r22
    4252:	69 01       	movw	r12, r18
    4254:	89 85       	ldd	r24, Y+9	; 0x09
    4256:	9a 85       	ldd	r25, Y+10	; 0x0a
    4258:	ab 85       	ldd	r26, Y+11	; 0x0b
    425a:	bc 85       	ldd	r27, Y+12	; 0x0c
    425c:	01 96       	adiw	r24, 0x01	; 1
    425e:	a1 1d       	adc	r26, r1
    4260:	b1 1d       	adc	r27, r1
    4262:	84 17       	cp	r24, r20
    4264:	95 07       	cpc	r25, r21
    4266:	a6 07       	cpc	r26, r22
    4268:	b7 07       	cpc	r27, r23
    426a:	08 f4       	brcc	.+2      	;  0x426e
    426c:	53 c0       	rjmp	.+166    	;  0x4314
    426e:	8f 89       	ldd	r24, Y+23	; 0x17
    4270:	80 31       	cpi	r24, 0x10	; 16
    4272:	29 f4       	brne	.+10     	;  0x427e
    4274:	55 27       	eor	r21, r21
    4276:	41 2f       	mov	r20, r17
    4278:	30 2f       	mov	r19, r16
    427a:	2f 2d       	mov	r18, r15
    427c:	0c c0       	rjmp	.+24     	;  0x4296
    427e:	80 32       	cpi	r24, 0x20	; 32
    4280:	09 f0       	breq	.+2      	;  0x4284
    4282:	48 c0       	rjmp	.+144    	;  0x4314
    4284:	9a 01       	movw	r18, r20
    4286:	ab 01       	movw	r20, r22
    4288:	67 e0       	ldi	r22, 0x07	; 7
    428a:	56 95       	lsr	r21
    428c:	47 95       	ror	r20
    428e:	37 95       	ror	r19
    4290:	27 95       	ror	r18
    4292:	6a 95       	dec	r22
    4294:	d1 f7       	brne	.-12     	;  0x428a
    4296:	8b 89       	ldd	r24, Y+19	; 0x13
    4298:	9c 89       	ldd	r25, Y+20	; 0x14
    429a:	ad 89       	ldd	r26, Y+21	; 0x15
    429c:	be 89       	ldd	r27, Y+22	; 0x16
    429e:	28 0f       	add	r18, r24
    42a0:	39 1f       	adc	r19, r25
    42a2:	4a 1f       	adc	r20, r26
    42a4:	5b 1f       	adc	r21, r27
    42a6:	80 91 4a 04 	lds	r24, 0x044A
    42aa:	90 91 4b 04 	lds	r25, 0x044B
    42ae:	a0 91 4c 04 	lds	r26, 0x044C
    42b2:	b0 91 4d 04 	lds	r27, 0x044D
    42b6:	28 17       	cp	r18, r24
    42b8:	39 07       	cpc	r19, r25
    42ba:	4a 07       	cpc	r20, r26
    42bc:	5b 07       	cpc	r21, r27
    42be:	39 f0       	breq	.+14     	;  0x42ce
    42c0:	ca 01       	movw	r24, r20
    42c2:	b9 01       	movw	r22, r18
    42c4:	40 e0       	ldi	r20, 0x00	; 0
    42c6:	0e 94 f4 1e 	call	0x3de8	;  0x3de8
    42ca:	88 23       	and	r24, r24
    42cc:	19 f1       	breq	.+70     	;  0x4314
    42ce:	8f 89       	ldd	r24, Y+23	; 0x17
    42d0:	80 31       	cpi	r24, 0x10	; 16
    42d2:	59 f4       	brne	.+22     	;  0x42ea
    42d4:	f7 01       	movw	r30, r14
    42d6:	f0 70       	andi	r31, 0x00	; 0
    42d8:	ee 0f       	add	r30, r30
    42da:	ff 1f       	adc	r31, r31
    42dc:	e2 5b       	subi	r30, 0xB2	; 178
    42de:	fb 4f       	sbci	r31, 0xFB	; 251
    42e0:	80 81       	ld	r24, Z
    42e2:	91 81       	ldd	r25, Z+1	; 0x01
    42e4:	a0 e0       	ldi	r26, 0x00	; 0
    42e6:	b0 e0       	ldi	r27, 0x00	; 0
    42e8:	0e c0       	rjmp	.+28     	;  0x4306
    42ea:	f7 01       	movw	r30, r14
    42ec:	ef 77       	andi	r30, 0x7F	; 127
    42ee:	f0 70       	andi	r31, 0x00	; 0
    42f0:	ee 0f       	add	r30, r30
    42f2:	ff 1f       	adc	r31, r31
    42f4:	ee 0f       	add	r30, r30
    42f6:	ff 1f       	adc	r31, r31
    42f8:	e2 5b       	subi	r30, 0xB2	; 178
    42fa:	fb 4f       	sbci	r31, 0xFB	; 251
    42fc:	80 81       	ld	r24, Z
    42fe:	91 81       	ldd	r25, Z+1	; 0x01
    4300:	a2 81       	ldd	r26, Z+2	; 0x02
    4302:	b3 81       	ldd	r27, Z+3	; 0x03
    4304:	bf 70       	andi	r27, 0x0F	; 15
    4306:	f6 01       	movw	r30, r12
    4308:	80 83       	st	Z, r24
    430a:	91 83       	std	Z+1, r25	; 0x01
    430c:	a2 83       	std	Z+2, r26	; 0x02
    430e:	b3 83       	std	Z+3, r27	; 0x03
    4310:	81 e0       	ldi	r24, 0x01	; 1
    4312:	01 c0       	rjmp	.+2      	;  0x4316
    4314:	80 e0       	ldi	r24, 0x00	; 0
    4316:	df 91       	pop	r29
    4318:	cf 91       	pop	r28
    431a:	1f 91       	pop	r17
    431c:	0f 91       	pop	r16
    431e:	ff 90       	pop	r15
    4320:	ef 90       	pop	r14
    4322:	df 90       	pop	r13
    4324:	cf 90       	pop	r12
    4326:	08 95       	ret
    4328:	af 92       	push	r10
    432a:	bf 92       	push	r11
    432c:	cf 92       	push	r12
    432e:	df 92       	push	r13
    4330:	ef 92       	push	r14
    4332:	ff 92       	push	r15
    4334:	0f 93       	push	r16
    4336:	1f 93       	push	r17
    4338:	df 93       	push	r29
    433a:	cf 93       	push	r28
    433c:	00 d0       	rcall	.+0      	;  0x433e
    433e:	00 d0       	rcall	.+0      	;  0x4340
    4340:	cd b7       	in	r28, 0x3d	; 61
    4342:	de b7       	in	r29, 0x3e	; 62
    4344:	6c 01       	movw	r12, r24
    4346:	7a 01       	movw	r14, r20
    4348:	8b 01       	movw	r16, r22
    434a:	82 e0       	ldi	r24, 0x02	; 2
    434c:	90 e0       	ldi	r25, 0x00	; 0
    434e:	a0 e0       	ldi	r26, 0x00	; 0
    4350:	b0 e0       	ldi	r27, 0x00	; 0
    4352:	f6 01       	movw	r30, r12
    4354:	80 83       	st	Z, r24
    4356:	91 83       	std	Z+1, r25	; 0x01
    4358:	a2 83       	std	Z+2, r26	; 0x02
    435a:	b3 83       	std	Z+3, r27	; 0x03
    435c:	5e 01       	movw	r10, r28
    435e:	08 94       	sec
    4360:	a1 1c       	adc	r10, r1
    4362:	b1 1c       	adc	r11, r1
    4364:	c6 01       	movw	r24, r12
    4366:	b8 01       	movw	r22, r16
    4368:	a7 01       	movw	r20, r14
    436a:	95 01       	movw	r18, r10
    436c:	0e 94 1e 21 	call	0x423c	;  0x423c
    4370:	88 23       	and	r24, r24
    4372:	41 f1       	breq	.+80     	;  0x43c4
    4374:	c6 01       	movw	r24, r12
    4376:	b8 01       	movw	r22, r16
    4378:	a7 01       	movw	r20, r14
    437a:	00 e0       	ldi	r16, 0x00	; 0
    437c:	10 e0       	ldi	r17, 0x00	; 0
    437e:	20 e0       	ldi	r18, 0x00	; 0
    4380:	30 e0       	ldi	r19, 0x00	; 0
    4382:	0e 94 97 20 	call	0x412e	;  0x412e
    4386:	88 23       	and	r24, r24
    4388:	e9 f0       	breq	.+58     	;  0x43c4
    438a:	e9 80       	ldd	r14, Y+1	; 0x01
    438c:	fa 80       	ldd	r15, Y+2	; 0x02
    438e:	0b 81       	ldd	r16, Y+3	; 0x03
    4390:	1c 81       	ldd	r17, Y+4	; 0x04
    4392:	f6 01       	movw	r30, r12
    4394:	87 89       	ldd	r24, Z+23	; 0x17
    4396:	80 31       	cpi	r24, 0x10	; 16
    4398:	51 f4       	brne	.+20     	;  0x43ae
    439a:	f8 ef       	ldi	r31, 0xF8	; 248
    439c:	ef 16       	cp	r14, r31
    439e:	ff ef       	ldi	r31, 0xFF	; 255
    43a0:	ff 06       	cpc	r15, r31
    43a2:	f0 e0       	ldi	r31, 0x00	; 0
    43a4:	0f 07       	cpc	r16, r31
    43a6:	f0 e0       	ldi	r31, 0x00	; 0
    43a8:	1f 07       	cpc	r17, r31
    43aa:	e0 f2       	brcs	.-72     	;  0x4364
    43ac:	09 c0       	rjmp	.+18     	;  0x43c0
    43ae:	88 ef       	ldi	r24, 0xF8	; 248
    43b0:	e8 16       	cp	r14, r24
    43b2:	8f ef       	ldi	r24, 0xFF	; 255
    43b4:	f8 06       	cpc	r15, r24
    43b6:	8f ef       	ldi	r24, 0xFF	; 255
    43b8:	08 07       	cpc	r16, r24
    43ba:	8f e0       	ldi	r24, 0x0F	; 15
    43bc:	18 07       	cpc	r17, r24
    43be:	90 f2       	brcs	.-92     	;  0x4364
    43c0:	81 e0       	ldi	r24, 0x01	; 1
    43c2:	01 c0       	rjmp	.+2      	;  0x43c6
    43c4:	80 e0       	ldi	r24, 0x00	; 0
    43c6:	0f 90       	pop	r0
    43c8:	0f 90       	pop	r0
    43ca:	0f 90       	pop	r0
    43cc:	0f 90       	pop	r0
    43ce:	cf 91       	pop	r28
    43d0:	df 91       	pop	r29
    43d2:	1f 91       	pop	r17
    43d4:	0f 91       	pop	r16
    43d6:	ff 90       	pop	r15
    43d8:	ef 90       	pop	r14
    43da:	df 90       	pop	r13
    43dc:	cf 90       	pop	r12
    43de:	bf 90       	pop	r11
    43e0:	af 90       	pop	r10
    43e2:	08 95       	ret
    43e4:	4f 92       	push	r4
    43e6:	5f 92       	push	r5
    43e8:	6f 92       	push	r6
    43ea:	7f 92       	push	r7
    43ec:	8f 92       	push	r8
    43ee:	9f 92       	push	r9
    43f0:	af 92       	push	r10
    43f2:	bf 92       	push	r11
    43f4:	cf 92       	push	r12
    43f6:	df 92       	push	r13
    43f8:	ef 92       	push	r14
    43fa:	ff 92       	push	r15
    43fc:	0f 93       	push	r16
    43fe:	1f 93       	push	r17
    4400:	df 93       	push	r29
    4402:	cf 93       	push	r28
    4404:	00 d0       	rcall	.+0      	;  0x4406
    4406:	00 d0       	rcall	.+0      	;  0x4408
    4408:	cd b7       	in	r28, 0x3d	; 61
    440a:	de b7       	in	r29, 0x3e	; 62
    440c:	6c 01       	movw	r12, r24
    440e:	49 83       	std	Y+1, r20	; 0x01
    4410:	5a 83       	std	Y+2, r21	; 0x02
    4412:	6b 83       	std	Y+3, r22	; 0x03
    4414:	7c 83       	std	Y+4, r23	; 0x04
    4416:	39 01       	movw	r6, r18
    4418:	ee 24       	eor	r14, r14
    441a:	ff 24       	eor	r15, r15
    441c:	87 01       	movw	r16, r14
    441e:	2e 01       	movw	r4, r28
    4420:	08 94       	sec
    4422:	41 1c       	adc	r4, r1
    4424:	51 1c       	adc	r5, r1
    4426:	81 2c       	mov	r8, r1
    4428:	e2 e0       	ldi	r30, 0x02	; 2
    442a:	9e 2e       	mov	r9, r30
    442c:	a1 2c       	mov	r10, r1
    442e:	b1 2c       	mov	r11, r1
    4430:	49 81       	ldd	r20, Y+1	; 0x01
    4432:	5a 81       	ldd	r21, Y+2	; 0x02
    4434:	6b 81       	ldd	r22, Y+3	; 0x03
    4436:	7c 81       	ldd	r23, Y+4	; 0x04
    4438:	c6 01       	movw	r24, r12
    443a:	92 01       	movw	r18, r4
    443c:	0e 94 1e 21 	call	0x423c	;  0x423c
    4440:	88 23       	and	r24, r24
    4442:	39 f1       	breq	.+78     	;  0x4492
    4444:	d5 01       	movw	r26, r10
    4446:	c4 01       	movw	r24, r8
    4448:	f6 01       	movw	r30, r12
    444a:	05 84       	ldd	r0, Z+13	; 0x0d
    444c:	04 c0       	rjmp	.+8      	;  0x4456
    444e:	88 0f       	add	r24, r24
    4450:	99 1f       	adc	r25, r25
    4452:	aa 1f       	adc	r26, r26
    4454:	bb 1f       	adc	r27, r27
    4456:	0a 94       	dec	r0
    4458:	d2 f7       	brpl	.-12     	;  0x444e
    445a:	e8 0e       	add	r14, r24
    445c:	f9 1e       	adc	r15, r25
    445e:	0a 1f       	adc	r16, r26
    4460:	1b 1f       	adc	r17, r27
    4462:	29 81       	ldd	r18, Y+1	; 0x01
    4464:	3a 81       	ldd	r19, Y+2	; 0x02
    4466:	4b 81       	ldd	r20, Y+3	; 0x03
    4468:	5c 81       	ldd	r21, Y+4	; 0x04
    446a:	87 89       	ldd	r24, Z+23	; 0x17
    446c:	80 31       	cpi	r24, 0x10	; 16
    446e:	31 f4       	brne	.+12     	;  0x447c
    4470:	28 5f       	subi	r18, 0xF8	; 248
    4472:	3f 4f       	sbci	r19, 0xFF	; 255
    4474:	40 40       	sbci	r20, 0x00	; 0
    4476:	50 40       	sbci	r21, 0x00	; 0
    4478:	d8 f2       	brcs	.-74     	;  0x4430
    447a:	05 c0       	rjmp	.+10     	;  0x4486
    447c:	28 5f       	subi	r18, 0xF8	; 248
    447e:	3f 4f       	sbci	r19, 0xFF	; 255
    4480:	4f 4f       	sbci	r20, 0xFF	; 255
    4482:	5f 40       	sbci	r21, 0x0F	; 15
    4484:	a8 f2       	brcs	.-86     	;  0x4430
    4486:	f3 01       	movw	r30, r6
    4488:	e0 82       	st	Z, r14
    448a:	f1 82       	std	Z+1, r15	; 0x01
    448c:	02 83       	std	Z+2, r16	; 0x02
    448e:	13 83       	std	Z+3, r17	; 0x03
    4490:	81 e0       	ldi	r24, 0x01	; 1
    4492:	0f 90       	pop	r0
    4494:	0f 90       	pop	r0
    4496:	0f 90       	pop	r0
    4498:	0f 90       	pop	r0
    449a:	cf 91       	pop	r28
    449c:	df 91       	pop	r29
    449e:	1f 91       	pop	r17
    44a0:	0f 91       	pop	r16
    44a2:	ff 90       	pop	r15
    44a4:	ef 90       	pop	r14
    44a6:	df 90       	pop	r13
    44a8:	cf 90       	pop	r12
    44aa:	bf 90       	pop	r11
    44ac:	af 90       	pop	r10
    44ae:	9f 90       	pop	r9
    44b0:	8f 90       	pop	r8
    44b2:	7f 90       	pop	r7
    44b4:	6f 90       	pop	r6
    44b6:	5f 90       	pop	r5
    44b8:	4f 90       	pop	r4
    44ba:	08 95       	ret
    44bc:	2f 92       	push	r2
    44be:	3f 92       	push	r3
    44c0:	4f 92       	push	r4
    44c2:	5f 92       	push	r5
    44c4:	6f 92       	push	r6
    44c6:	7f 92       	push	r7
    44c8:	8f 92       	push	r8
    44ca:	9f 92       	push	r9
    44cc:	af 92       	push	r10
    44ce:	bf 92       	push	r11
    44d0:	cf 92       	push	r12
    44d2:	df 92       	push	r13
    44d4:	ef 92       	push	r14
    44d6:	ff 92       	push	r15
    44d8:	0f 93       	push	r16
    44da:	1f 93       	push	r17
    44dc:	df 93       	push	r29
    44de:	cf 93       	push	r28
    44e0:	cd b7       	in	r28, 0x3d	; 61
    44e2:	de b7       	in	r29, 0x3e	; 62
    44e4:	2f 97       	sbiw	r28, 0x0f	; 15
    44e6:	0f b6       	in	r0, 0x3f	; 63
    44e8:	f8 94       	cli
    44ea:	de bf       	out	0x3e, r29	; 62
    44ec:	0f be       	out	0x3f, r0	; 63
    44ee:	cd bf       	out	0x3d, r28	; 61
    44f0:	1c 01       	movw	r2, r24
    44f2:	4a 87       	std	Y+10, r20	; 0x0a
    44f4:	5b 87       	std	Y+11, r21	; 0x0b
    44f6:	6c 87       	std	Y+12, r22	; 0x0c
    44f8:	7d 87       	std	Y+13, r23	; 0x0d
    44fa:	3f 87       	std	Y+15, r19	; 0x0f
    44fc:	2e 87       	std	Y+14, r18	; 0x0e
    44fe:	dc 01       	movw	r26, r24
    4500:	19 96       	adiw	r26, 0x09	; 9
    4502:	8d 91       	ld	r24, X+
    4504:	9d 91       	ld	r25, X+
    4506:	0d 90       	ld	r0, X+
    4508:	bc 91       	ld	r27, X
    450a:	a0 2d       	mov	r26, r0
    450c:	01 96       	adiw	r24, 0x01	; 1
    450e:	a1 1d       	adc	r26, r1
    4510:	b1 1d       	adc	r27, r1
    4512:	8e 83       	std	Y+6, r24	; 0x06
    4514:	9f 83       	std	Y+7, r25	; 0x07
    4516:	a8 87       	std	Y+8, r26	; 0x08
    4518:	b9 87       	std	Y+9, r27	; 0x09
    451a:	f9 01       	movw	r30, r18
    451c:	00 81       	ld	r16, Z
    451e:	11 81       	ldd	r17, Z+1	; 0x01
    4520:	22 81       	ldd	r18, Z+2	; 0x02
    4522:	33 81       	ldd	r19, Z+3	; 0x03
    4524:	01 15       	cp	r16, r1
    4526:	11 05       	cpc	r17, r1
    4528:	21 05       	cpc	r18, r1
    452a:	31 05       	cpc	r19, r1
    452c:	49 f0       	breq	.+18     	;  0x4540
    452e:	48 01       	movw	r8, r16
    4530:	59 01       	movw	r10, r18
    4532:	08 94       	sec
    4534:	81 1c       	adc	r8, r1
    4536:	91 1c       	adc	r9, r1
    4538:	a1 1c       	adc	r10, r1
    453a:	b1 1c       	adc	r11, r1
    453c:	1d 82       	std	Y+5, r1	; 0x05
    453e:	10 c0       	rjmp	.+32     	;  0x4560
    4540:	d1 01       	movw	r26, r2
    4542:	8d 90       	ld	r8, X+
    4544:	9d 90       	ld	r9, X+
    4546:	ad 90       	ld	r10, X+
    4548:	bc 90       	ld	r11, X
    454a:	1d 82       	std	Y+5, r1	; 0x05
    454c:	8a 85       	ldd	r24, Y+10	; 0x0a
    454e:	9b 85       	ldd	r25, Y+11	; 0x0b
    4550:	ac 85       	ldd	r26, Y+12	; 0x0c
    4552:	bd 85       	ldd	r27, Y+13	; 0x0d
    4554:	01 97       	sbiw	r24, 0x01	; 1
    4556:	a1 05       	cpc	r26, r1
    4558:	b1 05       	cpc	r27, r1
    455a:	11 f4       	brne	.+4      	;  0x4560
    455c:	91 e0       	ldi	r25, 0x01	; 1
    455e:	9d 83       	std	Y+5, r25	; 0x05
    4560:	75 01       	movw	r14, r10
    4562:	64 01       	movw	r12, r8
    4564:	44 24       	eor	r4, r4
    4566:	55 24       	eor	r5, r5
    4568:	32 01       	movw	r6, r4
    456a:	8e 01       	movw	r16, r28
    456c:	0f 5f       	subi	r16, 0xFF	; 255
    456e:	1f 4f       	sbci	r17, 0xFF	; 255
    4570:	f1 01       	movw	r30, r2
    4572:	81 85       	ldd	r24, Z+9	; 0x09
    4574:	92 85       	ldd	r25, Z+10	; 0x0a
    4576:	a3 85       	ldd	r26, Z+11	; 0x0b
    4578:	b4 85       	ldd	r27, Z+12	; 0x0c
    457a:	48 16       	cp	r4, r24
    457c:	59 06       	cpc	r5, r25
    457e:	6a 06       	cpc	r6, r26
    4580:	7b 06       	cpc	r7, r27
    4582:	08 f0       	brcs	.+2      	;  0x4586
    4584:	90 c0       	rjmp	.+288    	;  0x46a6
    4586:	8e 81       	ldd	r24, Y+6	; 0x06
    4588:	9f 81       	ldd	r25, Y+7	; 0x07
    458a:	a8 85       	ldd	r26, Y+8	; 0x08
    458c:	b9 85       	ldd	r27, Y+9	; 0x09
    458e:	8c 15       	cp	r24, r12
    4590:	9d 05       	cpc	r25, r13
    4592:	ae 05       	cpc	r26, r14
    4594:	bf 05       	cpc	r27, r15
    4596:	50 f4       	brcc	.+20     	;  0x45ac
    4598:	a2 e0       	ldi	r26, 0x02	; 2
    459a:	8a 2e       	mov	r8, r26
    459c:	91 2c       	mov	r9, r1
    459e:	a1 2c       	mov	r10, r1
    45a0:	b1 2c       	mov	r11, r1
    45a2:	f2 e0       	ldi	r31, 0x02	; 2
    45a4:	cf 2e       	mov	r12, r31
    45a6:	d1 2c       	mov	r13, r1
    45a8:	e1 2c       	mov	r14, r1
    45aa:	f1 2c       	mov	r15, r1
    45ac:	c1 01       	movw	r24, r2
    45ae:	b7 01       	movw	r22, r14
    45b0:	a6 01       	movw	r20, r12
    45b2:	98 01       	movw	r18, r16
    45b4:	0e 94 1e 21 	call	0x423c	;  0x423c
    45b8:	88 23       	and	r24, r24
    45ba:	09 f4       	brne	.+2      	;  0x45be
    45bc:	74 c0       	rjmp	.+232    	;  0x46a6
    45be:	89 81       	ldd	r24, Y+1	; 0x01
    45c0:	9a 81       	ldd	r25, Y+2	; 0x02
    45c2:	ab 81       	ldd	r26, Y+3	; 0x03
    45c4:	bc 81       	ldd	r27, Y+4	; 0x04
    45c6:	a7 01       	movw	r20, r14
    45c8:	96 01       	movw	r18, r12
    45ca:	2f 5f       	subi	r18, 0xFF	; 255
    45cc:	3f 4f       	sbci	r19, 0xFF	; 255
    45ce:	4f 4f       	sbci	r20, 0xFF	; 255
    45d0:	5f 4f       	sbci	r21, 0xFF	; 255
    45d2:	00 97       	sbiw	r24, 0x00	; 0
    45d4:	a1 05       	cpc	r26, r1
    45d6:	b1 05       	cpc	r27, r1
    45d8:	19 f0       	breq	.+6      	;  0x45e0
    45da:	49 01       	movw	r8, r18
    45dc:	5a 01       	movw	r10, r20
    45de:	0d c0       	rjmp	.+26     	;  0x45fa
    45e0:	28 19       	sub	r18, r8
    45e2:	39 09       	sbc	r19, r9
    45e4:	4a 09       	sbc	r20, r10
    45e6:	5b 09       	sbc	r21, r11
    45e8:	8a 85       	ldd	r24, Y+10	; 0x0a
    45ea:	9b 85       	ldd	r25, Y+11	; 0x0b
    45ec:	ac 85       	ldd	r26, Y+12	; 0x0c
    45ee:	bd 85       	ldd	r27, Y+13	; 0x0d
    45f0:	28 17       	cp	r18, r24
    45f2:	39 07       	cpc	r19, r25
    45f4:	4a 07       	cpc	r20, r26
    45f6:	5b 07       	cpc	r21, r27
    45f8:	59 f0       	breq	.+22     	;  0x4610
    45fa:	08 94       	sec
    45fc:	41 1c       	adc	r4, r1
    45fe:	51 1c       	adc	r5, r1
    4600:	61 1c       	adc	r6, r1
    4602:	71 1c       	adc	r7, r1
    4604:	08 94       	sec
    4606:	c1 1c       	adc	r12, r1
    4608:	d1 1c       	adc	r13, r1
    460a:	e1 1c       	adc	r14, r1
    460c:	f1 1c       	adc	r15, r1
    460e:	b0 cf       	rjmp	.-160    	;  0x4570
    4610:	c1 01       	movw	r24, r2
    4612:	a6 01       	movw	r20, r12
    4614:	b7 01       	movw	r22, r14
    4616:	0f ef       	ldi	r16, 0xFF	; 255
    4618:	1f ef       	ldi	r17, 0xFF	; 255
    461a:	2f ef       	ldi	r18, 0xFF	; 255
    461c:	3f e0       	ldi	r19, 0x0F	; 15
    461e:	0e 94 97 20 	call	0x412e	;  0x412e
    4622:	88 23       	and	r24, r24
    4624:	99 f4       	brne	.+38     	;  0x464c
    4626:	3f c0       	rjmp	.+126    	;  0x46a6
    4628:	26 01       	movw	r4, r12
    462a:	37 01       	movw	r6, r14
    462c:	08 94       	sec
    462e:	41 08       	sbc	r4, r1
    4630:	51 08       	sbc	r5, r1
    4632:	61 08       	sbc	r6, r1
    4634:	71 08       	sbc	r7, r1
    4636:	c1 01       	movw	r24, r2
    4638:	b3 01       	movw	r22, r6
    463a:	a2 01       	movw	r20, r4
    463c:	97 01       	movw	r18, r14
    463e:	86 01       	movw	r16, r12
    4640:	0e 94 97 20 	call	0x412e	;  0x412e
    4644:	88 23       	and	r24, r24
    4646:	79 f1       	breq	.+94     	;  0x46a6
    4648:	73 01       	movw	r14, r6
    464a:	62 01       	movw	r12, r4
    464c:	8c 14       	cp	r8, r12
    464e:	9d 04       	cpc	r9, r13
    4650:	ae 04       	cpc	r10, r14
    4652:	bf 04       	cpc	r11, r15
    4654:	48 f3       	brcs	.-46     	;  0x4628
    4656:	ae 85       	ldd	r26, Y+14	; 0x0e
    4658:	bf 85       	ldd	r27, Y+15	; 0x0f
    465a:	4d 91       	ld	r20, X+
    465c:	5d 91       	ld	r21, X+
    465e:	6d 91       	ld	r22, X+
    4660:	7c 91       	ld	r23, X
    4662:	41 15       	cp	r20, r1
    4664:	51 05       	cpc	r21, r1
    4666:	61 05       	cpc	r22, r1
    4668:	71 05       	cpc	r23, r1
    466a:	39 f0       	breq	.+14     	;  0x467a
    466c:	c1 01       	movw	r24, r2
    466e:	95 01       	movw	r18, r10
    4670:	84 01       	movw	r16, r8
    4672:	0e 94 97 20 	call	0x412e	;  0x412e
    4676:	88 23       	and	r24, r24
    4678:	b1 f0       	breq	.+44     	;  0x46a6
    467a:	ee 85       	ldd	r30, Y+14	; 0x0e
    467c:	ff 85       	ldd	r31, Y+15	; 0x0f
    467e:	80 82       	st	Z, r8
    4680:	91 82       	std	Z+1, r9	; 0x01
    4682:	a2 82       	std	Z+2, r10	; 0x02
    4684:	b3 82       	std	Z+3, r11	; 0x03
    4686:	fd 81       	ldd	r31, Y+5	; 0x05
    4688:	ff 23       	and	r31, r31
    468a:	59 f0       	breq	.+22     	;  0x46a2
    468c:	08 94       	sec
    468e:	81 1c       	adc	r8, r1
    4690:	91 1c       	adc	r9, r1
    4692:	a1 1c       	adc	r10, r1
    4694:	b1 1c       	adc	r11, r1
    4696:	d1 01       	movw	r26, r2
    4698:	8d 92       	st	X+, r8
    469a:	9d 92       	st	X+, r9
    469c:	ad 92       	st	X+, r10
    469e:	bc 92       	st	X, r11
    46a0:	13 97       	sbiw	r26, 0x03	; 3
    46a2:	81 e0       	ldi	r24, 0x01	; 1
    46a4:	01 c0       	rjmp	.+2      	;  0x46a8
    46a6:	80 e0       	ldi	r24, 0x00	; 0
    46a8:	2f 96       	adiw	r28, 0x0f	; 15
    46aa:	0f b6       	in	r0, 0x3f	; 63
    46ac:	f8 94       	cli
    46ae:	de bf       	out	0x3e, r29	; 62
    46b0:	0f be       	out	0x3f, r0	; 63
    46b2:	cd bf       	out	0x3d, r28	; 61
    46b4:	cf 91       	pop	r28
    46b6:	df 91       	pop	r29
    46b8:	1f 91       	pop	r17
    46ba:	0f 91       	pop	r16
    46bc:	ff 90       	pop	r15
    46be:	ef 90       	pop	r14
    46c0:	df 90       	pop	r13
    46c2:	cf 90       	pop	r12
    46c4:	bf 90       	pop	r11
    46c6:	af 90       	pop	r10
    46c8:	9f 90       	pop	r9
    46ca:	8f 90       	pop	r8
    46cc:	7f 90       	pop	r7
    46ce:	6f 90       	pop	r6
    46d0:	5f 90       	pop	r5
    46d2:	4f 90       	pop	r4
    46d4:	3f 90       	pop	r3
    46d6:	2f 90       	pop	r2
    46d8:	08 95       	ret
    46da:	fc 01       	movw	r30, r24
    46dc:	80 91 55 06 	lds	r24, 0x0655
    46e0:	90 91 56 06 	lds	r25, 0x0656
    46e4:	8e 17       	cp	r24, r30
    46e6:	9f 07       	cpc	r25, r31
    46e8:	11 f4       	brne	.+4      	;  0x46ee
    46ea:	80 e0       	ldi	r24, 0x00	; 0
    46ec:	08 95       	ret
    46ee:	83 8d       	ldd	r24, Z+27	; 0x1b
    46f0:	8e 7f       	andi	r24, 0xFE	; 254
    46f2:	83 8f       	std	Z+27, r24	; 0x1b
    46f4:	9f b7       	in	r25, 0x3f	; 63
    46f6:	f8 94       	cli
    46f8:	10 92 97 06 	sts	0x0697, r1
    46fc:	80 91 97 06 	lds	r24, 0x0697
    4700:	80 93 98 06 	sts	0x0698, r24
    4704:	f0 93 56 06 	sts	0x0656, r31
    4708:	e0 93 55 06 	sts	0x0655, r30
    470c:	9f bf       	out	0x3f, r25	; 63
    470e:	81 e0       	ldi	r24, 0x01	; 1
    4710:	08 95       	ret
    4712:	0f 93       	push	r16
    4714:	1f 93       	push	r17
    4716:	cf 93       	push	r28
    4718:	df 93       	push	r29
    471a:	fc 01       	movw	r30, r24
    471c:	83 8d       	ldd	r24, Z+27	; 0x1b
    471e:	a6 85       	ldd	r26, Z+14	; 0x0e
    4720:	b7 85       	ldd	r27, Z+15	; 0x0f
    4722:	95 85       	ldd	r25, Z+13	; 0x0d
    4724:	08 2f       	mov	r16, r24
    4726:	02 70       	andi	r16, 0x02	; 2
    4728:	81 ff       	sbrs	r24, 1
    472a:	05 c0       	rjmp	.+10     	;  0x4736
    472c:	8c 91       	ld	r24, X
    472e:	89 23       	and	r24, r25
    4730:	09 f4       	brne	.+2      	;  0x4734
    4732:	54 c0       	rjmp	.+168    	;  0x47dc
    4734:	04 c0       	rjmp	.+8      	;  0x473e
    4736:	8c 91       	ld	r24, X
    4738:	89 23       	and	r24, r25
    473a:	09 f0       	breq	.+2      	;  0x473e
    473c:	4f c0       	rjmp	.+158    	;  0x47dc
    473e:	83 89       	ldd	r24, Z+19	; 0x13
    4740:	94 89       	ldd	r25, Z+20	; 0x14
    4742:	20 e0       	ldi	r18, 0x00	; 0
    4744:	01 97       	sbiw	r24, 0x01	; 1
    4746:	2f ef       	ldi	r18, 0xFF	; 255
    4748:	8f 3f       	cpi	r24, 0xFF	; 255
    474a:	92 07       	cpc	r25, r18
    474c:	d9 f7       	brne	.-10     	;  0x4744
    474e:	c5 89       	ldd	r28, Z+21	; 0x15
    4750:	d6 89       	ldd	r29, Z+22	; 0x16
    4752:	a6 85       	ldd	r26, Z+14	; 0x0e
    4754:	b7 85       	ldd	r27, Z+15	; 0x0f
    4756:	75 85       	ldd	r23, Z+13	; 0x0d
    4758:	60 e0       	ldi	r22, 0x00	; 0
    475a:	31 e0       	ldi	r19, 0x01	; 1
    475c:	40 e0       	ldi	r20, 0x00	; 0
    475e:	50 e0       	ldi	r21, 0x00	; 0
    4760:	10 e0       	ldi	r17, 0x00	; 0
    4762:	ce 01       	movw	r24, r28
    4764:	21 2f       	mov	r18, r17
    4766:	01 97       	sbiw	r24, 0x01	; 1
    4768:	2f ef       	ldi	r18, 0xFF	; 255
    476a:	8f 3f       	cpi	r24, 0xFF	; 255
    476c:	92 07       	cpc	r25, r18
    476e:	d9 f7       	brne	.-10     	;  0x4766
    4770:	8c 91       	ld	r24, X
    4772:	87 23       	and	r24, r23
    4774:	11 f0       	breq	.+4      	;  0x477a
    4776:	63 2b       	or	r22, r19
    4778:	03 c0       	rjmp	.+6      	;  0x4780
    477a:	83 2f       	mov	r24, r19
    477c:	80 95       	com	r24
    477e:	68 23       	and	r22, r24
    4780:	33 0f       	add	r19, r19
    4782:	4f 5f       	subi	r20, 0xFF	; 255
    4784:	5f 4f       	sbci	r21, 0xFF	; 255
    4786:	48 30       	cpi	r20, 0x08	; 8
    4788:	51 05       	cpc	r21, r1
    478a:	59 f7       	brne	.-42     	;  0x4762
    478c:	87 89       	ldd	r24, Z+23	; 0x17
    478e:	90 8d       	ldd	r25, Z+24	; 0x18
    4790:	20 e0       	ldi	r18, 0x00	; 0
    4792:	01 97       	sbiw	r24, 0x01	; 1
    4794:	2f ef       	ldi	r18, 0xFF	; 255
    4796:	8f 3f       	cpi	r24, 0xFF	; 255
    4798:	92 07       	cpc	r25, r18
    479a:	d9 f7       	brne	.-10     	;  0x4792
    479c:	01 11       	cpse	r16, r1
    479e:	60 95       	com	r22
    47a0:	80 91 97 06 	lds	r24, 0x0697
    47a4:	20 91 98 06 	lds	r18, 0x0698
    47a8:	90 e0       	ldi	r25, 0x00	; 0
    47aa:	01 96       	adiw	r24, 0x01	; 1
    47ac:	8f 73       	andi	r24, 0x3F	; 63
    47ae:	90 70       	andi	r25, 0x00	; 0
    47b0:	30 e0       	ldi	r19, 0x00	; 0
    47b2:	82 17       	cp	r24, r18
    47b4:	93 07       	cpc	r25, r19
    47b6:	79 f0       	breq	.+30     	;  0x47d6
    47b8:	e0 91 97 06 	lds	r30, 0x0697
    47bc:	f0 e0       	ldi	r31, 0x00	; 0
    47be:	e9 5a       	subi	r30, 0xA9	; 169
    47c0:	f9 4f       	sbci	r31, 0xF9	; 249
    47c2:	60 83       	st	Z, r22
    47c4:	80 91 97 06 	lds	r24, 0x0697
    47c8:	90 e0       	ldi	r25, 0x00	; 0
    47ca:	01 96       	adiw	r24, 0x01	; 1
    47cc:	8f 73       	andi	r24, 0x3F	; 63
    47ce:	90 70       	andi	r25, 0x00	; 0
    47d0:	80 93 97 06 	sts	0x0697, r24
    47d4:	03 c0       	rjmp	.+6      	;  0x47dc
    47d6:	83 8d       	ldd	r24, Z+27	; 0x1b
    47d8:	81 60       	ori	r24, 0x01	; 1
    47da:	83 8f       	std	Z+27, r24	; 0x1b
    47dc:	df 91       	pop	r29
    47de:	cf 91       	pop	r28
    47e0:	1f 91       	pop	r17
    47e2:	0f 91       	pop	r16
    47e4:	08 95       	ret
    47e6:	80 91 55 06 	lds	r24, 0x0655
    47ea:	90 91 56 06 	lds	r25, 0x0656
    47ee:	00 97       	sbiw	r24, 0x00	; 0
    47f0:	11 f0       	breq	.+4      	;  0x47f6
    47f2:	0e 94 89 23 	call	0x4712	;  0x4712
    47f6:	08 95       	ret
    47f8:	1f 92       	push	r1
    47fa:	0f 92       	push	r0
    47fc:	0f b6       	in	r0, 0x3f	; 63
    47fe:	0f 92       	push	r0
    4800:	11 24       	eor	r1, r1
    4802:	2f 93       	push	r18
    4804:	3f 93       	push	r19
    4806:	4f 93       	push	r20
    4808:	5f 93       	push	r21
    480a:	6f 93       	push	r22
    480c:	7f 93       	push	r23
    480e:	8f 93       	push	r24
    4810:	9f 93       	push	r25
    4812:	af 93       	push	r26
    4814:	bf 93       	push	r27
    4816:	ef 93       	push	r30
    4818:	ff 93       	push	r31
    481a:	0e 94 f3 23 	call	0x47e6	;  0x47e6
    481e:	ff 91       	pop	r31
    4820:	ef 91       	pop	r30
    4822:	bf 91       	pop	r27
    4824:	af 91       	pop	r26
    4826:	9f 91       	pop	r25
    4828:	8f 91       	pop	r24
    482a:	7f 91       	pop	r23
    482c:	6f 91       	pop	r22
    482e:	5f 91       	pop	r21
    4830:	4f 91       	pop	r20
    4832:	3f 91       	pop	r19
    4834:	2f 91       	pop	r18
    4836:	0f 90       	pop	r0
    4838:	0f be       	out	0x3f, r0	; 63
    483a:	0f 90       	pop	r0
    483c:	1f 90       	pop	r1
    483e:	18 95       	reti
    4840:	1f 92       	push	r1
    4842:	0f 92       	push	r0
    4844:	0f b6       	in	r0, 0x3f	; 63
    4846:	0f 92       	push	r0
    4848:	11 24       	eor	r1, r1
    484a:	2f 93       	push	r18
    484c:	3f 93       	push	r19
    484e:	4f 93       	push	r20
    4850:	5f 93       	push	r21
    4852:	6f 93       	push	r22
    4854:	7f 93       	push	r23
    4856:	8f 93       	push	r24
    4858:	9f 93       	push	r25
    485a:	af 93       	push	r26
    485c:	bf 93       	push	r27
    485e:	ef 93       	push	r30
    4860:	ff 93       	push	r31
    4862:	0e 94 f3 23 	call	0x47e6	;  0x47e6
    4866:	ff 91       	pop	r31
    4868:	ef 91       	pop	r30
    486a:	bf 91       	pop	r27
    486c:	af 91       	pop	r26
    486e:	9f 91       	pop	r25
    4870:	8f 91       	pop	r24
    4872:	7f 91       	pop	r23
    4874:	6f 91       	pop	r22
    4876:	5f 91       	pop	r21
    4878:	4f 91       	pop	r20
    487a:	3f 91       	pop	r19
    487c:	2f 91       	pop	r18
    487e:	0f 90       	pop	r0
    4880:	0f be       	out	0x3f, r0	; 63
    4882:	0f 90       	pop	r0
    4884:	1f 90       	pop	r1
    4886:	18 95       	reti
    4888:	1f 92       	push	r1
    488a:	0f 92       	push	r0
    488c:	0f b6       	in	r0, 0x3f	; 63
    488e:	0f 92       	push	r0
    4890:	11 24       	eor	r1, r1
    4892:	2f 93       	push	r18
    4894:	3f 93       	push	r19
    4896:	4f 93       	push	r20
    4898:	5f 93       	push	r21
    489a:	6f 93       	push	r22
    489c:	7f 93       	push	r23
    489e:	8f 93       	push	r24
    48a0:	9f 93       	push	r25
    48a2:	af 93       	push	r26
    48a4:	bf 93       	push	r27
    48a6:	ef 93       	push	r30
    48a8:	ff 93       	push	r31
    48aa:	0e 94 f3 23 	call	0x47e6	;  0x47e6
    48ae:	ff 91       	pop	r31
    48b0:	ef 91       	pop	r30
    48b2:	bf 91       	pop	r27
    48b4:	af 91       	pop	r26
    48b6:	9f 91       	pop	r25
    48b8:	8f 91       	pop	r24
    48ba:	7f 91       	pop	r23
    48bc:	6f 91       	pop	r22
    48be:	5f 91       	pop	r21
    48c0:	4f 91       	pop	r20
    48c2:	3f 91       	pop	r19
    48c4:	2f 91       	pop	r18
    48c6:	0f 90       	pop	r0
    48c8:	0f be       	out	0x3f, r0	; 63
    48ca:	0f 90       	pop	r0
    48cc:	1f 90       	pop	r1
    48ce:	18 95       	reti
    48d0:	cf 92       	push	r12
    48d2:	df 92       	push	r13
    48d4:	ef 92       	push	r14
    48d6:	ff 92       	push	r15
    48d8:	0f 93       	push	r16
    48da:	1f 93       	push	r17
    48dc:	cf 93       	push	r28
    48de:	df 93       	push	r29
    48e0:	ec 01       	movw	r28, r24
    48e2:	7a 01       	movw	r14, r20
    48e4:	8b 01       	movw	r16, r22
    48e6:	1a 8e       	std	Y+26, r1	; 0x1a
    48e8:	19 8e       	std	Y+25, r1	; 0x19
    48ea:	18 8e       	std	Y+24, r1	; 0x18
    48ec:	1f 8a       	std	Y+23, r1	; 0x17
    48ee:	1e 8a       	std	Y+22, r1	; 0x16
    48f0:	1d 8a       	std	Y+21, r1	; 0x15
    48f2:	1c 8a       	std	Y+20, r1	; 0x14
    48f4:	1b 8a       	std	Y+19, r1	; 0x13
    48f6:	20 e0       	ldi	r18, 0x00	; 0
    48f8:	30 e0       	ldi	r19, 0x00	; 0
    48fa:	69 01       	movw	r12, r18
    48fc:	cc 0c       	add	r12, r12
    48fe:	dd 1c       	adc	r13, r13
    4900:	c2 0e       	add	r12, r18
    4902:	d3 1e       	adc	r13, r19
    4904:	b6 01       	movw	r22, r12
    4906:	66 0f       	add	r22, r22
    4908:	77 1f       	adc	r23, r23
    490a:	66 0f       	add	r22, r22
    490c:	77 1f       	adc	r23, r23
    490e:	ab 01       	movw	r20, r22
    4910:	48 58       	subi	r20, 0x88	; 136
    4912:	5f 4f       	sbci	r21, 0xFF	; 255
    4914:	fa 01       	movw	r30, r20
    4916:	85 91       	lpm	r24, Z+
    4918:	95 91       	lpm	r25, Z+
    491a:	a5 91       	lpm	r26, Z+
    491c:	b4 91       	lpm	r27, Z+
    491e:	8e 15       	cp	r24, r14
    4920:	9f 05       	cpc	r25, r15
    4922:	a0 07       	cpc	r26, r16
    4924:	b1 07       	cpc	r27, r17
    4926:	e9 f4       	brne	.+58     	;  0x4962
    4928:	fb 01       	movw	r30, r22
    492a:	e4 58       	subi	r30, 0x84	; 132
    492c:	ff 4f       	sbci	r31, 0xFF	; 255
    492e:	85 91       	lpm	r24, Z+
    4930:	94 91       	lpm	r25, Z+
    4932:	9c 8b       	std	Y+20, r25	; 0x14
    4934:	8b 8b       	std	Y+19, r24	; 0x13
    4936:	fb 01       	movw	r30, r22
    4938:	e2 58       	subi	r30, 0x82	; 130
    493a:	ff 4f       	sbci	r31, 0xFF	; 255
    493c:	85 91       	lpm	r24, Z+
    493e:	94 91       	lpm	r25, Z+
    4940:	9e 8b       	std	Y+22, r25	; 0x16
    4942:	8d 8b       	std	Y+21, r24	; 0x15
    4944:	fb 01       	movw	r30, r22
    4946:	e0 58       	subi	r30, 0x80	; 128
    4948:	ff 4f       	sbci	r31, 0xFF	; 255
    494a:	85 91       	lpm	r24, Z+
    494c:	94 91       	lpm	r25, Z+
    494e:	98 8f       	std	Y+24, r25	; 0x18
    4950:	8f 8b       	std	Y+23, r24	; 0x17
    4952:	fb 01       	movw	r30, r22
    4954:	ee 57       	subi	r30, 0x7E	; 126
    4956:	ff 4f       	sbci	r31, 0xFF	; 255
    4958:	85 91       	lpm	r24, Z+
    495a:	94 91       	lpm	r25, Z+
    495c:	9a 8f       	std	Y+26, r25	; 0x1a
    495e:	89 8f       	std	Y+25, r24	; 0x19
    4960:	06 c0       	rjmp	.+12     	;  0x496e
    4962:	2f 5f       	subi	r18, 0xFF	; 255
    4964:	3f 4f       	sbci	r19, 0xFF	; 255
    4966:	2c 30       	cpi	r18, 0x0C	; 12
    4968:	31 05       	cpc	r19, r1
    496a:	09 f0       	breq	.+2      	;  0x496e
    496c:	c6 cf       	rjmp	.-116    	;  0x48fa
    496e:	8f 89       	ldd	r24, Y+23	; 0x17
    4970:	98 8d       	ldd	r25, Y+24	; 0x18
    4972:	89 2b       	or	r24, r25
    4974:	09 f4       	brne	.+2      	;  0x4978
    4976:	49 c0       	rjmp	.+146    	;  0x4a0a
    4978:	4c 85       	ldd	r20, Y+12	; 0x0c
    497a:	46 31       	cpi	r20, 0x16	; 22
    497c:	08 f0       	brcs	.+2      	;  0x4980
    497e:	3d c0       	rjmp	.+122    	;  0x49fa
    4980:	90 91 68 00 	lds	r25, 0x0068
    4984:	48 30       	cpi	r20, 0x08	; 8
    4986:	10 f4       	brcc	.+4      	;  0x498c
    4988:	84 e0       	ldi	r24, 0x04	; 4
    498a:	05 c0       	rjmp	.+10     	;  0x4996
    498c:	4e 30       	cpi	r20, 0x0E	; 14
    498e:	10 f0       	brcs	.+4      	;  0x4994
    4990:	82 e0       	ldi	r24, 0x02	; 2
    4992:	01 c0       	rjmp	.+2      	;  0x4996
    4994:	81 e0       	ldi	r24, 0x01	; 1
    4996:	89 2b       	or	r24, r25
    4998:	80 93 68 00 	sts	0x0068, r24
    499c:	48 30       	cpi	r20, 0x08	; 8
    499e:	28 f4       	brcc	.+10     	;  0x49aa
    49a0:	ed e6       	ldi	r30, 0x6D	; 109
    49a2:	f0 e0       	ldi	r31, 0x00	; 0
    49a4:	ad e6       	ldi	r26, 0x6D	; 109
    49a6:	b0 e0       	ldi	r27, 0x00	; 0
    49a8:	0b c0       	rjmp	.+22     	;  0x49c0
    49aa:	4e 30       	cpi	r20, 0x0E	; 14
    49ac:	28 f0       	brcs	.+10     	;  0x49b8
    49ae:	ec e6       	ldi	r30, 0x6C	; 108
    49b0:	f0 e0       	ldi	r31, 0x00	; 0
    49b2:	ac e6       	ldi	r26, 0x6C	; 108
    49b4:	b0 e0       	ldi	r27, 0x00	; 0
    49b6:	04 c0       	rjmp	.+8      	;  0x49c0
    49b8:	eb e6       	ldi	r30, 0x6B	; 107
    49ba:	f0 e0       	ldi	r31, 0x00	; 0
    49bc:	ab e6       	ldi	r26, 0x6B	; 107
    49be:	b0 e0       	ldi	r27, 0x00	; 0
    49c0:	50 81       	ld	r21, Z
    49c2:	48 30       	cpi	r20, 0x08	; 8
    49c4:	40 f4       	brcc	.+16     	;  0x49d6
    49c6:	81 e0       	ldi	r24, 0x01	; 1
    49c8:	90 e0       	ldi	r25, 0x00	; 0
    49ca:	02 c0       	rjmp	.+4      	;  0x49d0
    49cc:	88 0f       	add	r24, r24
    49ce:	99 1f       	adc	r25, r25
    49d0:	4a 95       	dec	r20
    49d2:	e2 f7       	brpl	.-8      	;  0x49cc
    49d4:	10 c0       	rjmp	.+32     	;  0x49f6
    49d6:	24 2f       	mov	r18, r20
    49d8:	30 e0       	ldi	r19, 0x00	; 0
    49da:	4e 30       	cpi	r20, 0x0E	; 14
    49dc:	18 f4       	brcc	.+6      	;  0x49e4
    49de:	28 50       	subi	r18, 0x08	; 8
    49e0:	30 40       	sbci	r19, 0x00	; 0
    49e2:	02 c0       	rjmp	.+4      	;  0x49e8
    49e4:	2e 50       	subi	r18, 0x0E	; 14
    49e6:	30 40       	sbci	r19, 0x00	; 0
    49e8:	81 e0       	ldi	r24, 0x01	; 1
    49ea:	90 e0       	ldi	r25, 0x00	; 0
    49ec:	02 c0       	rjmp	.+4      	;  0x49f2
    49ee:	88 0f       	add	r24, r24
    49f0:	99 1f       	adc	r25, r25
    49f2:	2a 95       	dec	r18
    49f4:	e2 f7       	brpl	.-8      	;  0x49ee
    49f6:	85 2b       	or	r24, r21
    49f8:	8c 93       	st	X, r24
    49fa:	89 8d       	ldd	r24, Y+25	; 0x19
    49fc:	9a 8d       	ldd	r25, Y+26	; 0x1a
    49fe:	20 e0       	ldi	r18, 0x00	; 0
    4a00:	01 97       	sbiw	r24, 0x01	; 1
    4a02:	2f ef       	ldi	r18, 0xFF	; 255
    4a04:	8f 3f       	cpi	r24, 0xFF	; 255
    4a06:	92 07       	cpc	r25, r18
    4a08:	d9 f7       	brne	.-10     	;  0x4a00
    4a0a:	ce 01       	movw	r24, r28
    4a0c:	0e 94 6d 23 	call	0x46da	;  0x46da
    4a10:	df 91       	pop	r29
    4a12:	cf 91       	pop	r28
    4a14:	1f 91       	pop	r17
    4a16:	0f 91       	pop	r16
    4a18:	ff 90       	pop	r15
    4a1a:	ef 90       	pop	r14
    4a1c:	df 90       	pop	r13
    4a1e:	cf 90       	pop	r12
    4a20:	08 95       	ret
    4a22:	20 91 55 06 	lds	r18, 0x0655
    4a26:	30 91 56 06 	lds	r19, 0x0656
    4a2a:	28 17       	cp	r18, r24
    4a2c:	39 07       	cpc	r19, r25
    4a2e:	31 f4       	brne	.+12     	;  0x4a3c
    4a30:	90 91 98 06 	lds	r25, 0x0698
    4a34:	80 91 97 06 	lds	r24, 0x0697
    4a38:	98 17       	cp	r25, r24
    4a3a:	19 f4       	brne	.+6      	;  0x4a42
    4a3c:	2f ef       	ldi	r18, 0xFF	; 255
    4a3e:	3f ef       	ldi	r19, 0xFF	; 255
    4a40:	0f c0       	rjmp	.+30     	;  0x4a60
    4a42:	e0 91 98 06 	lds	r30, 0x0698
    4a46:	f0 e0       	ldi	r31, 0x00	; 0
    4a48:	e9 5a       	subi	r30, 0xA9	; 169
    4a4a:	f9 4f       	sbci	r31, 0xF9	; 249
    4a4c:	20 81       	ld	r18, Z
    4a4e:	80 91 98 06 	lds	r24, 0x0698
    4a52:	90 e0       	ldi	r25, 0x00	; 0
    4a54:	01 96       	adiw	r24, 0x01	; 1
    4a56:	8f 73       	andi	r24, 0x3F	; 63
    4a58:	90 70       	andi	r25, 0x00	; 0
    4a5a:	80 93 98 06 	sts	0x0698, r24
    4a5e:	30 e0       	ldi	r19, 0x00	; 0
    4a60:	c9 01       	movw	r24, r18
    4a62:	08 95       	ret
    4a64:	20 91 55 06 	lds	r18, 0x0655
    4a68:	30 91 56 06 	lds	r19, 0x0656
    4a6c:	28 17       	cp	r18, r24
    4a6e:	39 07       	cpc	r19, r25
    4a70:	19 f0       	breq	.+6      	;  0x4a78
    4a72:	20 e0       	ldi	r18, 0x00	; 0
    4a74:	30 e0       	ldi	r19, 0x00	; 0
    4a76:	0e c0       	rjmp	.+28     	;  0x4a94
    4a78:	80 91 97 06 	lds	r24, 0x0697
    4a7c:	20 91 98 06 	lds	r18, 0x0698
    4a80:	90 e0       	ldi	r25, 0x00	; 0
    4a82:	80 5c       	subi	r24, 0xC0	; 192
    4a84:	9f 4f       	sbci	r25, 0xFF	; 255
    4a86:	82 1b       	sub	r24, r18
    4a88:	91 09       	sbc	r25, r1
    4a8a:	60 e4       	ldi	r22, 0x40	; 64
    4a8c:	70 e0       	ldi	r23, 0x00	; 0
    4a8e:	0e 94 c2 2e 	call	0x5d84	;  0x5d84
    4a92:	9c 01       	movw	r18, r24
    4a94:	c9 01       	movw	r24, r18
    4a96:	08 95       	ret
    4a98:	0f 93       	push	r16
    4a9a:	1f 93       	push	r17
    4a9c:	dc 01       	movw	r26, r24
    4a9e:	59 96       	adiw	r26, 0x19	; 25
    4aa0:	8d 91       	ld	r24, X+
    4aa2:	9c 91       	ld	r25, X
    4aa4:	5a 97       	sbiw	r26, 0x1a	; 26
    4aa6:	89 2b       	or	r24, r25
    4aa8:	49 f4       	brne	.+18     	;  0x4abc
    4aaa:	81 e0       	ldi	r24, 0x01	; 1
    4aac:	90 e0       	ldi	r25, 0x00	; 0
    4aae:	13 96       	adiw	r26, 0x03	; 3
    4ab0:	9c 93       	st	X, r25
    4ab2:	8e 93       	st	-X, r24
    4ab4:	12 97       	sbiw	r26, 0x02	; 2
    4ab6:	20 e0       	ldi	r18, 0x00	; 0
    4ab8:	30 e0       	ldi	r19, 0x00	; 0
    4aba:	97 c0       	rjmp	.+302    	;  0x4bea
    4abc:	0f b7       	in	r16, 0x3f	; 63
    4abe:	f8 94       	cli
    4ac0:	5b 96       	adiw	r26, 0x1b	; 27
    4ac2:	8c 91       	ld	r24, X
    4ac4:	5b 97       	sbiw	r26, 0x1b	; 27
    4ac6:	51 96       	adiw	r26, 0x11	; 17
    4ac8:	ed 91       	ld	r30, X+
    4aca:	fc 91       	ld	r31, X
    4acc:	52 97       	sbiw	r26, 0x12	; 18
    4ace:	50 96       	adiw	r26, 0x10	; 16
    4ad0:	2c 91       	ld	r18, X
    4ad2:	50 97       	sbiw	r26, 0x10	; 16
    4ad4:	81 ff       	sbrs	r24, 1
    4ad6:	8d c0       	rjmp	.+282    	;  0x4bf2
    4ad8:	80 81       	ld	r24, Z
    4ada:	82 2b       	or	r24, r18
    4adc:	80 83       	st	Z, r24
    4ade:	59 96       	adiw	r26, 0x19	; 25
    4ae0:	8d 91       	ld	r24, X+
    4ae2:	9c 91       	ld	r25, X
    4ae4:	5a 97       	sbiw	r26, 0x1a	; 26
    4ae6:	05 96       	adiw	r24, 0x05	; 5
    4ae8:	20 e0       	ldi	r18, 0x00	; 0
    4aea:	01 97       	sbiw	r24, 0x01	; 1
    4aec:	2f ef       	ldi	r18, 0xFF	; 255
    4aee:	8f 3f       	cpi	r24, 0xFF	; 255
    4af0:	92 07       	cpc	r25, r18
    4af2:	d9 f7       	brne	.-10     	;  0x4aea
    4af4:	5b 96       	adiw	r26, 0x1b	; 27
    4af6:	8c 91       	ld	r24, X
    4af8:	5b 97       	sbiw	r26, 0x1b	; 27
    4afa:	81 ff       	sbrs	r24, 1
    4afc:	35 c0       	rjmp	.+106    	;  0x4b68
    4afe:	31 e0       	ldi	r19, 0x01	; 1
    4b00:	40 e0       	ldi	r20, 0x00	; 0
    4b02:	50 e0       	ldi	r21, 0x00	; 0
    4b04:	70 e0       	ldi	r23, 0x00	; 0
    4b06:	10 e0       	ldi	r17, 0x00	; 0
    4b08:	83 2f       	mov	r24, r19
    4b0a:	90 e0       	ldi	r25, 0x00	; 0
    4b0c:	86 23       	and	r24, r22
    4b0e:	97 23       	and	r25, r23
    4b10:	51 96       	adiw	r26, 0x11	; 17
    4b12:	ed 91       	ld	r30, X+
    4b14:	fc 91       	ld	r31, X
    4b16:	52 97       	sbiw	r26, 0x12	; 18
    4b18:	50 96       	adiw	r26, 0x10	; 16
    4b1a:	2c 91       	ld	r18, X
    4b1c:	50 97       	sbiw	r26, 0x10	; 16
    4b1e:	89 2b       	or	r24, r25
    4b20:	29 f0       	breq	.+10     	;  0x4b2c
    4b22:	80 81       	ld	r24, Z
    4b24:	20 95       	com	r18
    4b26:	28 23       	and	r18, r24
    4b28:	20 83       	st	Z, r18
    4b2a:	03 c0       	rjmp	.+6      	;  0x4b32
    4b2c:	80 81       	ld	r24, Z
    4b2e:	82 2b       	or	r24, r18
    4b30:	80 83       	st	Z, r24
    4b32:	59 96       	adiw	r26, 0x19	; 25
    4b34:	8d 91       	ld	r24, X+
    4b36:	9c 91       	ld	r25, X
    4b38:	5a 97       	sbiw	r26, 0x1a	; 26
    4b3a:	21 2f       	mov	r18, r17
    4b3c:	01 97       	sbiw	r24, 0x01	; 1
    4b3e:	2f ef       	ldi	r18, 0xFF	; 255
    4b40:	8f 3f       	cpi	r24, 0xFF	; 255
    4b42:	92 07       	cpc	r25, r18
    4b44:	d9 f7       	brne	.-10     	;  0x4b3c
    4b46:	33 0f       	add	r19, r19
    4b48:	4f 5f       	subi	r20, 0xFF	; 255
    4b4a:	5f 4f       	sbci	r21, 0xFF	; 255
    4b4c:	48 30       	cpi	r20, 0x08	; 8
    4b4e:	51 05       	cpc	r21, r1
    4b50:	d9 f6       	brne	.-74     	;  0x4b08
    4b52:	51 96       	adiw	r26, 0x11	; 17
    4b54:	ed 91       	ld	r30, X+
    4b56:	fc 91       	ld	r31, X
    4b58:	52 97       	sbiw	r26, 0x12	; 18
    4b5a:	90 81       	ld	r25, Z
    4b5c:	50 96       	adiw	r26, 0x10	; 16
    4b5e:	8c 91       	ld	r24, X
    4b60:	50 97       	sbiw	r26, 0x10	; 16
    4b62:	80 95       	com	r24
    4b64:	89 23       	and	r24, r25
    4b66:	33 c0       	rjmp	.+102    	;  0x4bce
    4b68:	31 e0       	ldi	r19, 0x01	; 1
    4b6a:	40 e0       	ldi	r20, 0x00	; 0
    4b6c:	50 e0       	ldi	r21, 0x00	; 0
    4b6e:	70 e0       	ldi	r23, 0x00	; 0
    4b70:	10 e0       	ldi	r17, 0x00	; 0
    4b72:	83 2f       	mov	r24, r19
    4b74:	90 e0       	ldi	r25, 0x00	; 0
    4b76:	86 23       	and	r24, r22
    4b78:	97 23       	and	r25, r23
    4b7a:	51 96       	adiw	r26, 0x11	; 17
    4b7c:	ed 91       	ld	r30, X+
    4b7e:	fc 91       	ld	r31, X
    4b80:	52 97       	sbiw	r26, 0x12	; 18
    4b82:	50 96       	adiw	r26, 0x10	; 16
    4b84:	2c 91       	ld	r18, X
    4b86:	50 97       	sbiw	r26, 0x10	; 16
    4b88:	89 2b       	or	r24, r25
    4b8a:	21 f0       	breq	.+8      	;  0x4b94
    4b8c:	80 81       	ld	r24, Z
    4b8e:	82 2b       	or	r24, r18
    4b90:	80 83       	st	Z, r24
    4b92:	04 c0       	rjmp	.+8      	;  0x4b9c
    4b94:	80 81       	ld	r24, Z
    4b96:	20 95       	com	r18
    4b98:	28 23       	and	r18, r24
    4b9a:	20 83       	st	Z, r18
    4b9c:	59 96       	adiw	r26, 0x19	; 25
    4b9e:	8d 91       	ld	r24, X+
    4ba0:	9c 91       	ld	r25, X
    4ba2:	5a 97       	sbiw	r26, 0x1a	; 26
    4ba4:	21 2f       	mov	r18, r17
    4ba6:	01 97       	sbiw	r24, 0x01	; 1
    4ba8:	2f ef       	ldi	r18, 0xFF	; 255
    4baa:	8f 3f       	cpi	r24, 0xFF	; 255
    4bac:	92 07       	cpc	r25, r18
    4bae:	d9 f7       	brne	.-10     	;  0x4ba6
    4bb0:	33 0f       	add	r19, r19
    4bb2:	4f 5f       	subi	r20, 0xFF	; 255
    4bb4:	5f 4f       	sbci	r21, 0xFF	; 255
    4bb6:	48 30       	cpi	r20, 0x08	; 8
    4bb8:	51 05       	cpc	r21, r1
    4bba:	d9 f6       	brne	.-74     	;  0x4b72
    4bbc:	51 96       	adiw	r26, 0x11	; 17
    4bbe:	ed 91       	ld	r30, X+
    4bc0:	fc 91       	ld	r31, X
    4bc2:	52 97       	sbiw	r26, 0x12	; 18
    4bc4:	80 81       	ld	r24, Z
    4bc6:	50 96       	adiw	r26, 0x10	; 16
    4bc8:	9c 91       	ld	r25, X
    4bca:	50 97       	sbiw	r26, 0x10	; 16
    4bcc:	89 2b       	or	r24, r25
    4bce:	80 83       	st	Z, r24
    4bd0:	0f bf       	out	0x3f, r16	; 63
    4bd2:	59 96       	adiw	r26, 0x19	; 25
    4bd4:	8d 91       	ld	r24, X+
    4bd6:	9c 91       	ld	r25, X
    4bd8:	5a 97       	sbiw	r26, 0x1a	; 26
    4bda:	20 e0       	ldi	r18, 0x00	; 0
    4bdc:	01 97       	sbiw	r24, 0x01	; 1
    4bde:	2f ef       	ldi	r18, 0xFF	; 255
    4be0:	8f 3f       	cpi	r24, 0xFF	; 255
    4be2:	92 07       	cpc	r25, r18
    4be4:	d9 f7       	brne	.-10     	;  0x4bdc
    4be6:	21 e0       	ldi	r18, 0x01	; 1
    4be8:	30 e0       	ldi	r19, 0x00	; 0
    4bea:	c9 01       	movw	r24, r18
    4bec:	1f 91       	pop	r17
    4bee:	0f 91       	pop	r16
    4bf0:	08 95       	ret
    4bf2:	80 81       	ld	r24, Z
    4bf4:	20 95       	com	r18
    4bf6:	28 23       	and	r18, r24
    4bf8:	20 83       	st	Z, r18
    4bfa:	71 cf       	rjmp	.-286    	;  0x4ade
    4bfc:	20 91 55 06 	lds	r18, 0x0655
    4c00:	30 91 56 06 	lds	r19, 0x0656
    4c04:	28 17       	cp	r18, r24
    4c06:	39 07       	cpc	r19, r25
    4c08:	49 f4       	brne	.+18     	;  0x4c1c
    4c0a:	9f b7       	in	r25, 0x3f	; 63
    4c0c:	f8 94       	cli
    4c0e:	10 92 97 06 	sts	0x0697, r1
    4c12:	80 91 97 06 	lds	r24, 0x0697
    4c16:	80 93 98 06 	sts	0x0698, r24
    4c1a:	9f bf       	out	0x3f, r25	; 63
    4c1c:	08 95       	ret
    4c1e:	20 91 55 06 	lds	r18, 0x0655
    4c22:	30 91 56 06 	lds	r19, 0x0656
    4c26:	28 17       	cp	r18, r24
    4c28:	39 07       	cpc	r19, r25
    4c2a:	31 f4       	brne	.+12     	;  0x4c38
    4c2c:	90 91 98 06 	lds	r25, 0x0698
    4c30:	80 91 97 06 	lds	r24, 0x0697
    4c34:	98 17       	cp	r25, r24
    4c36:	19 f4       	brne	.+6      	;  0x4c3e
    4c38:	2f ef       	ldi	r18, 0xFF	; 255
    4c3a:	3f ef       	ldi	r19, 0xFF	; 255
    4c3c:	0a c0       	rjmp	.+20     	;  0x4c52
    4c3e:	e0 91 98 06 	lds	r30, 0x0698
    4c42:	f0 e0       	ldi	r31, 0x00	; 0
    4c44:	e9 5a       	subi	r30, 0xA9	; 169
    4c46:	f9 4f       	sbci	r31, 0xF9	; 249
    4c48:	80 81       	ld	r24, Z
    4c4a:	28 2f       	mov	r18, r24
    4c4c:	33 27       	eor	r19, r19
    4c4e:	27 fd       	sbrc	r18, 7
    4c50:	30 95       	com	r19
    4c52:	c9 01       	movw	r24, r18
    4c54:	08 95       	ret
    4c56:	1f 93       	push	r17
    4c58:	cf 93       	push	r28
    4c5a:	df 93       	push	r29
    4c5c:	ec 01       	movw	r28, r24
    4c5e:	16 2f       	mov	r17, r22
    4c60:	86 2f       	mov	r24, r22
    4c62:	60 e0       	ldi	r22, 0x00	; 0
    4c64:	0e 94 1d 2e 	call	0x5c3a	;  0x5c3a
    4c68:	8b 8d       	ldd	r24, Y+27	; 0x1b
    4c6a:	81 fd       	sbrc	r24, 1
    4c6c:	04 c0       	rjmp	.+8      	;  0x4c76
    4c6e:	81 2f       	mov	r24, r17
    4c70:	61 e0       	ldi	r22, 0x01	; 1
    4c72:	0e 94 70 2e 	call	0x5ce0	;  0x5ce0
    4c76:	1c 87       	std	Y+12, r17	; 0x0c
    4c78:	21 2f       	mov	r18, r17
    4c7a:	30 e0       	ldi	r19, 0x00	; 0
    4c7c:	c9 01       	movw	r24, r18
    4c7e:	86 5c       	subi	r24, 0xC6	; 198
    4c80:	9e 4f       	sbci	r25, 0xFE	; 254
    4c82:	fc 01       	movw	r30, r24
    4c84:	84 91       	lpm	r24, Z+
    4c86:	8d 87       	std	Y+13, r24	; 0x0d
    4c88:	2a 5d       	subi	r18, 0xDA	; 218
    4c8a:	3e 4f       	sbci	r19, 0xFE	; 254
    4c8c:	f9 01       	movw	r30, r18
    4c8e:	64 91       	lpm	r22, Z+
    4c90:	e6 2f       	mov	r30, r22
    4c92:	f0 e0       	ldi	r31, 0x00	; 0
    4c94:	ee 0f       	add	r30, r30
    4c96:	ff 1f       	adc	r31, r31
    4c98:	e4 5e       	subi	r30, 0xE4	; 228
    4c9a:	fe 4f       	sbci	r31, 0xFE	; 254
    4c9c:	85 91       	lpm	r24, Z+
    4c9e:	94 91       	lpm	r25, Z+
    4ca0:	9f 87       	std	Y+15, r25	; 0x0f
    4ca2:	8e 87       	std	Y+14, r24	; 0x0e
    4ca4:	df 91       	pop	r29
    4ca6:	cf 91       	pop	r28
    4ca8:	1f 91       	pop	r17
    4caa:	08 95       	ret
    4cac:	ff 92       	push	r15
    4cae:	0f 93       	push	r16
    4cb0:	1f 93       	push	r17
    4cb2:	8c 01       	movw	r16, r24
    4cb4:	f6 2e       	mov	r15, r22
    4cb6:	86 2f       	mov	r24, r22
    4cb8:	61 e0       	ldi	r22, 0x01	; 1
    4cba:	0e 94 1d 2e 	call	0x5c3a	;  0x5c3a
    4cbe:	8f 2d       	mov	r24, r15
    4cc0:	61 e0       	ldi	r22, 0x01	; 1
    4cc2:	0e 94 70 2e 	call	0x5ce0	;  0x5ce0
    4cc6:	8f 2d       	mov	r24, r15
    4cc8:	90 e0       	ldi	r25, 0x00	; 0
    4cca:	fc 01       	movw	r30, r24
    4ccc:	e6 5c       	subi	r30, 0xC6	; 198
    4cce:	fe 4f       	sbci	r31, 0xFE	; 254
    4cd0:	e4 91       	lpm	r30, Z+
    4cd2:	d8 01       	movw	r26, r16
    4cd4:	50 96       	adiw	r26, 0x10	; 16
    4cd6:	ec 93       	st	X, r30
    4cd8:	50 97       	sbiw	r26, 0x10	; 16
    4cda:	8a 5d       	subi	r24, 0xDA	; 218
    4cdc:	9e 4f       	sbci	r25, 0xFE	; 254
    4cde:	fc 01       	movw	r30, r24
    4ce0:	64 91       	lpm	r22, Z+
    4ce2:	e6 2f       	mov	r30, r22
    4ce4:	f0 e0       	ldi	r31, 0x00	; 0
    4ce6:	ee 0f       	add	r30, r30
    4ce8:	ff 1f       	adc	r31, r31
    4cea:	ee 5e       	subi	r30, 0xEE	; 238
    4cec:	fe 4f       	sbci	r31, 0xFE	; 254
    4cee:	85 91       	lpm	r24, Z+
    4cf0:	94 91       	lpm	r25, Z+
    4cf2:	52 96       	adiw	r26, 0x12	; 18
    4cf4:	9c 93       	st	X, r25
    4cf6:	8e 93       	st	-X, r24
    4cf8:	51 97       	sbiw	r26, 0x11	; 17
    4cfa:	1f 91       	pop	r17
    4cfc:	0f 91       	pop	r16
    4cfe:	ff 90       	pop	r15
    4d00:	08 95       	ret
    4d02:	ff 92       	push	r15
    4d04:	0f 93       	push	r16
    4d06:	1f 93       	push	r17
    4d08:	8c 01       	movw	r16, r24
    4d0a:	f6 2e       	mov	r15, r22
    4d0c:	fc 01       	movw	r30, r24
    4d0e:	13 82       	std	Z+3, r1	; 0x03
    4d10:	12 82       	std	Z+2, r1	; 0x02
    4d12:	88 ee       	ldi	r24, 0xE8	; 232
    4d14:	93 e0       	ldi	r25, 0x03	; 3
    4d16:	a0 e0       	ldi	r26, 0x00	; 0
    4d18:	b0 e0       	ldi	r27, 0x00	; 0
    4d1a:	84 83       	std	Z+4, r24	; 0x04
    4d1c:	95 83       	std	Z+5, r25	; 0x05
    4d1e:	a6 83       	std	Z+6, r26	; 0x06
    4d20:	b7 83       	std	Z+7, r27	; 0x07
    4d22:	80 ea       	ldi	r24, 0xA0	; 160
    4d24:	91 e0       	ldi	r25, 0x01	; 1
    4d26:	91 83       	std	Z+1, r25	; 0x01
    4d28:	80 83       	st	Z, r24
    4d2a:	14 8a       	std	Z+20, r1	; 0x14
    4d2c:	13 8a       	std	Z+19, r1	; 0x13
    4d2e:	16 8a       	std	Z+22, r1	; 0x16
    4d30:	15 8a       	std	Z+21, r1	; 0x15
    4d32:	10 8e       	std	Z+24, r1	; 0x18
    4d34:	17 8a       	std	Z+23, r1	; 0x17
    4d36:	12 8e       	std	Z+26, r1	; 0x1a
    4d38:	11 8e       	std	Z+25, r1	; 0x19
    4d3a:	83 8d       	ldd	r24, Z+27	; 0x1b
    4d3c:	21 70       	andi	r18, 0x01	; 1
    4d3e:	22 0f       	add	r18, r18
    4d40:	8c 7f       	andi	r24, 0xFC	; 252
    4d42:	82 2b       	or	r24, r18
    4d44:	83 8f       	std	Z+27, r24	; 0x1b
    4d46:	c8 01       	movw	r24, r16
    4d48:	64 2f       	mov	r22, r20
    4d4a:	0e 94 56 26 	call	0x4cac	;  0x4cac
    4d4e:	c8 01       	movw	r24, r16
    4d50:	6f 2d       	mov	r22, r15
    4d52:	0e 94 2b 26 	call	0x4c56	;  0x4c56
    4d56:	1f 91       	pop	r17
    4d58:	0f 91       	pop	r16
    4d5a:	ff 90       	pop	r15
    4d5c:	08 95       	ret
    4d5e:	08 95       	ret
    4d60:	df 93       	push	r29
    4d62:	cf 93       	push	r28
    4d64:	cd b7       	in	r28, 0x3d	; 61
    4d66:	de b7       	in	r29, 0x3e	; 62
    4d68:	28 97       	sbiw	r28, 0x08	; 8
    4d6a:	0f b6       	in	r0, 0x3f	; 63
    4d6c:	f8 94       	cli
    4d6e:	de bf       	out	0x3e, r29	; 62
    4d70:	0f be       	out	0x3f, r0	; 63
    4d72:	cd bf       	out	0x3d, r28	; 61
    4d74:	fc 01       	movw	r30, r24
    4d76:	88 eb       	ldi	r24, 0xB8	; 184
    4d78:	91 e0       	ldi	r25, 0x01	; 1
    4d7a:	91 83       	std	Z+1, r25	; 0x01
    4d7c:	80 83       	st	Z, r24
    4d7e:	3b 96       	adiw	r30, 0x0b	; 11
    4d80:	de 01       	movw	r26, r28
    4d82:	11 96       	adiw	r26, 0x01	; 1
    4d84:	88 e0       	ldi	r24, 0x08	; 8
    4d86:	0d 90       	ld	r0, X+
    4d88:	01 92       	st	Z+, r0
    4d8a:	81 50       	subi	r24, 0x01	; 1
    4d8c:	e1 f7       	brne	.-8      	;  0x4d86
    4d8e:	28 96       	adiw	r28, 0x08	; 8
    4d90:	0f b6       	in	r0, 0x3f	; 63
    4d92:	f8 94       	cli
    4d94:	de bf       	out	0x3e, r29	; 62
    4d96:	0f be       	out	0x3f, r0	; 63
    4d98:	cd bf       	out	0x3d, r28	; 61
    4d9a:	cf 91       	pop	r28
    4d9c:	df 91       	pop	r29
    4d9e:	08 95       	ret
    4da0:	fc 01       	movw	r30, r24
    4da2:	82 ec       	ldi	r24, 0xC2	; 194
    4da4:	91 e0       	ldi	r25, 0x01	; 1
    4da6:	91 83       	std	Z+1, r25	; 0x01
    4da8:	80 83       	st	Z, r24
    4daa:	08 95       	ret
    4dac:	08 95       	ret
    4dae:	1f 93       	push	r17
    4db0:	fc 01       	movw	r30, r24
    4db2:	16 81       	ldd	r17, Z+6	; 0x06
    4db4:	a0 81       	ld	r26, Z
    4db6:	b1 81       	ldd	r27, Z+1	; 0x01
    4db8:	12 96       	adiw	r26, 0x02	; 2
    4dba:	2d 91       	ld	r18, X+
    4dbc:	3c 91       	ld	r19, X
    4dbe:	13 97       	sbiw	r26, 0x03	; 3
    4dc0:	f9 01       	movw	r30, r18
    4dc2:	09 95       	icall
    4dc4:	11 50       	subi	r17, 0x01	; 1
    4dc6:	18 1b       	sub	r17, r24
    4dc8:	81 2f       	mov	r24, r17
    4dca:	1f 91       	pop	r17
    4dcc:	08 95       	ret
    4dce:	fc 01       	movw	r30, r24
    4dd0:	a0 81       	ld	r26, Z
    4dd2:	b1 81       	ldd	r27, Z+1	; 0x01
    4dd4:	14 96       	adiw	r26, 0x04	; 4
    4dd6:	2d 91       	ld	r18, X+
    4dd8:	3c 91       	ld	r19, X
    4dda:	15 97       	sbiw	r26, 0x05	; 5
    4ddc:	f9 01       	movw	r30, r18
    4dde:	09 95       	icall
    4de0:	8e 5f       	subi	r24, 0xFE	; 254
    4de2:	08 95       	ret
    4de4:	82 e0       	ldi	r24, 0x02	; 2
    4de6:	08 95       	ret
    4de8:	88 e0       	ldi	r24, 0x08	; 8
    4dea:	08 95       	ret
    4dec:	fc 01       	movw	r30, r24
    4dee:	12 86       	std	Z+10, r1	; 0x0a
    4df0:	11 86       	std	Z+9, r1	; 0x09
    4df2:	14 86       	std	Z+12, r1	; 0x0c
    4df4:	15 86       	std	Z+13, r1	; 0x0d
    4df6:	17 82       	std	Z+7, r1	; 0x07
    4df8:	10 86       	std	Z+8, r1	; 0x08
    4dfa:	15 82       	std	Z+5, r1	; 0x05
    4dfc:	0e 96       	adiw	r24, 0x0e	; 14
    4dfe:	91 83       	std	Z+1, r25	; 0x01
    4e00:	80 83       	st	Z, r24
    4e02:	e4 58       	subi	r30, 0x84	; 132
    4e04:	ff 4f       	sbci	r31, 0xFF	; 255
    4e06:	89 e2       	ldi	r24, 0x29	; 41
    4e08:	97 e0       	ldi	r25, 0x07	; 7
    4e0a:	91 83       	std	Z+1, r25	; 0x01
    4e0c:	80 83       	st	Z, r24
    4e0e:	08 95       	ret
    4e10:	fc 01       	movw	r30, r24
    4e12:	e4 58       	subi	r30, 0x84	; 132
    4e14:	ff 4f       	sbci	r31, 0xFF	; 255
    4e16:	a0 81       	ld	r26, Z
    4e18:	b1 81       	ldd	r27, Z+1	; 0x01
    4e1a:	ed 91       	ld	r30, X+
    4e1c:	fc 91       	ld	r31, X
    4e1e:	11 97       	sbiw	r26, 0x01	; 1
    4e20:	02 84       	ldd	r0, Z+10	; 0x0a
    4e22:	f3 85       	ldd	r31, Z+11	; 0x0b
    4e24:	e0 2d       	mov	r30, r0
    4e26:	cd 01       	movw	r24, r26
    4e28:	09 95       	icall
    4e2a:	08 95       	ret
    4e2c:	08 95       	ret
    4e2e:	0f 93       	push	r16
    4e30:	1f 93       	push	r17
    4e32:	fc 01       	movw	r30, r24
    4e34:	40 83       	st	Z, r20
    4e36:	51 83       	std	Z+1, r21	; 0x01
    4e38:	62 83       	std	Z+2, r22	; 0x02
    4e3a:	73 83       	std	Z+3, r23	; 0x03
    4e3c:	04 83       	std	Z+4, r16	; 0x04
    4e3e:	15 83       	std	Z+5, r17	; 0x05
    4e40:	26 83       	std	Z+6, r18	; 0x06
    4e42:	37 83       	std	Z+7, r19	; 0x07
    4e44:	1f 91       	pop	r17
    4e46:	0f 91       	pop	r16
    4e48:	08 95       	ret
    4e4a:	cf 93       	push	r28
    4e4c:	df 93       	push	r29
    4e4e:	fc 01       	movw	r30, r24
    4e50:	12 82       	std	Z+2, r1	; 0x02
    4e52:	81 e0       	ldi	r24, 0x01	; 1
    4e54:	83 83       	std	Z+3, r24	; 0x03
    4e56:	55 83       	std	Z+5, r21	; 0x05
    4e58:	44 83       	std	Z+4, r20	; 0x04
    4e5a:	26 83       	std	Z+6, r18	; 0x06
    4e5c:	80 eb       	ldi	r24, 0xB0	; 176
    4e5e:	91 e0       	ldi	r25, 0x01	; 1
    4e60:	91 83       	std	Z+1, r25	; 0x01
    4e62:	80 83       	st	Z, r24
    4e64:	ef 01       	movw	r28, r30
    4e66:	27 96       	adiw	r28, 0x07	; 7
    4e68:	db 01       	movw	r26, r22
    4e6a:	88 e0       	ldi	r24, 0x08	; 8
    4e6c:	0d 90       	ld	r0, X+
    4e6e:	09 92       	st	Y+, r0
    4e70:	81 50       	subi	r24, 0x01	; 1
    4e72:	e1 f7       	brne	.-8      	;  0x4e6c
    4e74:	17 86       	std	Z+15, r1	; 0x0f
    4e76:	df 91       	pop	r29
    4e78:	cf 91       	pop	r28
    4e7a:	08 95       	ret
    4e7c:	fc 01       	movw	r30, r24
    4e7e:	66 23       	and	r22, r22
    4e80:	11 f4       	brne	.+4      	;  0x4e86
    4e82:	82 85       	ldd	r24, Z+10	; 0x0a
    4e84:	08 95       	ret
    4e86:	61 30       	cpi	r22, 0x01	; 1
    4e88:	11 f4       	brne	.+4      	;  0x4e8e
    4e8a:	81 85       	ldd	r24, Z+9	; 0x09
    4e8c:	08 95       	ret
    4e8e:	62 30       	cpi	r22, 0x02	; 2
    4e90:	29 f4       	brne	.+10     	;  0x4e9c
    4e92:	87 81       	ldd	r24, Z+7	; 0x07
    4e94:	90 85       	ldd	r25, Z+8	; 0x08
    4e96:	a1 85       	ldd	r26, Z+9	; 0x09
    4e98:	b2 85       	ldd	r27, Z+10	; 0x0a
    4e9a:	12 c0       	rjmp	.+36     	;  0x4ec0
    4e9c:	63 30       	cpi	r22, 0x03	; 3
    4e9e:	11 f4       	brne	.+4      	;  0x4ea4
    4ea0:	87 81       	ldd	r24, Z+7	; 0x07
    4ea2:	08 95       	ret
    4ea4:	64 30       	cpi	r22, 0x04	; 4
    4ea6:	11 f4       	brne	.+4      	;  0x4eac
    4ea8:	86 85       	ldd	r24, Z+14	; 0x0e
    4eaa:	08 95       	ret
    4eac:	65 30       	cpi	r22, 0x05	; 5
    4eae:	11 f4       	brne	.+4      	;  0x4eb4
    4eb0:	85 85       	ldd	r24, Z+13	; 0x0d
    4eb2:	08 95       	ret
    4eb4:	66 30       	cpi	r22, 0x06	; 6
    4eb6:	49 f4       	brne	.+18     	;  0x4eca
    4eb8:	83 85       	ldd	r24, Z+11	; 0x0b
    4eba:	94 85       	ldd	r25, Z+12	; 0x0c
    4ebc:	a5 85       	ldd	r26, Z+13	; 0x0d
    4ebe:	b6 85       	ldd	r27, Z+14	; 0x0e
    4ec0:	89 2f       	mov	r24, r25
    4ec2:	9a 2f       	mov	r25, r26
    4ec4:	ab 2f       	mov	r26, r27
    4ec6:	bb 27       	eor	r27, r27
    4ec8:	08 95       	ret
    4eca:	67 30       	cpi	r22, 0x07	; 7
    4ecc:	11 f4       	brne	.+4      	;  0x4ed2
    4ece:	83 85       	ldd	r24, Z+11	; 0x0b
    4ed0:	08 95       	ret
    4ed2:	68 30       	cpi	r22, 0x08	; 8
    4ed4:	11 f4       	brne	.+4      	;  0x4eda
    4ed6:	87 85       	ldd	r24, Z+15	; 0x0f
    4ed8:	08 95       	ret
    4eda:	04 80       	ldd	r0, Z+4	; 0x04
    4edc:	f5 81       	ldd	r31, Z+5	; 0x05
    4ede:	e0 2d       	mov	r30, r0
    4ee0:	e6 0f       	add	r30, r22
    4ee2:	f1 1d       	adc	r31, r1
    4ee4:	39 97       	sbiw	r30, 0x09	; 9
    4ee6:	80 81       	ld	r24, Z
    4ee8:	08 95       	ret
    4eea:	fc 01       	movw	r30, r24
    4eec:	86 81       	ldd	r24, Z+6	; 0x06
    4eee:	87 5f       	subi	r24, 0xF7	; 247
    4ef0:	08 95       	ret
    4ef2:	0f 93       	push	r16
    4ef4:	df 93       	push	r29
    4ef6:	cf 93       	push	r28
    4ef8:	00 d0       	rcall	.+0      	;  0x4efa
    4efa:	cd b7       	in	r28, 0x3d	; 61
    4efc:	de b7       	in	r29, 0x3e	; 62
    4efe:	fc 01       	movw	r30, r24
    4f00:	06 2f       	mov	r16, r22
    4f02:	44 23       	and	r20, r20
    4f04:	41 f1       	breq	.+80     	;  0x4f56
    4f06:	86 2f       	mov	r24, r22
    4f08:	8d 57       	subi	r24, 0x7D	; 125
    4f0a:	82 30       	cpi	r24, 0x02	; 2
    4f0c:	20 f0       	brcs	.+8      	;  0x4f16
    4f0e:	61 31       	cpi	r22, 0x11	; 17
    4f10:	11 f0       	breq	.+4      	;  0x4f16
    4f12:	63 31       	cpi	r22, 0x13	; 19
    4f14:	01 f5       	brne	.+64     	;  0x4f56
    4f16:	cf 01       	movw	r24, r30
    4f18:	84 58       	subi	r24, 0x84	; 132
    4f1a:	9f 4f       	sbci	r25, 0xFF	; 255
    4f1c:	9a 83       	std	Y+2, r25	; 0x02
    4f1e:	89 83       	std	Y+1, r24	; 0x01
    4f20:	fc 01       	movw	r30, r24
    4f22:	a0 81       	ld	r26, Z
    4f24:	b1 81       	ldd	r27, Z+1	; 0x01
    4f26:	ed 91       	ld	r30, X+
    4f28:	fc 91       	ld	r31, X
    4f2a:	11 97       	sbiw	r26, 0x01	; 1
    4f2c:	01 90       	ld	r0, Z+
    4f2e:	f0 81       	ld	r31, Z
    4f30:	e0 2d       	mov	r30, r0
    4f32:	cd 01       	movw	r24, r26
    4f34:	6d e7       	ldi	r22, 0x7D	; 125
    4f36:	09 95       	icall
    4f38:	e9 81       	ldd	r30, Y+1	; 0x01
    4f3a:	fa 81       	ldd	r31, Y+2	; 0x02
    4f3c:	a0 81       	ld	r26, Z
    4f3e:	b1 81       	ldd	r27, Z+1	; 0x01
    4f40:	ed 91       	ld	r30, X+
    4f42:	fc 91       	ld	r31, X
    4f44:	11 97       	sbiw	r26, 0x01	; 1
    4f46:	60 e2       	ldi	r22, 0x20	; 32
    4f48:	60 27       	eor	r22, r16
    4f4a:	01 90       	ld	r0, Z+
    4f4c:	f0 81       	ld	r31, Z
    4f4e:	e0 2d       	mov	r30, r0
    4f50:	cd 01       	movw	r24, r26
    4f52:	09 95       	icall
    4f54:	0d c0       	rjmp	.+26     	;  0x4f70
    4f56:	e4 58       	subi	r30, 0x84	; 132
    4f58:	ff 4f       	sbci	r31, 0xFF	; 255
    4f5a:	01 90       	ld	r0, Z+
    4f5c:	f0 81       	ld	r31, Z
    4f5e:	e0 2d       	mov	r30, r0
    4f60:	a0 81       	ld	r26, Z
    4f62:	b1 81       	ldd	r27, Z+1	; 0x01
    4f64:	2d 91       	ld	r18, X+
    4f66:	3c 91       	ld	r19, X
    4f68:	cf 01       	movw	r24, r30
    4f6a:	60 2f       	mov	r22, r16
    4f6c:	f9 01       	movw	r30, r18
    4f6e:	09 95       	icall
    4f70:	0f 90       	pop	r0
    4f72:	0f 90       	pop	r0
    4f74:	cf 91       	pop	r28
    4f76:	df 91       	pop	r29
    4f78:	0f 91       	pop	r16
    4f7a:	08 95       	ret
    4f7c:	cf 92       	push	r12
    4f7e:	df 92       	push	r13
    4f80:	ff 92       	push	r15
    4f82:	0f 93       	push	r16
    4f84:	1f 93       	push	r17
    4f86:	cf 93       	push	r28
    4f88:	df 93       	push	r29
    4f8a:	6c 01       	movw	r12, r24
    4f8c:	eb 01       	movw	r28, r22
    4f8e:	6e e7       	ldi	r22, 0x7E	; 126
    4f90:	40 e0       	ldi	r20, 0x00	; 0
    4f92:	0e 94 79 27 	call	0x4ef2	;  0x4ef2
    4f96:	e8 81       	ld	r30, Y
    4f98:	f9 81       	ldd	r31, Y+1	; 0x01
    4f9a:	02 80       	ldd	r0, Z+2	; 0x02
    4f9c:	f3 81       	ldd	r31, Z+3	; 0x03
    4f9e:	e0 2d       	mov	r30, r0
    4fa0:	ce 01       	movw	r24, r28
    4fa2:	09 95       	icall
    4fa4:	08 2f       	mov	r16, r24
    4fa6:	e8 81       	ld	r30, Y
    4fa8:	f9 81       	ldd	r31, Y+1	; 0x01
    4faa:	02 80       	ldd	r0, Z+2	; 0x02
    4fac:	f3 81       	ldd	r31, Z+3	; 0x03
    4fae:	e0 2d       	mov	r30, r0
    4fb0:	ce 01       	movw	r24, r28
    4fb2:	09 95       	icall
    4fb4:	f8 2e       	mov	r15, r24
    4fb6:	10 e0       	ldi	r17, 0x00	; 0
    4fb8:	0e 5f       	subi	r16, 0xFE	; 254
    4fba:	1f 4f       	sbci	r17, 0xFF	; 255
    4fbc:	c6 01       	movw	r24, r12
    4fbe:	61 2f       	mov	r22, r17
    4fc0:	41 e0       	ldi	r20, 0x01	; 1
    4fc2:	0e 94 79 27 	call	0x4ef2	;  0x4ef2
    4fc6:	82 e0       	ldi	r24, 0x02	; 2
    4fc8:	f8 0e       	add	r15, r24
    4fca:	c6 01       	movw	r24, r12
    4fcc:	6f 2d       	mov	r22, r15
    4fce:	41 e0       	ldi	r20, 0x01	; 1
    4fd0:	0e 94 79 27 	call	0x4ef2	;  0x4ef2
    4fd4:	c6 01       	movw	r24, r12
    4fd6:	6a 81       	ldd	r22, Y+2	; 0x02
    4fd8:	41 e0       	ldi	r20, 0x01	; 1
    4fda:	0e 94 79 27 	call	0x4ef2	;  0x4ef2
    4fde:	c6 01       	movw	r24, r12
    4fe0:	6b 81       	ldd	r22, Y+3	; 0x03
    4fe2:	41 e0       	ldi	r20, 0x01	; 1
    4fe4:	0e 94 79 27 	call	0x4ef2	;  0x4ef2
    4fe8:	fb 80       	ldd	r15, Y+3	; 0x03
    4fea:	8a 81       	ldd	r24, Y+2	; 0x02
    4fec:	f8 0e       	add	r15, r24
    4fee:	00 e0       	ldi	r16, 0x00	; 0
    4ff0:	10 e0       	ldi	r17, 0x00	; 0
    4ff2:	18 c0       	rjmp	.+48     	;  0x5024
    4ff4:	e8 81       	ld	r30, Y
    4ff6:	f9 81       	ldd	r31, Y+1	; 0x01
    4ff8:	01 90       	ld	r0, Z+
    4ffa:	f0 81       	ld	r31, Z
    4ffc:	e0 2d       	mov	r30, r0
    4ffe:	ce 01       	movw	r24, r28
    5000:	60 2f       	mov	r22, r16
    5002:	09 95       	icall
    5004:	68 2f       	mov	r22, r24
    5006:	c6 01       	movw	r24, r12
    5008:	41 e0       	ldi	r20, 0x01	; 1
    500a:	0e 94 79 27 	call	0x4ef2	;  0x4ef2
    500e:	e8 81       	ld	r30, Y
    5010:	f9 81       	ldd	r31, Y+1	; 0x01
    5012:	01 90       	ld	r0, Z+
    5014:	f0 81       	ld	r31, Z
    5016:	e0 2d       	mov	r30, r0
    5018:	ce 01       	movw	r24, r28
    501a:	60 2f       	mov	r22, r16
    501c:	09 95       	icall
    501e:	f8 0e       	add	r15, r24
    5020:	0f 5f       	subi	r16, 0xFF	; 255
    5022:	1f 4f       	sbci	r17, 0xFF	; 255
    5024:	e8 81       	ld	r30, Y
    5026:	f9 81       	ldd	r31, Y+1	; 0x01
    5028:	02 80       	ldd	r0, Z+2	; 0x02
    502a:	f3 81       	ldd	r31, Z+3	; 0x03
    502c:	e0 2d       	mov	r30, r0
    502e:	ce 01       	movw	r24, r28
    5030:	09 95       	icall
    5032:	90 e0       	ldi	r25, 0x00	; 0
    5034:	08 17       	cp	r16, r24
    5036:	19 07       	cpc	r17, r25
    5038:	ec f2       	brlt	.-70     	;  0x4ff4
    503a:	f0 94       	com	r15
    503c:	c6 01       	movw	r24, r12
    503e:	6f 2d       	mov	r22, r15
    5040:	41 e0       	ldi	r20, 0x01	; 1
    5042:	0e 94 79 27 	call	0x4ef2	;  0x4ef2
    5046:	c6 01       	movw	r24, r12
    5048:	0e 94 08 27 	call	0x4e10	;  0x4e10
    504c:	df 91       	pop	r29
    504e:	cf 91       	pop	r28
    5050:	1f 91       	pop	r17
    5052:	0f 91       	pop	r16
    5054:	ff 90       	pop	r15
    5056:	df 90       	pop	r13
    5058:	cf 90       	pop	r12
    505a:	08 95       	ret
    505c:	10 92 99 06 	sts	0x0699, r1
    5060:	10 92 9a 06 	sts	0x069A, r1
    5064:	10 92 9b 06 	sts	0x069B, r1
    5068:	10 92 9c 06 	sts	0x069C, r1
    506c:	8f ef       	ldi	r24, 0xFF	; 255
    506e:	9f ef       	ldi	r25, 0xFF	; 255
    5070:	a0 e0       	ldi	r26, 0x00	; 0
    5072:	b0 e0       	ldi	r27, 0x00	; 0
    5074:	80 93 9d 06 	sts	0x069D, r24
    5078:	90 93 9e 06 	sts	0x069E, r25
    507c:	a0 93 9f 06 	sts	0x069F, r26
    5080:	b0 93 a0 06 	sts	0x06A0, r27
    5084:	08 95       	ret
    5086:	fc 01       	movw	r30, r24
    5088:	e4 58       	subi	r30, 0x84	; 132
    508a:	ff 4f       	sbci	r31, 0xFF	; 255
    508c:	80 81       	ld	r24, Z
    508e:	91 81       	ldd	r25, Z+1	; 0x01
    5090:	0e 94 dc 28 	call	0x51b8	;  0x51b8
    5094:	08 95       	ret
    5096:	08 95       	ret
    5098:	1f 92       	push	r1
    509a:	0f 92       	push	r0
    509c:	0f b6       	in	r0, 0x3f	; 63
    509e:	0f 92       	push	r0
    50a0:	11 24       	eor	r1, r1
    50a2:	2f 93       	push	r18
    50a4:	3f 93       	push	r19
    50a6:	4f 93       	push	r20
    50a8:	8f 93       	push	r24
    50aa:	9f 93       	push	r25
    50ac:	ef 93       	push	r30
    50ae:	ff 93       	push	r31
    50b0:	40 91 c6 00 	lds	r20, 0x00C6
    50b4:	20 91 e1 06 	lds	r18, 0x06E1
    50b8:	30 91 e2 06 	lds	r19, 0x06E2
    50bc:	2f 5f       	subi	r18, 0xFF	; 255
    50be:	3f 4f       	sbci	r19, 0xFF	; 255
    50c0:	2f 73       	andi	r18, 0x3F	; 63
    50c2:	30 70       	andi	r19, 0x00	; 0
    50c4:	80 91 e3 06 	lds	r24, 0x06E3
    50c8:	90 91 e4 06 	lds	r25, 0x06E4
    50cc:	28 17       	cp	r18, r24
    50ce:	39 07       	cpc	r19, r25
    50d0:	59 f0       	breq	.+22     	;  0x50e8
    50d2:	e0 91 e1 06 	lds	r30, 0x06E1
    50d6:	f0 91 e2 06 	lds	r31, 0x06E2
    50da:	ef 55       	subi	r30, 0x5F	; 95
    50dc:	f9 4f       	sbci	r31, 0xF9	; 249
    50de:	40 83       	st	Z, r20
    50e0:	30 93 e2 06 	sts	0x06E2, r19
    50e4:	20 93 e1 06 	sts	0x06E1, r18
    50e8:	ff 91       	pop	r31
    50ea:	ef 91       	pop	r30
    50ec:	9f 91       	pop	r25
    50ee:	8f 91       	pop	r24
    50f0:	4f 91       	pop	r20
    50f2:	3f 91       	pop	r19
    50f4:	2f 91       	pop	r18
    50f6:	0f 90       	pop	r0
    50f8:	0f be       	out	0x3f, r0	; 63
    50fa:	0f 90       	pop	r0
    50fc:	1f 90       	pop	r1
    50fe:	18 95       	reti
    5100:	e0 91 35 07 	lds	r30, 0x0735
    5104:	f0 91 36 07 	lds	r31, 0x0736
    5108:	e0 5c       	subi	r30, 0xC0	; 192
    510a:	ff 4f       	sbci	r31, 0xFF	; 255
    510c:	81 91       	ld	r24, Z+
    510e:	91 91       	ld	r25, Z+
    5110:	20 81       	ld	r18, Z
    5112:	31 81       	ldd	r19, Z+1	; 0x01
    5114:	82 1b       	sub	r24, r18
    5116:	93 0b       	sbc	r25, r19
    5118:	8f 73       	andi	r24, 0x3F	; 63
    511a:	90 70       	andi	r25, 0x00	; 0
    511c:	89 2b       	or	r24, r25
    511e:	11 f0       	breq	.+4      	;  0x5124
    5120:	0e 94 4b 28 	call	0x5096	;  0x5096
    5124:	08 95       	ret
    5126:	1f 92       	push	r1
    5128:	0f 92       	push	r0
    512a:	0f b6       	in	r0, 0x3f	; 63
    512c:	0f 92       	push	r0
    512e:	11 24       	eor	r1, r1
    5130:	2f 93       	push	r18
    5132:	3f 93       	push	r19
    5134:	4f 93       	push	r20
    5136:	5f 93       	push	r21
    5138:	6f 93       	push	r22
    513a:	7f 93       	push	r23
    513c:	8f 93       	push	r24
    513e:	9f 93       	push	r25
    5140:	af 93       	push	r26
    5142:	bf 93       	push	r27
    5144:	ef 93       	push	r30
    5146:	ff 93       	push	r31
    5148:	20 91 25 07 	lds	r18, 0x0725
    514c:	30 91 26 07 	lds	r19, 0x0726
    5150:	80 91 27 07 	lds	r24, 0x0727
    5154:	90 91 28 07 	lds	r25, 0x0728
    5158:	28 17       	cp	r18, r24
    515a:	39 07       	cpc	r19, r25
    515c:	31 f4       	brne	.+12     	;  0x516a
    515e:	80 91 c1 00 	lds	r24, 0x00C1
    5162:	8f 7d       	andi	r24, 0xDF	; 223
    5164:	80 93 c1 00 	sts	0x00C1, r24
    5168:	16 c0       	rjmp	.+44     	;  0x5196
    516a:	e0 91 27 07 	lds	r30, 0x0727
    516e:	f0 91 28 07 	lds	r31, 0x0728
    5172:	eb 51       	subi	r30, 0x1B	; 27
    5174:	f9 4f       	sbci	r31, 0xF9	; 249
    5176:	40 81       	ld	r20, Z
    5178:	80 91 27 07 	lds	r24, 0x0727
    517c:	90 91 28 07 	lds	r25, 0x0728
    5180:	01 96       	adiw	r24, 0x01	; 1
    5182:	60 e4       	ldi	r22, 0x40	; 64
    5184:	70 e0       	ldi	r23, 0x00	; 0
    5186:	0e 94 c2 2e 	call	0x5d84	;  0x5d84
    518a:	90 93 28 07 	sts	0x0728, r25
    518e:	80 93 27 07 	sts	0x0727, r24
    5192:	40 93 c6 00 	sts	0x00C6, r20
    5196:	ff 91       	pop	r31
    5198:	ef 91       	pop	r30
    519a:	bf 91       	pop	r27
    519c:	af 91       	pop	r26
    519e:	9f 91       	pop	r25
    51a0:	8f 91       	pop	r24
    51a2:	7f 91       	pop	r23
    51a4:	6f 91       	pop	r22
    51a6:	5f 91       	pop	r21
    51a8:	4f 91       	pop	r20
    51aa:	3f 91       	pop	r19
    51ac:	2f 91       	pop	r18
    51ae:	0f 90       	pop	r0
    51b0:	0f be       	out	0x3f, r0	; 63
    51b2:	0f 90       	pop	r0
    51b4:	1f 90       	pop	r1
    51b6:	18 95       	reti
    51b8:	af 92       	push	r10
    51ba:	bf 92       	push	r11
    51bc:	df 92       	push	r13
    51be:	ef 92       	push	r14
    51c0:	ff 92       	push	r15
    51c2:	0f 93       	push	r16
    51c4:	1f 93       	push	r17
    51c6:	cf 93       	push	r28
    51c8:	df 93       	push	r29
    51ca:	ec 01       	movw	r28, r24
    51cc:	7a 01       	movw	r14, r20
    51ce:	8b 01       	movw	r16, r22
    51d0:	dd 24       	eor	r13, r13
    51d2:	40 30       	cpi	r20, 0x00	; 0
    51d4:	81 ee       	ldi	r24, 0xE1	; 225
    51d6:	58 07       	cpc	r21, r24
    51d8:	80 e0       	ldi	r24, 0x00	; 0
    51da:	68 07       	cpc	r22, r24
    51dc:	80 e0       	ldi	r24, 0x00	; 0
    51de:	78 07       	cpc	r23, r24
    51e0:	11 f0       	breq	.+4      	;  0x51e6
    51e2:	dd 24       	eor	r13, r13
    51e4:	d3 94       	inc	r13
    51e6:	91 e0       	ldi	r25, 0x01	; 1
    51e8:	a9 2e       	mov	r10, r25
    51ea:	b1 2c       	mov	r11, r1
    51ec:	ec 89       	ldd	r30, Y+20	; 0x14
    51ee:	fd 89       	ldd	r31, Y+21	; 0x15
    51f0:	dd 20       	and	r13, r13
    51f2:	69 f0       	breq	.+26     	;  0x520e
    51f4:	c5 01       	movw	r24, r10
    51f6:	0e 8c       	ldd	r0, Y+30	; 0x1e
    51f8:	02 c0       	rjmp	.+4      	;  0x51fe
    51fa:	88 0f       	add	r24, r24
    51fc:	99 1f       	adc	r25, r25
    51fe:	0a 94       	dec	r0
    5200:	e2 f7       	brpl	.-8      	;  0x51fa
    5202:	80 83       	st	Z, r24
    5204:	60 e0       	ldi	r22, 0x00	; 0
    5206:	79 e0       	ldi	r23, 0x09	; 9
    5208:	8d e3       	ldi	r24, 0x3D	; 61
    520a:	90 e0       	ldi	r25, 0x00	; 0
    520c:	05 c0       	rjmp	.+10     	;  0x5218
    520e:	10 82       	st	Z, r1
    5210:	60 e8       	ldi	r22, 0x80	; 128
    5212:	74 e8       	ldi	r23, 0x84	; 132
    5214:	8e e1       	ldi	r24, 0x1E	; 30
    5216:	90 e0       	ldi	r25, 0x00	; 0
    5218:	a8 01       	movw	r20, r16
    521a:	97 01       	movw	r18, r14
    521c:	0e 94 d5 2e 	call	0x5daa	;  0x5daa
    5220:	21 50       	subi	r18, 0x01	; 1
    5222:	30 40       	sbci	r19, 0x00	; 0
    5224:	40 40       	sbci	r20, 0x00	; 0
    5226:	50 40       	sbci	r21, 0x00	; 0
    5228:	56 95       	lsr	r21
    522a:	47 95       	ror	r20
    522c:	37 95       	ror	r19
    522e:	27 95       	ror	r18
    5230:	80 e1       	ldi	r24, 0x10	; 16
    5232:	20 30       	cpi	r18, 0x00	; 0
    5234:	38 07       	cpc	r19, r24
    5236:	20 f0       	brcs	.+8      	;  0x5240
    5238:	dd 20       	and	r13, r13
    523a:	11 f0       	breq	.+4      	;  0x5240
    523c:	dd 24       	eor	r13, r13
    523e:	d6 cf       	rjmp	.-84     	;  0x51ec
    5240:	e8 89       	ldd	r30, Y+16	; 0x10
    5242:	f9 89       	ldd	r31, Y+17	; 0x11
    5244:	30 83       	st	Z, r19
    5246:	ea 89       	ldd	r30, Y+18	; 0x12
    5248:	fb 89       	ldd	r31, Y+19	; 0x13
    524a:	20 83       	st	Z, r18
    524c:	ee 89       	ldd	r30, Y+22	; 0x16
    524e:	ff 89       	ldd	r31, Y+23	; 0x17
    5250:	40 81       	ld	r20, Z
    5252:	21 e0       	ldi	r18, 0x01	; 1
    5254:	30 e0       	ldi	r19, 0x00	; 0
    5256:	c9 01       	movw	r24, r18
    5258:	0a 8c       	ldd	r0, Y+26	; 0x1a
    525a:	02 c0       	rjmp	.+4      	;  0x5260
    525c:	88 0f       	add	r24, r24
    525e:	99 1f       	adc	r25, r25
    5260:	0a 94       	dec	r0
    5262:	e2 f7       	brpl	.-8      	;  0x525c
    5264:	48 2b       	or	r20, r24
    5266:	40 83       	st	Z, r20
    5268:	ee 89       	ldd	r30, Y+22	; 0x16
    526a:	ff 89       	ldd	r31, Y+23	; 0x17
    526c:	40 81       	ld	r20, Z
    526e:	c9 01       	movw	r24, r18
    5270:	0b 8c       	ldd	r0, Y+27	; 0x1b
    5272:	02 c0       	rjmp	.+4      	;  0x5278
    5274:	88 0f       	add	r24, r24
    5276:	99 1f       	adc	r25, r25
    5278:	0a 94       	dec	r0
    527a:	e2 f7       	brpl	.-8      	;  0x5274
    527c:	48 2b       	or	r20, r24
    527e:	40 83       	st	Z, r20
    5280:	ee 89       	ldd	r30, Y+22	; 0x16
    5282:	ff 89       	ldd	r31, Y+23	; 0x17
    5284:	40 81       	ld	r20, Z
    5286:	c9 01       	movw	r24, r18
    5288:	0c 8c       	ldd	r0, Y+28	; 0x1c
    528a:	02 c0       	rjmp	.+4      	;  0x5290
    528c:	88 0f       	add	r24, r24
    528e:	99 1f       	adc	r25, r25
    5290:	0a 94       	dec	r0
    5292:	e2 f7       	brpl	.-8      	;  0x528c
    5294:	48 2b       	or	r20, r24
    5296:	40 83       	st	Z, r20
    5298:	ee 89       	ldd	r30, Y+22	; 0x16
    529a:	ff 89       	ldd	r31, Y+23	; 0x17
    529c:	80 81       	ld	r24, Z
    529e:	0d 8c       	ldd	r0, Y+29	; 0x1d
    52a0:	02 c0       	rjmp	.+4      	;  0x52a6
    52a2:	22 0f       	add	r18, r18
    52a4:	33 1f       	adc	r19, r19
    52a6:	0a 94       	dec	r0
    52a8:	e2 f7       	brpl	.-8      	;  0x52a2
    52aa:	20 95       	com	r18
    52ac:	28 23       	and	r18, r24
    52ae:	20 83       	st	Z, r18
    52b0:	df 91       	pop	r29
    52b2:	cf 91       	pop	r28
    52b4:	1f 91       	pop	r17
    52b6:	0f 91       	pop	r16
    52b8:	ff 90       	pop	r15
    52ba:	ef 90       	pop	r14
    52bc:	df 90       	pop	r13
    52be:	bf 90       	pop	r11
    52c0:	af 90       	pop	r10
    52c2:	08 95       	ret
    52c4:	dc 01       	movw	r26, r24
    52c6:	1c 96       	adiw	r26, 0x0c	; 12
    52c8:	ed 91       	ld	r30, X+
    52ca:	fc 91       	ld	r31, X
    52cc:	1d 97       	sbiw	r26, 0x0d	; 13
    52ce:	e0 5c       	subi	r30, 0xC0	; 192
    52d0:	ff 4f       	sbci	r31, 0xFF	; 255
    52d2:	21 91       	ld	r18, Z+
    52d4:	31 91       	ld	r19, Z+
    52d6:	80 81       	ld	r24, Z
    52d8:	91 81       	ldd	r25, Z+1	; 0x01
    52da:	28 1b       	sub	r18, r24
    52dc:	39 0b       	sbc	r19, r25
    52de:	2f 73       	andi	r18, 0x3F	; 63
    52e0:	30 70       	andi	r19, 0x00	; 0
    52e2:	c9 01       	movw	r24, r18
    52e4:	08 95       	ret
    52e6:	dc 01       	movw	r26, r24
    52e8:	1c 96       	adiw	r26, 0x0c	; 12
    52ea:	ed 91       	ld	r30, X+
    52ec:	fc 91       	ld	r31, X
    52ee:	1d 97       	sbiw	r26, 0x0d	; 13
    52f0:	e0 5c       	subi	r30, 0xC0	; 192
    52f2:	ff 4f       	sbci	r31, 0xFF	; 255
    52f4:	20 81       	ld	r18, Z
    52f6:	31 81       	ldd	r19, Z+1	; 0x01
    52f8:	e0 54       	subi	r30, 0x40	; 64
    52fa:	f0 40       	sbci	r31, 0x00	; 0
    52fc:	df 01       	movw	r26, r30
    52fe:	ae 5b       	subi	r26, 0xBE	; 190
    5300:	bf 4f       	sbci	r27, 0xFF	; 255
    5302:	8d 91       	ld	r24, X+
    5304:	9c 91       	ld	r25, X
    5306:	11 97       	sbiw	r26, 0x01	; 1
    5308:	28 17       	cp	r18, r24
    530a:	39 07       	cpc	r19, r25
    530c:	19 f4       	brne	.+6      	;  0x5314
    530e:	2f ef       	ldi	r18, 0xFF	; 255
    5310:	3f ef       	ldi	r19, 0xFF	; 255
    5312:	07 c0       	rjmp	.+14     	;  0x5322
    5314:	8d 91       	ld	r24, X+
    5316:	9c 91       	ld	r25, X
    5318:	e8 0f       	add	r30, r24
    531a:	f9 1f       	adc	r31, r25
    531c:	80 81       	ld	r24, Z
    531e:	28 2f       	mov	r18, r24
    5320:	30 e0       	ldi	r19, 0x00	; 0
    5322:	c9 01       	movw	r24, r18
    5324:	08 95       	ret
    5326:	dc 01       	movw	r26, r24
    5328:	1c 96       	adiw	r26, 0x0c	; 12
    532a:	ed 91       	ld	r30, X+
    532c:	fc 91       	ld	r31, X
    532e:	1d 97       	sbiw	r26, 0x0d	; 13
    5330:	e0 5c       	subi	r30, 0xC0	; 192
    5332:	ff 4f       	sbci	r31, 0xFF	; 255
    5334:	20 81       	ld	r18, Z
    5336:	31 81       	ldd	r19, Z+1	; 0x01
    5338:	e0 54       	subi	r30, 0x40	; 64
    533a:	f0 40       	sbci	r31, 0x00	; 0
    533c:	df 01       	movw	r26, r30
    533e:	ae 5b       	subi	r26, 0xBE	; 190
    5340:	bf 4f       	sbci	r27, 0xFF	; 255
    5342:	8d 91       	ld	r24, X+
    5344:	9c 91       	ld	r25, X
    5346:	11 97       	sbiw	r26, 0x01	; 1
    5348:	28 17       	cp	r18, r24
    534a:	39 07       	cpc	r19, r25
    534c:	19 f4       	brne	.+6      	;  0x5354
    534e:	2f ef       	ldi	r18, 0xFF	; 255
    5350:	3f ef       	ldi	r19, 0xFF	; 255
    5352:	10 c0       	rjmp	.+32     	;  0x5374
    5354:	8d 91       	ld	r24, X+
    5356:	9c 91       	ld	r25, X
    5358:	11 97       	sbiw	r26, 0x01	; 1
    535a:	e8 0f       	add	r30, r24
    535c:	f9 1f       	adc	r31, r25
    535e:	20 81       	ld	r18, Z
    5360:	8d 91       	ld	r24, X+
    5362:	9c 91       	ld	r25, X
    5364:	11 97       	sbiw	r26, 0x01	; 1
    5366:	01 96       	adiw	r24, 0x01	; 1
    5368:	8f 73       	andi	r24, 0x3F	; 63
    536a:	90 70       	andi	r25, 0x00	; 0
    536c:	11 96       	adiw	r26, 0x01	; 1
    536e:	9c 93       	st	X, r25
    5370:	8e 93       	st	-X, r24
    5372:	30 e0       	ldi	r19, 0x00	; 0
    5374:	c9 01       	movw	r24, r18
    5376:	08 95       	ret
    5378:	fc 01       	movw	r30, r24
    537a:	86 85       	ldd	r24, Z+14	; 0x0e
    537c:	97 85       	ldd	r25, Z+15	; 0x0f
    537e:	dc 01       	movw	r26, r24
    5380:	a0 5c       	subi	r26, 0xC0	; 192
    5382:	bf 4f       	sbci	r27, 0xFF	; 255
    5384:	fc 01       	movw	r30, r24
    5386:	ee 5b       	subi	r30, 0xBE	; 190
    5388:	ff 4f       	sbci	r31, 0xFF	; 255
    538a:	2d 91       	ld	r18, X+
    538c:	3c 91       	ld	r19, X
    538e:	11 97       	sbiw	r26, 0x01	; 1
    5390:	80 81       	ld	r24, Z
    5392:	91 81       	ldd	r25, Z+1	; 0x01
    5394:	28 17       	cp	r18, r24
    5396:	39 07       	cpc	r19, r25
    5398:	c1 f7       	brne	.-16     	;  0x538a
    539a:	08 95       	ret
    539c:	cf 93       	push	r28
    539e:	df 93       	push	r29
    53a0:	ec 01       	movw	r28, r24
    53a2:	46 2f       	mov	r20, r22
    53a4:	ee 85       	ldd	r30, Y+14	; 0x0e
    53a6:	ff 85       	ldd	r31, Y+15	; 0x0f
    53a8:	e0 5c       	subi	r30, 0xC0	; 192
    53aa:	ff 4f       	sbci	r31, 0xFF	; 255
    53ac:	80 81       	ld	r24, Z
    53ae:	91 81       	ldd	r25, Z+1	; 0x01
    53b0:	e0 54       	subi	r30, 0x40	; 64
    53b2:	f0 40       	sbci	r31, 0x00	; 0
    53b4:	01 96       	adiw	r24, 0x01	; 1
    53b6:	60 e4       	ldi	r22, 0x40	; 64
    53b8:	70 e0       	ldi	r23, 0x00	; 0
    53ba:	0e 94 c2 2e 	call	0x5d84	;  0x5d84
    53be:	9c 01       	movw	r18, r24
    53c0:	df 01       	movw	r26, r30
    53c2:	ae 5b       	subi	r26, 0xBE	; 190
    53c4:	bf 4f       	sbci	r27, 0xFF	; 255
    53c6:	8d 91       	ld	r24, X+
    53c8:	9c 91       	ld	r25, X
    53ca:	11 97       	sbiw	r26, 0x01	; 1
    53cc:	28 17       	cp	r18, r24
    53ce:	39 07       	cpc	r19, r25
    53d0:	d1 f3       	breq	.-12     	;  0x53c6
    53d2:	e0 5c       	subi	r30, 0xC0	; 192
    53d4:	ff 4f       	sbci	r31, 0xFF	; 255
    53d6:	80 81       	ld	r24, Z
    53d8:	91 81       	ldd	r25, Z+1	; 0x01
    53da:	e0 54       	subi	r30, 0x40	; 64
    53dc:	f0 40       	sbci	r31, 0x00	; 0
    53de:	e8 0f       	add	r30, r24
    53e0:	f9 1f       	adc	r31, r25
    53e2:	40 83       	st	Z, r20
    53e4:	ee 85       	ldd	r30, Y+14	; 0x0e
    53e6:	ff 85       	ldd	r31, Y+15	; 0x0f
    53e8:	e0 5c       	subi	r30, 0xC0	; 192
    53ea:	ff 4f       	sbci	r31, 0xFF	; 255
    53ec:	31 83       	std	Z+1, r19	; 0x01
    53ee:	20 83       	st	Z, r18
    53f0:	ee 89       	ldd	r30, Y+22	; 0x16
    53f2:	ff 89       	ldd	r31, Y+23	; 0x17
    53f4:	20 81       	ld	r18, Z
    53f6:	81 e0       	ldi	r24, 0x01	; 1
    53f8:	90 e0       	ldi	r25, 0x00	; 0
    53fa:	0d 8c       	ldd	r0, Y+29	; 0x1d
    53fc:	02 c0       	rjmp	.+4      	;  0x5402
    53fe:	88 0f       	add	r24, r24
    5400:	99 1f       	adc	r25, r25
    5402:	0a 94       	dec	r0
    5404:	e2 f7       	brpl	.-8      	;  0x53fe
    5406:	28 2b       	or	r18, r24
    5408:	20 83       	st	Z, r18
    540a:	81 e0       	ldi	r24, 0x01	; 1
    540c:	90 e0       	ldi	r25, 0x00	; 0
    540e:	df 91       	pop	r29
    5410:	cf 91       	pop	r28
    5412:	08 95       	ret
    5414:	10 92 2c 07 	sts	0x072C, r1
    5418:	10 92 2b 07 	sts	0x072B, r1
    541c:	88 ee       	ldi	r24, 0xE8	; 232
    541e:	93 e0       	ldi	r25, 0x03	; 3
    5420:	a0 e0       	ldi	r26, 0x00	; 0
    5422:	b0 e0       	ldi	r27, 0x00	; 0
    5424:	80 93 2d 07 	sts	0x072D, r24
    5428:	90 93 2e 07 	sts	0x072E, r25
    542c:	a0 93 2f 07 	sts	0x072F, r26
    5430:	b0 93 30 07 	sts	0x0730, r27
    5434:	8c ec       	ldi	r24, 0xCC	; 204
    5436:	91 e0       	ldi	r25, 0x01	; 1
    5438:	90 93 2a 07 	sts	0x072A, r25
    543c:	80 93 29 07 	sts	0x0729, r24
    5440:	81 ea       	ldi	r24, 0xA1	; 161
    5442:	96 e0       	ldi	r25, 0x06	; 6
    5444:	90 93 36 07 	sts	0x0736, r25
    5448:	80 93 35 07 	sts	0x0735, r24
    544c:	85 ee       	ldi	r24, 0xE5	; 229
    544e:	96 e0       	ldi	r25, 0x06	; 6
    5450:	90 93 38 07 	sts	0x0738, r25
    5454:	80 93 37 07 	sts	0x0737, r24
    5458:	85 ec       	ldi	r24, 0xC5	; 197
    545a:	90 e0       	ldi	r25, 0x00	; 0
    545c:	90 93 3a 07 	sts	0x073A, r25
    5460:	80 93 39 07 	sts	0x0739, r24
    5464:	84 ec       	ldi	r24, 0xC4	; 196
    5466:	90 e0       	ldi	r25, 0x00	; 0
    5468:	90 93 3c 07 	sts	0x073C, r25
    546c:	80 93 3b 07 	sts	0x073B, r24
    5470:	80 ec       	ldi	r24, 0xC0	; 192
    5472:	90 e0       	ldi	r25, 0x00	; 0
    5474:	90 93 3e 07 	sts	0x073E, r25
    5478:	80 93 3d 07 	sts	0x073D, r24
    547c:	81 ec       	ldi	r24, 0xC1	; 193
    547e:	90 e0       	ldi	r25, 0x00	; 0
    5480:	90 93 40 07 	sts	0x0740, r25
    5484:	80 93 3f 07 	sts	0x073F, r24
    5488:	86 ec       	ldi	r24, 0xC6	; 198
    548a:	90 e0       	ldi	r25, 0x00	; 0
    548c:	90 93 42 07 	sts	0x0742, r25
    5490:	80 93 41 07 	sts	0x0741, r24
    5494:	84 e0       	ldi	r24, 0x04	; 4
    5496:	80 93 43 07 	sts	0x0743, r24
    549a:	83 e0       	ldi	r24, 0x03	; 3
    549c:	80 93 44 07 	sts	0x0744, r24
    54a0:	87 e0       	ldi	r24, 0x07	; 7
    54a2:	80 93 45 07 	sts	0x0745, r24
    54a6:	85 e0       	ldi	r24, 0x05	; 5
    54a8:	80 93 46 07 	sts	0x0746, r24
    54ac:	81 e0       	ldi	r24, 0x01	; 1
    54ae:	80 93 47 07 	sts	0x0747, r24
    54b2:	08 95       	ret
    54b4:	cf 92       	push	r12
    54b6:	df 92       	push	r13
    54b8:	ef 92       	push	r14
    54ba:	ff 92       	push	r15
    54bc:	0f 93       	push	r16
    54be:	1f 93       	push	r17
    54c0:	cf 93       	push	r28
    54c2:	df 93       	push	r29
    54c4:	7c 01       	movw	r14, r24
    54c6:	6b 01       	movw	r12, r22
    54c8:	8a 01       	movw	r16, r20
    54ca:	c0 e0       	ldi	r28, 0x00	; 0
    54cc:	d0 e0       	ldi	r29, 0x00	; 0
    54ce:	0f c0       	rjmp	.+30     	;  0x54ee
    54d0:	d6 01       	movw	r26, r12
    54d2:	6d 91       	ld	r22, X+
    54d4:	6d 01       	movw	r12, r26
    54d6:	d7 01       	movw	r26, r14
    54d8:	ed 91       	ld	r30, X+
    54da:	fc 91       	ld	r31, X
    54dc:	01 90       	ld	r0, Z+
    54de:	f0 81       	ld	r31, Z
    54e0:	e0 2d       	mov	r30, r0
    54e2:	c7 01       	movw	r24, r14
    54e4:	09 95       	icall
    54e6:	c8 0f       	add	r28, r24
    54e8:	d9 1f       	adc	r29, r25
    54ea:	01 50       	subi	r16, 0x01	; 1
    54ec:	10 40       	sbci	r17, 0x00	; 0
    54ee:	01 15       	cp	r16, r1
    54f0:	11 05       	cpc	r17, r1
    54f2:	71 f7       	brne	.-36     	;  0x54d0
    54f4:	ce 01       	movw	r24, r28
    54f6:	df 91       	pop	r29
    54f8:	cf 91       	pop	r28
    54fa:	1f 91       	pop	r17
    54fc:	0f 91       	pop	r16
    54fe:	ff 90       	pop	r15
    5500:	ef 90       	pop	r14
    5502:	df 90       	pop	r13
    5504:	cf 90       	pop	r12
    5506:	08 95       	ret
    5508:	dc 01       	movw	r26, r24
    550a:	ed 91       	ld	r30, X+
    550c:	fc 91       	ld	r31, X
    550e:	01 90       	ld	r0, Z+
    5510:	f0 81       	ld	r31, Z
    5512:	e0 2d       	mov	r30, r0
    5514:	09 95       	icall
    5516:	08 95       	ret
    5518:	ef 92       	push	r14
    551a:	ff 92       	push	r15
    551c:	0f 93       	push	r16
    551e:	1f 93       	push	r17
    5520:	8c 01       	movw	r16, r24
    5522:	dc 01       	movw	r26, r24
    5524:	ed 91       	ld	r30, X+
    5526:	fc 91       	ld	r31, X
    5528:	01 90       	ld	r0, Z+
    552a:	f0 81       	ld	r31, Z
    552c:	e0 2d       	mov	r30, r0
    552e:	6d e0       	ldi	r22, 0x0D	; 13
    5530:	09 95       	icall
    5532:	7c 01       	movw	r14, r24
    5534:	d8 01       	movw	r26, r16
    5536:	ed 91       	ld	r30, X+
    5538:	fc 91       	ld	r31, X
    553a:	01 90       	ld	r0, Z+
    553c:	f0 81       	ld	r31, Z
    553e:	e0 2d       	mov	r30, r0
    5540:	c8 01       	movw	r24, r16
    5542:	6a e0       	ldi	r22, 0x0A	; 10
    5544:	09 95       	icall
    5546:	9c 01       	movw	r18, r24
    5548:	2e 0d       	add	r18, r14
    554a:	3f 1d       	adc	r19, r15
    554c:	c9 01       	movw	r24, r18
    554e:	1f 91       	pop	r17
    5550:	0f 91       	pop	r16
    5552:	ff 90       	pop	r15
    5554:	ef 90       	pop	r14
    5556:	08 95       	ret
    5558:	cf 93       	push	r28
    555a:	df 93       	push	r29
    555c:	db 01       	movw	r26, r22
    555e:	0d 90       	ld	r0, X+
    5560:	00 20       	and	r0, r0
    5562:	e9 f7       	brne	.-6      	;  0x555e
    5564:	11 97       	sbiw	r26, 0x01	; 1
    5566:	a6 1b       	sub	r26, r22
    5568:	b7 0b       	sbc	r27, r23
    556a:	ec 01       	movw	r28, r24
    556c:	e8 81       	ld	r30, Y
    556e:	f9 81       	ldd	r31, Y+1	; 0x01
    5570:	02 80       	ldd	r0, Z+2	; 0x02
    5572:	f3 81       	ldd	r31, Z+3	; 0x03
    5574:	e0 2d       	mov	r30, r0
    5576:	ad 01       	movw	r20, r26
    5578:	09 95       	icall
    557a:	df 91       	pop	r29
    557c:	cf 91       	pop	r28
    557e:	08 95       	ret
    5580:	4f 92       	push	r4
    5582:	5f 92       	push	r5
    5584:	7f 92       	push	r7
    5586:	8f 92       	push	r8
    5588:	9f 92       	push	r9
    558a:	af 92       	push	r10
    558c:	bf 92       	push	r11
    558e:	cf 92       	push	r12
    5590:	df 92       	push	r13
    5592:	ef 92       	push	r14
    5594:	ff 92       	push	r15
    5596:	0f 93       	push	r16
    5598:	1f 93       	push	r17
    559a:	df 93       	push	r29
    559c:	cf 93       	push	r28
    559e:	cd b7       	in	r28, 0x3d	; 61
    55a0:	de b7       	in	r29, 0x3e	; 62
    55a2:	a1 97       	sbiw	r28, 0x21	; 33
    55a4:	0f b6       	in	r0, 0x3f	; 63
    55a6:	f8 94       	cli
    55a8:	de bf       	out	0x3e, r29	; 62
    55aa:	0f be       	out	0x3f, r0	; 63
    55ac:	cd bf       	out	0x3d, r28	; 61
    55ae:	2c 01       	movw	r4, r24
    55b0:	74 2e       	mov	r7, r20
    55b2:	cb 01       	movw	r24, r22
    55b4:	22 30       	cpi	r18, 0x02	; 2
    55b6:	08 f4       	brcc	.+2      	;  0x55ba
    55b8:	2a e0       	ldi	r18, 0x0A	; 10
    55ba:	19 a2       	std	Y+33, r1	; 0x21
    55bc:	31 e2       	ldi	r19, 0x21	; 33
    55be:	c3 2e       	mov	r12, r19
    55c0:	d1 2c       	mov	r13, r1
    55c2:	cc 0e       	add	r12, r28
    55c4:	dd 1e       	adc	r13, r29
    55c6:	82 2e       	mov	r8, r18
    55c8:	99 24       	eor	r9, r9
    55ca:	aa 24       	eor	r10, r10
    55cc:	bb 24       	eor	r11, r11
    55ce:	67 2d       	mov	r22, r7
    55d0:	75 2f       	mov	r23, r21
    55d2:	a5 01       	movw	r20, r10
    55d4:	94 01       	movw	r18, r8
    55d6:	0e 94 d5 2e 	call	0x5daa	;  0x5daa
    55da:	79 01       	movw	r14, r18
    55dc:	8a 01       	movw	r16, r20
    55de:	c8 01       	movw	r24, r16
    55e0:	b7 01       	movw	r22, r14
    55e2:	a5 01       	movw	r20, r10
    55e4:	94 01       	movw	r18, r8
    55e6:	0e 94 a3 2e 	call	0x5d46	;  0x5d46
    55ea:	47 2d       	mov	r20, r7
    55ec:	46 1b       	sub	r20, r22
    55ee:	08 94       	sec
    55f0:	c1 08       	sbc	r12, r1
    55f2:	d1 08       	sbc	r13, r1
    55f4:	4a 30       	cpi	r20, 0x0A	; 10
    55f6:	14 f4       	brge	.+4      	;  0x55fc
    55f8:	40 5d       	subi	r20, 0xD0	; 208
    55fa:	01 c0       	rjmp	.+2      	;  0x55fe
    55fc:	49 5c       	subi	r20, 0xC9	; 201
    55fe:	f6 01       	movw	r30, r12
    5600:	40 83       	st	Z, r20
    5602:	e1 14       	cp	r14, r1
    5604:	f1 04       	cpc	r15, r1
    5606:	01 05       	cpc	r16, r1
    5608:	11 05       	cpc	r17, r1
    560a:	21 f0       	breq	.+8      	;  0x5614
    560c:	7e 2c       	mov	r7, r14
    560e:	5f 2d       	mov	r21, r15
    5610:	c8 01       	movw	r24, r16
    5612:	dd cf       	rjmp	.-70     	;  0x55ce
    5614:	c2 01       	movw	r24, r4
    5616:	b6 01       	movw	r22, r12
    5618:	0e 94 ac 2a 	call	0x5558	;  0x5558
    561c:	a1 96       	adiw	r28, 0x21	; 33
    561e:	0f b6       	in	r0, 0x3f	; 63
    5620:	f8 94       	cli
    5622:	de bf       	out	0x3e, r29	; 62
    5624:	0f be       	out	0x3f, r0	; 63
    5626:	cd bf       	out	0x3d, r28	; 61
    5628:	cf 91       	pop	r28
    562a:	df 91       	pop	r29
    562c:	1f 91       	pop	r17
    562e:	0f 91       	pop	r16
    5630:	ff 90       	pop	r15
    5632:	ef 90       	pop	r14
    5634:	df 90       	pop	r13
    5636:	cf 90       	pop	r12
    5638:	bf 90       	pop	r11
    563a:	af 90       	pop	r10
    563c:	9f 90       	pop	r9
    563e:	8f 90       	pop	r8
    5640:	7f 90       	pop	r7
    5642:	5f 90       	pop	r5
    5644:	4f 90       	pop	r4
    5646:	08 95       	ret
    5648:	cf 92       	push	r12
    564a:	df 92       	push	r13
    564c:	ef 92       	push	r14
    564e:	ff 92       	push	r15
    5650:	0f 93       	push	r16
    5652:	1f 93       	push	r17
    5654:	cf 93       	push	r28
    5656:	df 93       	push	r29
    5658:	ec 01       	movw	r28, r24
    565a:	6a 01       	movw	r12, r20
    565c:	7b 01       	movw	r14, r22
    565e:	21 15       	cp	r18, r1
    5660:	31 05       	cpc	r19, r1
    5662:	41 f4       	brne	.+16     	;  0x5674
    5664:	e8 81       	ld	r30, Y
    5666:	f9 81       	ldd	r31, Y+1	; 0x01
    5668:	01 90       	ld	r0, Z+
    566a:	f0 81       	ld	r31, Z
    566c:	e0 2d       	mov	r30, r0
    566e:	64 2f       	mov	r22, r20
    5670:	09 95       	icall
    5672:	1f c0       	rjmp	.+62     	;  0x56b2
    5674:	2a 30       	cpi	r18, 0x0A	; 10
    5676:	31 05       	cpc	r19, r1
    5678:	d1 f4       	brne	.+52     	;  0x56ae
    567a:	77 ff       	sbrs	r23, 7
    567c:	17 c0       	rjmp	.+46     	;  0x56ac
    567e:	e8 81       	ld	r30, Y
    5680:	f9 81       	ldd	r31, Y+1	; 0x01
    5682:	01 90       	ld	r0, Z+
    5684:	f0 81       	ld	r31, Z
    5686:	e0 2d       	mov	r30, r0
    5688:	6d e2       	ldi	r22, 0x2D	; 45
    568a:	09 95       	icall
    568c:	8c 01       	movw	r16, r24
    568e:	44 27       	eor	r20, r20
    5690:	55 27       	eor	r21, r21
    5692:	ba 01       	movw	r22, r20
    5694:	4c 19       	sub	r20, r12
    5696:	5d 09       	sbc	r21, r13
    5698:	6e 09       	sbc	r22, r14
    569a:	7f 09       	sbc	r23, r15
    569c:	ce 01       	movw	r24, r28
    569e:	2a e0       	ldi	r18, 0x0A	; 10
    56a0:	0e 94 c0 2a 	call	0x5580	;  0x5580
    56a4:	98 01       	movw	r18, r16
    56a6:	28 0f       	add	r18, r24
    56a8:	39 1f       	adc	r19, r25
    56aa:	04 c0       	rjmp	.+8      	;  0x56b4
    56ac:	2a e0       	ldi	r18, 0x0A	; 10
    56ae:	0e 94 c0 2a 	call	0x5580	;  0x5580
    56b2:	9c 01       	movw	r18, r24
    56b4:	c9 01       	movw	r24, r18
    56b6:	df 91       	pop	r29
    56b8:	cf 91       	pop	r28
    56ba:	1f 91       	pop	r17
    56bc:	0f 91       	pop	r16
    56be:	ff 90       	pop	r15
    56c0:	ef 90       	pop	r14
    56c2:	df 90       	pop	r13
    56c4:	cf 90       	pop	r12
    56c6:	08 95       	ret
    56c8:	ef 92       	push	r14
    56ca:	ff 92       	push	r15
    56cc:	0f 93       	push	r16
    56ce:	1f 93       	push	r17
    56d0:	7b 01       	movw	r14, r22
    56d2:	9a 01       	movw	r18, r20
    56d4:	00 27       	eor	r16, r16
    56d6:	f7 fc       	sbrc	r15, 7
    56d8:	00 95       	com	r16
    56da:	10 2f       	mov	r17, r16
    56dc:	b8 01       	movw	r22, r16
    56de:	a7 01       	movw	r20, r14
    56e0:	0e 94 24 2b 	call	0x5648	;  0x5648
    56e4:	1f 91       	pop	r17
    56e6:	0f 91       	pop	r16
    56e8:	ff 90       	pop	r15
    56ea:	ef 90       	pop	r14
    56ec:	08 95       	ret
    56ee:	0e 94 ac 2a 	call	0x5558	;  0x5558
    56f2:	08 95       	ret
    56f4:	ef 92       	push	r14
    56f6:	ff 92       	push	r15
    56f8:	0f 93       	push	r16
    56fa:	1f 93       	push	r17
    56fc:	7c 01       	movw	r14, r24
    56fe:	0e 94 ac 2a 	call	0x5558	;  0x5558
    5702:	8c 01       	movw	r16, r24
    5704:	c7 01       	movw	r24, r14
    5706:	0e 94 8c 2a 	call	0x5518	;  0x5518
    570a:	08 0f       	add	r16, r24
    570c:	19 1f       	adc	r17, r25
    570e:	c8 01       	movw	r24, r16
    5710:	1f 91       	pop	r17
    5712:	0f 91       	pop	r16
    5714:	ff 90       	pop	r15
    5716:	ef 90       	pop	r14
    5718:	08 95       	ret
    571a:	af 92       	push	r10
    571c:	bf 92       	push	r11
    571e:	cf 92       	push	r12
    5720:	df 92       	push	r13
    5722:	ef 92       	push	r14
    5724:	ff 92       	push	r15
    5726:	0f 93       	push	r16
    5728:	1f 93       	push	r17
    572a:	cf 93       	push	r28
    572c:	df 93       	push	r29
    572e:	5c 01       	movw	r10, r24
    5730:	6b 01       	movw	r12, r22
    5732:	ee 24       	eor	r14, r14
    5734:	ff 24       	eor	r15, r15
    5736:	c0 e0       	ldi	r28, 0x00	; 0
    5738:	d0 e0       	ldi	r29, 0x00	; 0
    573a:	10 c0       	rjmp	.+32     	;  0x575c
    573c:	d5 01       	movw	r26, r10
    573e:	ed 91       	ld	r30, X+
    5740:	fc 91       	ld	r31, X
    5742:	00 81       	ld	r16, Z
    5744:	11 81       	ldd	r17, Z+1	; 0x01
    5746:	c6 01       	movw	r24, r12
    5748:	be 01       	movw	r22, r28
    574a:	0e 94 e5 2b 	call	0x57ca	;  0x57ca
    574e:	68 2f       	mov	r22, r24
    5750:	c5 01       	movw	r24, r10
    5752:	f8 01       	movw	r30, r16
    5754:	09 95       	icall
    5756:	e8 0e       	add	r14, r24
    5758:	f9 1e       	adc	r15, r25
    575a:	21 96       	adiw	r28, 0x01	; 1
    575c:	f6 01       	movw	r30, r12
    575e:	84 81       	ldd	r24, Z+4	; 0x04
    5760:	95 81       	ldd	r25, Z+5	; 0x05
    5762:	c8 17       	cp	r28, r24
    5764:	d9 07       	cpc	r29, r25
    5766:	50 f3       	brcs	.-44     	;  0x573c
    5768:	c7 01       	movw	r24, r14
    576a:	df 91       	pop	r29
    576c:	cf 91       	pop	r28
    576e:	1f 91       	pop	r17
    5770:	0f 91       	pop	r16
    5772:	ff 90       	pop	r15
    5774:	ef 90       	pop	r14
    5776:	df 90       	pop	r13
    5778:	cf 90       	pop	r12
    577a:	bf 90       	pop	r11
    577c:	af 90       	pop	r10
    577e:	08 95       	ret
    5780:	ef 92       	push	r14
    5782:	ff 92       	push	r15
    5784:	0f 93       	push	r16
    5786:	1f 93       	push	r17
    5788:	7c 01       	movw	r14, r24
    578a:	0e 94 8d 2b 	call	0x571a	;  0x571a
    578e:	8c 01       	movw	r16, r24
    5790:	c7 01       	movw	r24, r14
    5792:	0e 94 8c 2a 	call	0x5518	;  0x5518
    5796:	9c 01       	movw	r18, r24
    5798:	20 0f       	add	r18, r16
    579a:	31 1f       	adc	r19, r17
    579c:	c9 01       	movw	r24, r18
    579e:	1f 91       	pop	r17
    57a0:	0f 91       	pop	r16
    57a2:	ff 90       	pop	r15
    57a4:	ef 90       	pop	r14
    57a6:	08 95       	ret
    57a8:	fc 01       	movw	r30, r24
    57aa:	84 81       	ldd	r24, Z+4	; 0x04
    57ac:	95 81       	ldd	r25, Z+5	; 0x05
    57ae:	68 17       	cp	r22, r24
    57b0:	79 07       	cpc	r23, r25
    57b2:	48 f4       	brcc	.+18     	;  0x57c6
    57b4:	01 90       	ld	r0, Z+
    57b6:	f0 81       	ld	r31, Z
    57b8:	e0 2d       	mov	r30, r0
    57ba:	30 97       	sbiw	r30, 0x00	; 0
    57bc:	21 f0       	breq	.+8      	;  0x57c6
    57be:	e6 0f       	add	r30, r22
    57c0:	f7 1f       	adc	r31, r23
    57c2:	80 81       	ld	r24, Z
    57c4:	08 95       	ret
    57c6:	80 e0       	ldi	r24, 0x00	; 0
    57c8:	08 95       	ret
    57ca:	fc 01       	movw	r30, r24
    57cc:	84 81       	ldd	r24, Z+4	; 0x04
    57ce:	95 81       	ldd	r25, Z+5	; 0x05
    57d0:	68 17       	cp	r22, r24
    57d2:	79 07       	cpc	r23, r25
    57d4:	48 f4       	brcc	.+18     	;  0x57e8
    57d6:	01 90       	ld	r0, Z+
    57d8:	f0 81       	ld	r31, Z
    57da:	e0 2d       	mov	r30, r0
    57dc:	30 97       	sbiw	r30, 0x00	; 0
    57de:	21 f0       	breq	.+8      	;  0x57e8
    57e0:	e6 0f       	add	r30, r22
    57e2:	f7 1f       	adc	r31, r23
    57e4:	80 81       	ld	r24, Z
    57e6:	08 95       	ret
    57e8:	80 e0       	ldi	r24, 0x00	; 0
    57ea:	08 95       	ret
    57ec:	fc 01       	movw	r30, r24
    57ee:	80 81       	ld	r24, Z
    57f0:	91 81       	ldd	r25, Z+1	; 0x01
    57f2:	00 97       	sbiw	r24, 0x00	; 0
    57f4:	29 f4       	brne	.+10     	;  0x5800
    57f6:	20 e0       	ldi	r18, 0x00	; 0
    57f8:	30 e0       	ldi	r19, 0x00	; 0
    57fa:	40 e0       	ldi	r20, 0x00	; 0
    57fc:	50 e0       	ldi	r21, 0x00	; 0
    57fe:	04 c0       	rjmp	.+8      	;  0x5808
    5800:	0e 94 e4 30 	call	0x61c8	;  0x61c8
    5804:	9b 01       	movw	r18, r22
    5806:	ac 01       	movw	r20, r24
    5808:	b9 01       	movw	r22, r18
    580a:	ca 01       	movw	r24, r20
    580c:	08 95       	ret
    580e:	0f 93       	push	r16
    5810:	1f 93       	push	r17
    5812:	cf 93       	push	r28
    5814:	df 93       	push	r29
    5816:	ec 01       	movw	r28, r24
    5818:	8b 01       	movw	r16, r22
    581a:	6f 5f       	subi	r22, 0xFF	; 255
    581c:	7f 4f       	sbci	r23, 0xFF	; 255
    581e:	88 81       	ld	r24, Y
    5820:	99 81       	ldd	r25, Y+1	; 0x01
    5822:	0e 94 16 30 	call	0x602c	;  0x602c
    5826:	00 97       	sbiw	r24, 0x00	; 0
    5828:	11 f4       	brne	.+4      	;  0x582e
    582a:	80 e0       	ldi	r24, 0x00	; 0
    582c:	05 c0       	rjmp	.+10     	;  0x5838
    582e:	99 83       	std	Y+1, r25	; 0x01
    5830:	88 83       	st	Y, r24
    5832:	1b 83       	std	Y+3, r17	; 0x03
    5834:	0a 83       	std	Y+2, r16	; 0x02
    5836:	81 e0       	ldi	r24, 0x01	; 1
    5838:	df 91       	pop	r29
    583a:	cf 91       	pop	r28
    583c:	1f 91       	pop	r17
    583e:	0f 91       	pop	r16
    5840:	08 95       	ret
    5842:	cf 93       	push	r28
    5844:	df 93       	push	r29
    5846:	ec 01       	movw	r28, r24
    5848:	88 81       	ld	r24, Y
    584a:	99 81       	ldd	r25, Y+1	; 0x01
    584c:	89 2b       	or	r24, r25
    584e:	29 f0       	breq	.+10     	;  0x585a
    5850:	8a 81       	ldd	r24, Y+2	; 0x02
    5852:	9b 81       	ldd	r25, Y+3	; 0x03
    5854:	86 17       	cp	r24, r22
    5856:	97 07       	cpc	r25, r23
    5858:	60 f4       	brcc	.+24     	;  0x5872
    585a:	ce 01       	movw	r24, r28
    585c:	0e 94 07 2c 	call	0x580e	;  0x580e
    5860:	88 23       	and	r24, r24
    5862:	41 f0       	breq	.+16     	;  0x5874
    5864:	8c 81       	ldd	r24, Y+4	; 0x04
    5866:	9d 81       	ldd	r25, Y+5	; 0x05
    5868:	89 2b       	or	r24, r25
    586a:	19 f4       	brne	.+6      	;  0x5872
    586c:	e8 81       	ld	r30, Y
    586e:	f9 81       	ldd	r31, Y+1	; 0x01
    5870:	10 82       	st	Z, r1
    5872:	81 e0       	ldi	r24, 0x01	; 1
    5874:	df 91       	pop	r29
    5876:	cf 91       	pop	r28
    5878:	08 95       	ret
    587a:	cf 93       	push	r28
    587c:	df 93       	push	r29
    587e:	ec 01       	movw	r28, r24
    5880:	88 81       	ld	r24, Y
    5882:	99 81       	ldd	r25, Y+1	; 0x01
    5884:	00 97       	sbiw	r24, 0x00	; 0
    5886:	11 f0       	breq	.+4      	;  0x588c
    5888:	0e 94 be 2f 	call	0x5f7c	;  0x5f7c
    588c:	19 82       	std	Y+1, r1	; 0x01
    588e:	18 82       	st	Y, r1
    5890:	1d 82       	std	Y+5, r1	; 0x05
    5892:	1c 82       	std	Y+4, r1	; 0x04
    5894:	1b 82       	std	Y+3, r1	; 0x03
    5896:	1a 82       	std	Y+2, r1	; 0x02
    5898:	df 91       	pop	r29
    589a:	cf 91       	pop	r28
    589c:	08 95       	ret
    589e:	ef 92       	push	r14
    58a0:	ff 92       	push	r15
    58a2:	0f 93       	push	r16
    58a4:	1f 93       	push	r17
    58a6:	cf 93       	push	r28
    58a8:	df 93       	push	r29
    58aa:	ec 01       	movw	r28, r24
    58ac:	7b 01       	movw	r14, r22
    58ae:	8a 01       	movw	r16, r20
    58b0:	ba 01       	movw	r22, r20
    58b2:	0e 94 21 2c 	call	0x5842	;  0x5842
    58b6:	88 23       	and	r24, r24
    58b8:	21 f4       	brne	.+8      	;  0x58c2
    58ba:	ce 01       	movw	r24, r28
    58bc:	0e 94 3d 2c 	call	0x587a	;  0x587a
    58c0:	07 c0       	rjmp	.+14     	;  0x58d0
    58c2:	1d 83       	std	Y+5, r17	; 0x05
    58c4:	0c 83       	std	Y+4, r16	; 0x04
    58c6:	88 81       	ld	r24, Y
    58c8:	99 81       	ldd	r25, Y+1	; 0x01
    58ca:	b7 01       	movw	r22, r14
    58cc:	0e 94 21 31 	call	0x6242	;  0x6242
    58d0:	ce 01       	movw	r24, r28
    58d2:	df 91       	pop	r29
    58d4:	cf 91       	pop	r28
    58d6:	1f 91       	pop	r17
    58d8:	0f 91       	pop	r16
    58da:	ff 90       	pop	r15
    58dc:	ef 90       	pop	r14
    58de:	08 95       	ret
    58e0:	cf 93       	push	r28
    58e2:	df 93       	push	r29
    58e4:	ec 01       	movw	r28, r24
    58e6:	19 82       	std	Y+1, r1	; 0x01
    58e8:	18 82       	st	Y, r1
    58ea:	1b 82       	std	Y+3, r1	; 0x03
    58ec:	1a 82       	std	Y+2, r1	; 0x02
    58ee:	1d 82       	std	Y+5, r1	; 0x05
    58f0:	1c 82       	std	Y+4, r1	; 0x04
    58f2:	1e 82       	std	Y+6, r1	; 0x06
    58f4:	61 15       	cp	r22, r1
    58f6:	71 05       	cpc	r23, r1
    58f8:	51 f0       	breq	.+20     	;  0x590e
    58fa:	db 01       	movw	r26, r22
    58fc:	0d 90       	ld	r0, X+
    58fe:	00 20       	and	r0, r0
    5900:	e9 f7       	brne	.-6      	;  0x58fc
    5902:	11 97       	sbiw	r26, 0x01	; 1
    5904:	a6 1b       	sub	r26, r22
    5906:	b7 0b       	sbc	r27, r23
    5908:	ad 01       	movw	r20, r26
    590a:	0e 94 4f 2c 	call	0x589e	;  0x589e
    590e:	df 91       	pop	r29
    5910:	cf 91       	pop	r28
    5912:	08 95       	ret
    5914:	0f 93       	push	r16
    5916:	1f 93       	push	r17
    5918:	18 2f       	mov	r17, r24
    591a:	09 2f       	mov	r16, r25
    591c:	61 15       	cp	r22, r1
    591e:	71 05       	cpc	r23, r1
    5920:	59 f0       	breq	.+22     	;  0x5938
    5922:	db 01       	movw	r26, r22
    5924:	0d 90       	ld	r0, X+
    5926:	00 20       	and	r0, r0
    5928:	e9 f7       	brne	.-6      	;  0x5924
    592a:	11 97       	sbiw	r26, 0x01	; 1
    592c:	a6 1b       	sub	r26, r22
    592e:	b7 0b       	sbc	r27, r23
    5930:	ad 01       	movw	r20, r26
    5932:	0e 94 4f 2c 	call	0x589e	;  0x589e
    5936:	02 c0       	rjmp	.+4      	;  0x593c
    5938:	0e 94 3d 2c 	call	0x587a	;  0x587a
    593c:	81 2f       	mov	r24, r17
    593e:	90 2f       	mov	r25, r16
    5940:	1f 91       	pop	r17
    5942:	0f 91       	pop	r16
    5944:	08 95       	ret
    5946:	fc 01       	movw	r30, r24
    5948:	80 81       	ld	r24, Z
    594a:	91 81       	ldd	r25, Z+1	; 0x01
    594c:	0e 94 be 2f 	call	0x5f7c	;  0x5f7c
    5950:	08 95       	ret
    5952:	cf 93       	push	r28
    5954:	df 93       	push	r29
    5956:	0e 94 5d 2d 	call	0x5aba	;  0x5aba
    595a:	0e 94 30 13 	call	0x2660	;  0x2660
    595e:	c0 e8       	ldi	r28, 0x80	; 128
    5960:	d8 e2       	ldi	r29, 0x28	; 40
    5962:	0e 94 e4 12 	call	0x25c8	;  0x25c8
    5966:	20 97       	sbiw	r28, 0x00	; 0
    5968:	e1 f3       	breq	.-8      	;  0x5962
    596a:	0e 94 80 28 	call	0x5100	;  0x5100
    596e:	f9 cf       	rjmp	.-14     	;  0x5962
    5970:	0e 94 11 2f 	call	0x5e22	;  0x5e22
    5974:	08 95       	ret
    5976:	1f 92       	push	r1
    5978:	0f 92       	push	r0
    597a:	0f b6       	in	r0, 0x3f	; 63
    597c:	0f 92       	push	r0
    597e:	11 24       	eor	r1, r1
    5980:	2f 93       	push	r18
    5982:	3f 93       	push	r19
    5984:	8f 93       	push	r24
    5986:	9f 93       	push	r25
    5988:	af 93       	push	r26
    598a:	bf 93       	push	r27
    598c:	80 91 4c 07 	lds	r24, 0x074C
    5990:	90 91 4d 07 	lds	r25, 0x074D
    5994:	a0 91 4e 07 	lds	r26, 0x074E
    5998:	b0 91 4f 07 	lds	r27, 0x074F
    599c:	30 91 50 07 	lds	r19, 0x0750
    59a0:	01 96       	adiw	r24, 0x01	; 1
    59a2:	a1 1d       	adc	r26, r1
    59a4:	b1 1d       	adc	r27, r1
    59a6:	23 2f       	mov	r18, r19
    59a8:	2d 5f       	subi	r18, 0xFD	; 253
    59aa:	2d 37       	cpi	r18, 0x7D	; 125
    59ac:	20 f0       	brcs	.+8      	;  0x59b6
    59ae:	2d 57       	subi	r18, 0x7D	; 125
    59b0:	01 96       	adiw	r24, 0x01	; 1
    59b2:	a1 1d       	adc	r26, r1
    59b4:	b1 1d       	adc	r27, r1
    59b6:	20 93 50 07 	sts	0x0750, r18
    59ba:	80 93 4c 07 	sts	0x074C, r24
    59be:	90 93 4d 07 	sts	0x074D, r25
    59c2:	a0 93 4e 07 	sts	0x074E, r26
    59c6:	b0 93 4f 07 	sts	0x074F, r27
    59ca:	80 91 48 07 	lds	r24, 0x0748
    59ce:	90 91 49 07 	lds	r25, 0x0749
    59d2:	a0 91 4a 07 	lds	r26, 0x074A
    59d6:	b0 91 4b 07 	lds	r27, 0x074B
    59da:	01 96       	adiw	r24, 0x01	; 1
    59dc:	a1 1d       	adc	r26, r1
    59de:	b1 1d       	adc	r27, r1
    59e0:	80 93 48 07 	sts	0x0748, r24
    59e4:	90 93 49 07 	sts	0x0749, r25
    59e8:	a0 93 4a 07 	sts	0x074A, r26
    59ec:	b0 93 4b 07 	sts	0x074B, r27
    59f0:	bf 91       	pop	r27
    59f2:	af 91       	pop	r26
    59f4:	9f 91       	pop	r25
    59f6:	8f 91       	pop	r24
    59f8:	3f 91       	pop	r19
    59fa:	2f 91       	pop	r18
    59fc:	0f 90       	pop	r0
    59fe:	0f be       	out	0x3f, r0	; 63
    5a00:	0f 90       	pop	r0
    5a02:	1f 90       	pop	r1
    5a04:	18 95       	reti
    5a06:	8f b7       	in	r24, 0x3f	; 63
    5a08:	f8 94       	cli
    5a0a:	20 91 4c 07 	lds	r18, 0x074C
    5a0e:	30 91 4d 07 	lds	r19, 0x074D
    5a12:	40 91 4e 07 	lds	r20, 0x074E
    5a16:	50 91 4f 07 	lds	r21, 0x074F
    5a1a:	8f bf       	out	0x3f, r24	; 63
    5a1c:	b9 01       	movw	r22, r18
    5a1e:	ca 01       	movw	r24, r20
    5a20:	08 95       	ret
    5a22:	9f b7       	in	r25, 0x3f	; 63
    5a24:	f8 94       	cli
    5a26:	20 91 48 07 	lds	r18, 0x0748
    5a2a:	30 91 49 07 	lds	r19, 0x0749
    5a2e:	40 91 4a 07 	lds	r20, 0x074A
    5a32:	50 91 4b 07 	lds	r21, 0x074B
    5a36:	86 b5       	in	r24, 0x26	; 38
    5a38:	a8 9b       	sbis	0x15, 0	; 21
    5a3a:	06 c0       	rjmp	.+12     	;  0x5a48
    5a3c:	8f 3f       	cpi	r24, 0xFF	; 255
    5a3e:	21 f0       	breq	.+8      	;  0x5a48
    5a40:	2f 5f       	subi	r18, 0xFF	; 255
    5a42:	3f 4f       	sbci	r19, 0xFF	; 255
    5a44:	4f 4f       	sbci	r20, 0xFF	; 255
    5a46:	5f 4f       	sbci	r21, 0xFF	; 255
    5a48:	9f bf       	out	0x3f, r25	; 63
    5a4a:	54 2f       	mov	r21, r20
    5a4c:	43 2f       	mov	r20, r19
    5a4e:	32 2f       	mov	r19, r18
    5a50:	22 27       	eor	r18, r18
    5a52:	28 0f       	add	r18, r24
    5a54:	31 1d       	adc	r19, r1
    5a56:	41 1d       	adc	r20, r1
    5a58:	51 1d       	adc	r21, r1
    5a5a:	82 e0       	ldi	r24, 0x02	; 2
    5a5c:	22 0f       	add	r18, r18
    5a5e:	33 1f       	adc	r19, r19
    5a60:	44 1f       	adc	r20, r20
    5a62:	55 1f       	adc	r21, r21
    5a64:	8a 95       	dec	r24
    5a66:	d1 f7       	brne	.-12     	;  0x5a5c
    5a68:	b9 01       	movw	r22, r18
    5a6a:	ca 01       	movw	r24, r20
    5a6c:	08 95       	ret
    5a6e:	ef 92       	push	r14
    5a70:	ff 92       	push	r15
    5a72:	0f 93       	push	r16
    5a74:	1f 93       	push	r17
    5a76:	cf 93       	push	r28
    5a78:	df 93       	push	r29
    5a7a:	7b 01       	movw	r14, r22
    5a7c:	8c 01       	movw	r16, r24
    5a7e:	0e 94 11 2d 	call	0x5a22	;  0x5a22
    5a82:	eb 01       	movw	r28, r22
    5a84:	0e c0       	rjmp	.+28     	;  0x5aa2
    5a86:	0e 94 11 2d 	call	0x5a22	;  0x5a22
    5a8a:	6c 1b       	sub	r22, r28
    5a8c:	7d 0b       	sbc	r23, r29
    5a8e:	68 5e       	subi	r22, 0xE8	; 232
    5a90:	73 40       	sbci	r23, 0x03	; 3
    5a92:	c8 f3       	brcs	.-14     	;  0x5a86
    5a94:	08 94       	sec
    5a96:	e1 08       	sbc	r14, r1
    5a98:	f1 08       	sbc	r15, r1
    5a9a:	01 09       	sbc	r16, r1
    5a9c:	11 09       	sbc	r17, r1
    5a9e:	c8 51       	subi	r28, 0x18	; 24
    5aa0:	dc 4f       	sbci	r29, 0xFC	; 252
    5aa2:	e1 14       	cp	r14, r1
    5aa4:	f1 04       	cpc	r15, r1
    5aa6:	01 05       	cpc	r16, r1
    5aa8:	11 05       	cpc	r17, r1
    5aaa:	69 f7       	brne	.-38     	;  0x5a86
    5aac:	df 91       	pop	r29
    5aae:	cf 91       	pop	r28
    5ab0:	1f 91       	pop	r17
    5ab2:	0f 91       	pop	r16
    5ab4:	ff 90       	pop	r15
    5ab6:	ef 90       	pop	r14
    5ab8:	08 95       	ret
    5aba:	78 94       	sei
    5abc:	84 b5       	in	r24, 0x24	; 36
    5abe:	82 60       	ori	r24, 0x02	; 2
    5ac0:	84 bd       	out	0x24, r24	; 36
    5ac2:	84 b5       	in	r24, 0x24	; 36
    5ac4:	81 60       	ori	r24, 0x01	; 1
    5ac6:	84 bd       	out	0x24, r24	; 36
    5ac8:	85 b5       	in	r24, 0x25	; 37
    5aca:	82 60       	ori	r24, 0x02	; 2
    5acc:	85 bd       	out	0x25, r24	; 37
    5ace:	85 b5       	in	r24, 0x25	; 37
    5ad0:	81 60       	ori	r24, 0x01	; 1
    5ad2:	85 bd       	out	0x25, r24	; 37
    5ad4:	ee e6       	ldi	r30, 0x6E	; 110
    5ad6:	f0 e0       	ldi	r31, 0x00	; 0
    5ad8:	80 81       	ld	r24, Z
    5ada:	81 60       	ori	r24, 0x01	; 1
    5adc:	80 83       	st	Z, r24
    5ade:	e1 e8       	ldi	r30, 0x81	; 129
    5ae0:	f0 e0       	ldi	r31, 0x00	; 0
    5ae2:	10 82       	st	Z, r1
    5ae4:	80 81       	ld	r24, Z
    5ae6:	82 60       	ori	r24, 0x02	; 2
    5ae8:	80 83       	st	Z, r24
    5aea:	80 81       	ld	r24, Z
    5aec:	81 60       	ori	r24, 0x01	; 1
    5aee:	80 83       	st	Z, r24
    5af0:	e0 e8       	ldi	r30, 0x80	; 128
    5af2:	f0 e0       	ldi	r31, 0x00	; 0
    5af4:	80 81       	ld	r24, Z
    5af6:	81 60       	ori	r24, 0x01	; 1
    5af8:	80 83       	st	Z, r24
    5afa:	e1 eb       	ldi	r30, 0xB1	; 177
    5afc:	f0 e0       	ldi	r31, 0x00	; 0
    5afe:	80 81       	ld	r24, Z
    5b00:	84 60       	ori	r24, 0x04	; 4
    5b02:	80 83       	st	Z, r24
    5b04:	e0 eb       	ldi	r30, 0xB0	; 176
    5b06:	f0 e0       	ldi	r31, 0x00	; 0
    5b08:	80 81       	ld	r24, Z
    5b0a:	81 60       	ori	r24, 0x01	; 1
    5b0c:	80 83       	st	Z, r24
    5b0e:	ea e7       	ldi	r30, 0x7A	; 122
    5b10:	f0 e0       	ldi	r31, 0x00	; 0
    5b12:	80 81       	ld	r24, Z
    5b14:	84 60       	ori	r24, 0x04	; 4
    5b16:	80 83       	st	Z, r24
    5b18:	80 81       	ld	r24, Z
    5b1a:	82 60       	ori	r24, 0x02	; 2
    5b1c:	80 83       	st	Z, r24
    5b1e:	80 81       	ld	r24, Z
    5b20:	81 60       	ori	r24, 0x01	; 1
    5b22:	80 83       	st	Z, r24
    5b24:	80 81       	ld	r24, Z
    5b26:	80 68       	ori	r24, 0x80	; 128
    5b28:	80 83       	st	Z, r24
    5b2a:	10 92 c1 00 	sts	0x00C1, r1
    5b2e:	08 95       	ret
    5b30:	80 93 93 01 	sts	0x0193, r24
    5b34:	08 95       	ret
    5b36:	98 2f       	mov	r25, r24
    5b38:	8e 30       	cpi	r24, 0x0E	; 14
    5b3a:	08 f0       	brcs	.+2      	;  0x5b3e
    5b3c:	9e 50       	subi	r25, 0x0E	; 14
    5b3e:	97 70       	andi	r25, 0x07	; 7
    5b40:	80 91 93 01 	lds	r24, 0x0193
    5b44:	82 95       	swap	r24
    5b46:	88 0f       	add	r24, r24
    5b48:	88 0f       	add	r24, r24
    5b4a:	80 7c       	andi	r24, 0xC0	; 192
    5b4c:	89 2b       	or	r24, r25
    5b4e:	80 93 7c 00 	sts	0x007C, r24
    5b52:	80 91 7a 00 	lds	r24, 0x007A
    5b56:	80 64       	ori	r24, 0x40	; 64
    5b58:	80 93 7a 00 	sts	0x007A, r24
    5b5c:	80 91 7a 00 	lds	r24, 0x007A
    5b60:	86 fd       	sbrc	r24, 6
    5b62:	fc cf       	rjmp	.-8      	;  0x5b5c
    5b64:	20 91 78 00 	lds	r18, 0x0078
    5b68:	40 91 79 00 	lds	r20, 0x0079
    5b6c:	94 2f       	mov	r25, r20
    5b6e:	80 e0       	ldi	r24, 0x00	; 0
    5b70:	30 e0       	ldi	r19, 0x00	; 0
    5b72:	28 2b       	or	r18, r24
    5b74:	39 2b       	or	r19, r25
    5b76:	c9 01       	movw	r24, r18
    5b78:	08 95       	ret
    5b7a:	1f 93       	push	r17
    5b7c:	cf 93       	push	r28
    5b7e:	df 93       	push	r29
    5b80:	18 2f       	mov	r17, r24
    5b82:	eb 01       	movw	r28, r22
    5b84:	61 e0       	ldi	r22, 0x01	; 1
    5b86:	0e 94 1d 2e 	call	0x5c3a	;  0x5c3a
    5b8a:	20 97       	sbiw	r28, 0x00	; 0
    5b8c:	09 f4       	brne	.+2      	;  0x5b90
    5b8e:	4a c0       	rjmp	.+148    	;  0x5c24
    5b90:	cf 3f       	cpi	r28, 0xFF	; 255
    5b92:	d1 05       	cpc	r29, r1
    5b94:	09 f4       	brne	.+2      	;  0x5b98
    5b96:	49 c0       	rjmp	.+146    	;  0x5c2a
    5b98:	e1 2f       	mov	r30, r17
    5b9a:	f0 e0       	ldi	r31, 0x00	; 0
    5b9c:	e2 5b       	subi	r30, 0xB2	; 178
    5b9e:	fe 4f       	sbci	r31, 0xFE	; 254
    5ba0:	84 91       	lpm	r24, Z+
    5ba2:	83 30       	cpi	r24, 0x03	; 3
    5ba4:	c1 f0       	breq	.+48     	;  0x5bd6
    5ba6:	84 30       	cpi	r24, 0x04	; 4
    5ba8:	28 f4       	brcc	.+10     	;  0x5bb4
    5baa:	81 30       	cpi	r24, 0x01	; 1
    5bac:	51 f0       	breq	.+20     	;  0x5bc2
    5bae:	82 30       	cpi	r24, 0x02	; 2
    5bb0:	b1 f5       	brne	.+108    	;  0x5c1e
    5bb2:	0c c0       	rjmp	.+24     	;  0x5bcc
    5bb4:	86 30       	cpi	r24, 0x06	; 6
    5bb6:	19 f1       	breq	.+70     	;  0x5bfe
    5bb8:	87 30       	cpi	r24, 0x07	; 7
    5bba:	49 f1       	breq	.+82     	;  0x5c0e
    5bbc:	84 30       	cpi	r24, 0x04	; 4
    5bbe:	79 f5       	brne	.+94     	;  0x5c1e
    5bc0:	14 c0       	rjmp	.+40     	;  0x5bea
    5bc2:	84 b5       	in	r24, 0x24	; 36
    5bc4:	80 68       	ori	r24, 0x80	; 128
    5bc6:	84 bd       	out	0x24, r24	; 36
    5bc8:	c7 bd       	out	0x27, r28	; 39
    5bca:	33 c0       	rjmp	.+102    	;  0x5c32
    5bcc:	84 b5       	in	r24, 0x24	; 36
    5bce:	80 62       	ori	r24, 0x20	; 32
    5bd0:	84 bd       	out	0x24, r24	; 36
    5bd2:	c8 bd       	out	0x28, r28	; 40
    5bd4:	2e c0       	rjmp	.+92     	;  0x5c32
    5bd6:	80 91 80 00 	lds	r24, 0x0080
    5bda:	80 68       	ori	r24, 0x80	; 128
    5bdc:	80 93 80 00 	sts	0x0080, r24
    5be0:	d0 93 89 00 	sts	0x0089, r29
    5be4:	c0 93 88 00 	sts	0x0088, r28
    5be8:	24 c0       	rjmp	.+72     	;  0x5c32
    5bea:	80 91 80 00 	lds	r24, 0x0080
    5bee:	80 62       	ori	r24, 0x20	; 32
    5bf0:	80 93 80 00 	sts	0x0080, r24
    5bf4:	d0 93 8b 00 	sts	0x008B, r29
    5bf8:	c0 93 8a 00 	sts	0x008A, r28
    5bfc:	1a c0       	rjmp	.+52     	;  0x5c32
    5bfe:	80 91 b0 00 	lds	r24, 0x00B0
    5c02:	80 68       	ori	r24, 0x80	; 128
    5c04:	80 93 b0 00 	sts	0x00B0, r24
    5c08:	c0 93 b3 00 	sts	0x00B3, r28
    5c0c:	12 c0       	rjmp	.+36     	;  0x5c32
    5c0e:	80 91 b0 00 	lds	r24, 0x00B0
    5c12:	80 62       	ori	r24, 0x20	; 32
    5c14:	80 93 b0 00 	sts	0x00B0, r24
    5c18:	c0 93 b4 00 	sts	0x00B4, r28
    5c1c:	0a c0       	rjmp	.+20     	;  0x5c32
    5c1e:	c0 38       	cpi	r28, 0x80	; 128
    5c20:	d1 05       	cpc	r29, r1
    5c22:	1c f4       	brge	.+6      	;  0x5c2a
    5c24:	81 2f       	mov	r24, r17
    5c26:	60 e0       	ldi	r22, 0x00	; 0
    5c28:	02 c0       	rjmp	.+4      	;  0x5c2e
    5c2a:	81 2f       	mov	r24, r17
    5c2c:	61 e0       	ldi	r22, 0x01	; 1
    5c2e:	0e 94 70 2e 	call	0x5ce0	;  0x5ce0
    5c32:	df 91       	pop	r29
    5c34:	cf 91       	pop	r28
    5c36:	1f 91       	pop	r17
    5c38:	08 95       	ret
    5c3a:	48 2f       	mov	r20, r24
    5c3c:	50 e0       	ldi	r21, 0x00	; 0
    5c3e:	ca 01       	movw	r24, r20
    5c40:	86 5c       	subi	r24, 0xC6	; 198
    5c42:	9e 4f       	sbci	r25, 0xFE	; 254
    5c44:	fc 01       	movw	r30, r24
    5c46:	24 91       	lpm	r18, Z+
    5c48:	4a 5d       	subi	r20, 0xDA	; 218
    5c4a:	5e 4f       	sbci	r21, 0xFE	; 254
    5c4c:	fa 01       	movw	r30, r20
    5c4e:	84 91       	lpm	r24, Z+
    5c50:	88 23       	and	r24, r24
    5c52:	c1 f0       	breq	.+48     	;  0x5c84
    5c54:	e8 2f       	mov	r30, r24
    5c56:	f0 e0       	ldi	r31, 0x00	; 0
    5c58:	ee 0f       	add	r30, r30
    5c5a:	ff 1f       	adc	r31, r31
    5c5c:	e8 5f       	subi	r30, 0xF8	; 248
    5c5e:	fe 4f       	sbci	r31, 0xFE	; 254
    5c60:	a5 91       	lpm	r26, Z+
    5c62:	b4 91       	lpm	r27, Z+
    5c64:	66 23       	and	r22, r22
    5c66:	41 f4       	brne	.+16     	;  0x5c78
    5c68:	9f b7       	in	r25, 0x3f	; 63
    5c6a:	f8 94       	cli
    5c6c:	8c 91       	ld	r24, X
    5c6e:	20 95       	com	r18
    5c70:	82 23       	and	r24, r18
    5c72:	8c 93       	st	X, r24
    5c74:	9f bf       	out	0x3f, r25	; 63
    5c76:	08 95       	ret
    5c78:	9f b7       	in	r25, 0x3f	; 63
    5c7a:	f8 94       	cli
    5c7c:	8c 91       	ld	r24, X
    5c7e:	82 2b       	or	r24, r18
    5c80:	8c 93       	st	X, r24
    5c82:	9f bf       	out	0x3f, r25	; 63
    5c84:	08 95       	ret
    5c86:	83 30       	cpi	r24, 0x03	; 3
    5c88:	71 f0       	breq	.+28     	;  0x5ca6
    5c8a:	84 30       	cpi	r24, 0x04	; 4
    5c8c:	28 f4       	brcc	.+10     	;  0x5c98
    5c8e:	81 30       	cpi	r24, 0x01	; 1
    5c90:	a1 f0       	breq	.+40     	;  0x5cba
    5c92:	82 30       	cpi	r24, 0x02	; 2
    5c94:	21 f5       	brne	.+72     	;  0x5cde
    5c96:	14 c0       	rjmp	.+40     	;  0x5cc0
    5c98:	86 30       	cpi	r24, 0x06	; 6
    5c9a:	b1 f0       	breq	.+44     	;  0x5cc8
    5c9c:	87 30       	cpi	r24, 0x07	; 7
    5c9e:	d1 f0       	breq	.+52     	;  0x5cd4
    5ca0:	84 30       	cpi	r24, 0x04	; 4
    5ca2:	e9 f4       	brne	.+58     	;  0x5cde
    5ca4:	04 c0       	rjmp	.+8      	;  0x5cae
    5ca6:	80 91 80 00 	lds	r24, 0x0080
    5caa:	8f 77       	andi	r24, 0x7F	; 127
    5cac:	03 c0       	rjmp	.+6      	;  0x5cb4
    5cae:	80 91 80 00 	lds	r24, 0x0080
    5cb2:	8f 7d       	andi	r24, 0xDF	; 223
    5cb4:	80 93 80 00 	sts	0x0080, r24
    5cb8:	08 95       	ret
    5cba:	84 b5       	in	r24, 0x24	; 36
    5cbc:	8f 77       	andi	r24, 0x7F	; 127
    5cbe:	02 c0       	rjmp	.+4      	;  0x5cc4
    5cc0:	84 b5       	in	r24, 0x24	; 36
    5cc2:	8f 7d       	andi	r24, 0xDF	; 223
    5cc4:	84 bd       	out	0x24, r24	; 36
    5cc6:	08 95       	ret
    5cc8:	80 91 b0 00 	lds	r24, 0x00B0
    5ccc:	8f 77       	andi	r24, 0x7F	; 127
    5cce:	80 93 b0 00 	sts	0x00B0, r24
    5cd2:	08 95       	ret
    5cd4:	80 91 b0 00 	lds	r24, 0x00B0
    5cd8:	8f 7d       	andi	r24, 0xDF	; 223
    5cda:	80 93 b0 00 	sts	0x00B0, r24
    5cde:	08 95       	ret
    5ce0:	ff 92       	push	r15
    5ce2:	0f 93       	push	r16
    5ce4:	1f 93       	push	r17
    5ce6:	f6 2e       	mov	r15, r22
    5ce8:	48 2f       	mov	r20, r24
    5cea:	50 e0       	ldi	r21, 0x00	; 0
    5cec:	ca 01       	movw	r24, r20
    5cee:	82 5b       	subi	r24, 0xB2	; 178
    5cf0:	9e 4f       	sbci	r25, 0xFE	; 254
    5cf2:	fc 01       	movw	r30, r24
    5cf4:	24 91       	lpm	r18, Z+
    5cf6:	ca 01       	movw	r24, r20
    5cf8:	86 5c       	subi	r24, 0xC6	; 198
    5cfa:	9e 4f       	sbci	r25, 0xFE	; 254
    5cfc:	fc 01       	movw	r30, r24
    5cfe:	14 91       	lpm	r17, Z+
    5d00:	4a 5d       	subi	r20, 0xDA	; 218
    5d02:	5e 4f       	sbci	r21, 0xFE	; 254
    5d04:	fa 01       	movw	r30, r20
    5d06:	04 91       	lpm	r16, Z+
    5d08:	00 23       	and	r16, r16
    5d0a:	c9 f0       	breq	.+50     	;  0x5d3e
    5d0c:	22 23       	and	r18, r18
    5d0e:	19 f0       	breq	.+6      	;  0x5d16
    5d10:	82 2f       	mov	r24, r18
    5d12:	0e 94 43 2e 	call	0x5c86	;  0x5c86
    5d16:	e0 2f       	mov	r30, r16
    5d18:	f0 e0       	ldi	r31, 0x00	; 0
    5d1a:	ee 0f       	add	r30, r30
    5d1c:	ff 1f       	adc	r31, r31
    5d1e:	ee 5e       	subi	r30, 0xEE	; 238
    5d20:	fe 4f       	sbci	r31, 0xFE	; 254
    5d22:	a5 91       	lpm	r26, Z+
    5d24:	b4 91       	lpm	r27, Z+
    5d26:	9f b7       	in	r25, 0x3f	; 63
    5d28:	f8 94       	cli
    5d2a:	ff 20       	and	r15, r15
    5d2c:	21 f4       	brne	.+8      	;  0x5d36
    5d2e:	8c 91       	ld	r24, X
    5d30:	10 95       	com	r17
    5d32:	81 23       	and	r24, r17
    5d34:	02 c0       	rjmp	.+4      	;  0x5d3a
    5d36:	8c 91       	ld	r24, X
    5d38:	81 2b       	or	r24, r17
    5d3a:	8c 93       	st	X, r24
    5d3c:	9f bf       	out	0x3f, r25	; 63
    5d3e:	1f 91       	pop	r17
    5d40:	0f 91       	pop	r16
    5d42:	ff 90       	pop	r15
    5d44:	08 95       	ret
    5d46:	62 9f       	mul	r22, r18
    5d48:	d0 01       	movw	r26, r0
    5d4a:	73 9f       	mul	r23, r19
    5d4c:	f0 01       	movw	r30, r0
    5d4e:	82 9f       	mul	r24, r18
    5d50:	e0 0d       	add	r30, r0
    5d52:	f1 1d       	adc	r31, r1
    5d54:	64 9f       	mul	r22, r20
    5d56:	e0 0d       	add	r30, r0
    5d58:	f1 1d       	adc	r31, r1
    5d5a:	92 9f       	mul	r25, r18
    5d5c:	f0 0d       	add	r31, r0
    5d5e:	83 9f       	mul	r24, r19
    5d60:	f0 0d       	add	r31, r0
    5d62:	74 9f       	mul	r23, r20
    5d64:	f0 0d       	add	r31, r0
    5d66:	65 9f       	mul	r22, r21
    5d68:	f0 0d       	add	r31, r0
    5d6a:	99 27       	eor	r25, r25
    5d6c:	72 9f       	mul	r23, r18
    5d6e:	b0 0d       	add	r27, r0
    5d70:	e1 1d       	adc	r30, r1
    5d72:	f9 1f       	adc	r31, r25
    5d74:	63 9f       	mul	r22, r19
    5d76:	b0 0d       	add	r27, r0
    5d78:	e1 1d       	adc	r30, r1
    5d7a:	f9 1f       	adc	r31, r25
    5d7c:	bd 01       	movw	r22, r26
    5d7e:	cf 01       	movw	r24, r30
    5d80:	11 24       	eor	r1, r1
    5d82:	08 95       	ret
    5d84:	97 fb       	bst	r25, 7
    5d86:	09 2e       	mov	r0, r25
    5d88:	07 26       	eor	r0, r23
    5d8a:	0a d0       	rcall	.+20     	;  0x5da0
    5d8c:	77 fd       	sbrc	r23, 7
    5d8e:	04 d0       	rcall	.+8      	;  0x5d98
    5d90:	2e d0       	rcall	.+92     	;  0x5dee
    5d92:	06 d0       	rcall	.+12     	;  0x5da0
    5d94:	00 20       	and	r0, r0
    5d96:	1a f4       	brpl	.+6      	;  0x5d9e
    5d98:	70 95       	com	r23
    5d9a:	61 95       	neg	r22
    5d9c:	7f 4f       	sbci	r23, 0xFF	; 255
    5d9e:	08 95       	ret
    5da0:	f6 f7       	brtc	.-4      	;  0x5d9e
    5da2:	90 95       	com	r25
    5da4:	81 95       	neg	r24
    5da6:	9f 4f       	sbci	r25, 0xFF	; 255
    5da8:	08 95       	ret
    5daa:	a1 e2       	ldi	r26, 0x21	; 33
    5dac:	1a 2e       	mov	r1, r26
    5dae:	aa 1b       	sub	r26, r26
    5db0:	bb 1b       	sub	r27, r27
    5db2:	fd 01       	movw	r30, r26
    5db4:	0d c0       	rjmp	.+26     	;  0x5dd0
    5db6:	aa 1f       	adc	r26, r26
    5db8:	bb 1f       	adc	r27, r27
    5dba:	ee 1f       	adc	r30, r30
    5dbc:	ff 1f       	adc	r31, r31
    5dbe:	a2 17       	cp	r26, r18
    5dc0:	b3 07       	cpc	r27, r19
    5dc2:	e4 07       	cpc	r30, r20
    5dc4:	f5 07       	cpc	r31, r21
    5dc6:	20 f0       	brcs	.+8      	;  0x5dd0
    5dc8:	a2 1b       	sub	r26, r18
    5dca:	b3 0b       	sbc	r27, r19
    5dcc:	e4 0b       	sbc	r30, r20
    5dce:	f5 0b       	sbc	r31, r21
    5dd0:	66 1f       	adc	r22, r22
    5dd2:	77 1f       	adc	r23, r23
    5dd4:	88 1f       	adc	r24, r24
    5dd6:	99 1f       	adc	r25, r25
    5dd8:	1a 94       	dec	r1
    5dda:	69 f7       	brne	.-38     	;  0x5db6
    5ddc:	60 95       	com	r22
    5dde:	70 95       	com	r23
    5de0:	80 95       	com	r24
    5de2:	90 95       	com	r25
    5de4:	9b 01       	movw	r18, r22
    5de6:	ac 01       	movw	r20, r24
    5de8:	bd 01       	movw	r22, r26
    5dea:	cf 01       	movw	r24, r30
    5dec:	08 95       	ret
    5dee:	aa 1b       	sub	r26, r26
    5df0:	bb 1b       	sub	r27, r27
    5df2:	51 e1       	ldi	r21, 0x11	; 17
    5df4:	07 c0       	rjmp	.+14     	;  0x5e04
    5df6:	aa 1f       	adc	r26, r26
    5df8:	bb 1f       	adc	r27, r27
    5dfa:	a6 17       	cp	r26, r22
    5dfc:	b7 07       	cpc	r27, r23
    5dfe:	10 f0       	brcs	.+4      	;  0x5e04
    5e00:	a6 1b       	sub	r26, r22
    5e02:	b7 0b       	sbc	r27, r23
    5e04:	88 1f       	adc	r24, r24
    5e06:	99 1f       	adc	r25, r25
    5e08:	5a 95       	dec	r21
    5e0a:	a9 f7       	brne	.-22     	;  0x5df6
    5e0c:	80 95       	com	r24
    5e0e:	90 95       	com	r25
    5e10:	bc 01       	movw	r22, r24
    5e12:	cd 01       	movw	r24, r26
    5e14:	08 95       	ret
    5e16:	ee 0f       	add	r30, r30
    5e18:	ff 1f       	adc	r31, r31
    5e1a:	05 90       	lpm	r0, Z+
    5e1c:	f4 91       	lpm	r31, Z+
    5e1e:	e0 2d       	mov	r30, r0
    5e20:	09 94       	ijmp
    5e22:	cf 93       	push	r28
    5e24:	df 93       	push	r29
    5e26:	bc 01       	movw	r22, r24
    5e28:	82 30       	cpi	r24, 0x02	; 2
    5e2a:	91 05       	cpc	r25, r1
    5e2c:	10 f4       	brcc	.+4      	;  0x5e32
    5e2e:	62 e0       	ldi	r22, 0x02	; 2
    5e30:	70 e0       	ldi	r23, 0x00	; 0
    5e32:	a0 91 53 07 	lds	r26, 0x0753
    5e36:	b0 91 54 07 	lds	r27, 0x0754
    5e3a:	ed 01       	movw	r28, r26
    5e3c:	e0 e0       	ldi	r30, 0x00	; 0
    5e3e:	f0 e0       	ldi	r31, 0x00	; 0
    5e40:	40 e0       	ldi	r20, 0x00	; 0
    5e42:	50 e0       	ldi	r21, 0x00	; 0
    5e44:	21 c0       	rjmp	.+66     	;  0x5e88
    5e46:	88 81       	ld	r24, Y
    5e48:	99 81       	ldd	r25, Y+1	; 0x01
    5e4a:	86 17       	cp	r24, r22
    5e4c:	97 07       	cpc	r25, r23
    5e4e:	69 f4       	brne	.+26     	;  0x5e6a
    5e50:	8a 81       	ldd	r24, Y+2	; 0x02
    5e52:	9b 81       	ldd	r25, Y+3	; 0x03
    5e54:	30 97       	sbiw	r30, 0x00	; 0
    5e56:	19 f0       	breq	.+6      	;  0x5e5e
    5e58:	93 83       	std	Z+3, r25	; 0x03
    5e5a:	82 83       	std	Z+2, r24	; 0x02
    5e5c:	04 c0       	rjmp	.+8      	;  0x5e66
    5e5e:	90 93 54 07 	sts	0x0754, r25
    5e62:	80 93 53 07 	sts	0x0753, r24
    5e66:	fe 01       	movw	r30, r28
    5e68:	34 c0       	rjmp	.+104    	;  0x5ed2
    5e6a:	68 17       	cp	r22, r24
    5e6c:	79 07       	cpc	r23, r25
    5e6e:	38 f4       	brcc	.+14     	;  0x5e7e
    5e70:	41 15       	cp	r20, r1
    5e72:	51 05       	cpc	r21, r1
    5e74:	19 f0       	breq	.+6      	;  0x5e7c
    5e76:	84 17       	cp	r24, r20
    5e78:	95 07       	cpc	r25, r21
    5e7a:	08 f4       	brcc	.+2      	;  0x5e7e
    5e7c:	ac 01       	movw	r20, r24
    5e7e:	fe 01       	movw	r30, r28
    5e80:	8a 81       	ldd	r24, Y+2	; 0x02
    5e82:	9b 81       	ldd	r25, Y+3	; 0x03
    5e84:	9c 01       	movw	r18, r24
    5e86:	e9 01       	movw	r28, r18
    5e88:	20 97       	sbiw	r28, 0x00	; 0
    5e8a:	e9 f6       	brne	.-70     	;  0x5e46
    5e8c:	41 15       	cp	r20, r1
    5e8e:	51 05       	cpc	r21, r1
    5e90:	a9 f1       	breq	.+106    	;  0x5efc
    5e92:	ca 01       	movw	r24, r20
    5e94:	86 1b       	sub	r24, r22
    5e96:	97 0b       	sbc	r25, r23
    5e98:	04 97       	sbiw	r24, 0x04	; 4
    5e9a:	08 f4       	brcc	.+2      	;  0x5e9e
    5e9c:	ba 01       	movw	r22, r20
    5e9e:	e0 e0       	ldi	r30, 0x00	; 0
    5ea0:	f0 e0       	ldi	r31, 0x00	; 0
    5ea2:	2a c0       	rjmp	.+84     	;  0x5ef8
    5ea4:	8d 91       	ld	r24, X+
    5ea6:	9c 91       	ld	r25, X
    5ea8:	11 97       	sbiw	r26, 0x01	; 1
    5eaa:	84 17       	cp	r24, r20
    5eac:	95 07       	cpc	r25, r21
    5eae:	f9 f4       	brne	.+62     	;  0x5eee
    5eb0:	64 17       	cp	r22, r20
    5eb2:	75 07       	cpc	r23, r21
    5eb4:	81 f4       	brne	.+32     	;  0x5ed6
    5eb6:	12 96       	adiw	r26, 0x02	; 2
    5eb8:	8d 91       	ld	r24, X+
    5eba:	9c 91       	ld	r25, X
    5ebc:	13 97       	sbiw	r26, 0x03	; 3
    5ebe:	30 97       	sbiw	r30, 0x00	; 0
    5ec0:	19 f0       	breq	.+6      	;  0x5ec8
    5ec2:	93 83       	std	Z+3, r25	; 0x03
    5ec4:	82 83       	std	Z+2, r24	; 0x02
    5ec6:	04 c0       	rjmp	.+8      	;  0x5ed0
    5ec8:	90 93 54 07 	sts	0x0754, r25
    5ecc:	80 93 53 07 	sts	0x0753, r24
    5ed0:	fd 01       	movw	r30, r26
    5ed2:	32 96       	adiw	r30, 0x02	; 2
    5ed4:	4f c0       	rjmp	.+158    	;  0x5f74
    5ed6:	ca 01       	movw	r24, r20
    5ed8:	86 1b       	sub	r24, r22
    5eda:	97 0b       	sbc	r25, r23
    5edc:	fd 01       	movw	r30, r26
    5ede:	e8 0f       	add	r30, r24
    5ee0:	f9 1f       	adc	r31, r25
    5ee2:	61 93       	st	Z+, r22
    5ee4:	71 93       	st	Z+, r23
    5ee6:	02 97       	sbiw	r24, 0x02	; 2
    5ee8:	8d 93       	st	X+, r24
    5eea:	9c 93       	st	X, r25
    5eec:	43 c0       	rjmp	.+134    	;  0x5f74
    5eee:	fd 01       	movw	r30, r26
    5ef0:	82 81       	ldd	r24, Z+2	; 0x02
    5ef2:	93 81       	ldd	r25, Z+3	; 0x03
    5ef4:	9c 01       	movw	r18, r24
    5ef6:	d9 01       	movw	r26, r18
    5ef8:	10 97       	sbiw	r26, 0x00	; 0
    5efa:	a1 f6       	brne	.-88     	;  0x5ea4
    5efc:	80 91 51 07 	lds	r24, 0x0751
    5f00:	90 91 52 07 	lds	r25, 0x0752
    5f04:	89 2b       	or	r24, r25
    5f06:	41 f4       	brne	.+16     	;  0x5f18
    5f08:	80 91 8f 01 	lds	r24, 0x018F
    5f0c:	90 91 90 01 	lds	r25, 0x0190
    5f10:	90 93 52 07 	sts	0x0752, r25
    5f14:	80 93 51 07 	sts	0x0751, r24
    5f18:	40 91 91 01 	lds	r20, 0x0191
    5f1c:	50 91 92 01 	lds	r21, 0x0192
    5f20:	41 15       	cp	r20, r1
    5f22:	51 05       	cpc	r21, r1
    5f24:	41 f4       	brne	.+16     	;  0x5f36
    5f26:	4d b7       	in	r20, 0x3d	; 61
    5f28:	5e b7       	in	r21, 0x3e	; 62
    5f2a:	80 91 8d 01 	lds	r24, 0x018D
    5f2e:	90 91 8e 01 	lds	r25, 0x018E
    5f32:	48 1b       	sub	r20, r24
    5f34:	59 0b       	sbc	r21, r25
    5f36:	20 91 51 07 	lds	r18, 0x0751
    5f3a:	30 91 52 07 	lds	r19, 0x0752
    5f3e:	24 17       	cp	r18, r20
    5f40:	35 07       	cpc	r19, r21
    5f42:	b0 f4       	brcc	.+44     	;  0x5f70
    5f44:	ca 01       	movw	r24, r20
    5f46:	82 1b       	sub	r24, r18
    5f48:	93 0b       	sbc	r25, r19
    5f4a:	86 17       	cp	r24, r22
    5f4c:	97 07       	cpc	r25, r23
    5f4e:	80 f0       	brcs	.+32     	;  0x5f70
    5f50:	ab 01       	movw	r20, r22
    5f52:	4e 5f       	subi	r20, 0xFE	; 254
    5f54:	5f 4f       	sbci	r21, 0xFF	; 255
    5f56:	84 17       	cp	r24, r20
    5f58:	95 07       	cpc	r25, r21
    5f5a:	50 f0       	brcs	.+20     	;  0x5f70
    5f5c:	42 0f       	add	r20, r18
    5f5e:	53 1f       	adc	r21, r19
    5f60:	50 93 52 07 	sts	0x0752, r21
    5f64:	40 93 51 07 	sts	0x0751, r20
    5f68:	f9 01       	movw	r30, r18
    5f6a:	61 93       	st	Z+, r22
    5f6c:	71 93       	st	Z+, r23
    5f6e:	02 c0       	rjmp	.+4      	;  0x5f74
    5f70:	e0 e0       	ldi	r30, 0x00	; 0
    5f72:	f0 e0       	ldi	r31, 0x00	; 0
    5f74:	cf 01       	movw	r24, r30
    5f76:	df 91       	pop	r29
    5f78:	cf 91       	pop	r28
    5f7a:	08 95       	ret
    5f7c:	cf 93       	push	r28
    5f7e:	df 93       	push	r29
    5f80:	00 97       	sbiw	r24, 0x00	; 0
    5f82:	09 f4       	brne	.+2      	;  0x5f86
    5f84:	50 c0       	rjmp	.+160    	;  0x6026
    5f86:	ec 01       	movw	r28, r24
    5f88:	22 97       	sbiw	r28, 0x02	; 2
    5f8a:	1b 82       	std	Y+3, r1	; 0x03
    5f8c:	1a 82       	std	Y+2, r1	; 0x02
    5f8e:	a0 91 53 07 	lds	r26, 0x0753
    5f92:	b0 91 54 07 	lds	r27, 0x0754
    5f96:	10 97       	sbiw	r26, 0x00	; 0
    5f98:	09 f1       	breq	.+66     	;  0x5fdc
    5f9a:	40 e0       	ldi	r20, 0x00	; 0
    5f9c:	50 e0       	ldi	r21, 0x00	; 0
    5f9e:	ac 17       	cp	r26, r28
    5fa0:	bd 07       	cpc	r27, r29
    5fa2:	08 f1       	brcs	.+66     	;  0x5fe6
    5fa4:	bb 83       	std	Y+3, r27	; 0x03
    5fa6:	aa 83       	std	Y+2, r26	; 0x02
    5fa8:	fe 01       	movw	r30, r28
    5faa:	21 91       	ld	r18, Z+
    5fac:	31 91       	ld	r19, Z+
    5fae:	e2 0f       	add	r30, r18
    5fb0:	f3 1f       	adc	r31, r19
    5fb2:	ae 17       	cp	r26, r30
    5fb4:	bf 07       	cpc	r27, r31
    5fb6:	79 f4       	brne	.+30     	;  0x5fd6
    5fb8:	8d 91       	ld	r24, X+
    5fba:	9c 91       	ld	r25, X
    5fbc:	11 97       	sbiw	r26, 0x01	; 1
    5fbe:	28 0f       	add	r18, r24
    5fc0:	39 1f       	adc	r19, r25
    5fc2:	2e 5f       	subi	r18, 0xFE	; 254
    5fc4:	3f 4f       	sbci	r19, 0xFF	; 255
    5fc6:	39 83       	std	Y+1, r19	; 0x01
    5fc8:	28 83       	st	Y, r18
    5fca:	12 96       	adiw	r26, 0x02	; 2
    5fcc:	8d 91       	ld	r24, X+
    5fce:	9c 91       	ld	r25, X
    5fd0:	13 97       	sbiw	r26, 0x03	; 3
    5fd2:	9b 83       	std	Y+3, r25	; 0x03
    5fd4:	8a 83       	std	Y+2, r24	; 0x02
    5fd6:	41 15       	cp	r20, r1
    5fd8:	51 05       	cpc	r21, r1
    5fda:	71 f4       	brne	.+28     	;  0x5ff8
    5fdc:	d0 93 54 07 	sts	0x0754, r29
    5fe0:	c0 93 53 07 	sts	0x0753, r28
    5fe4:	20 c0       	rjmp	.+64     	;  0x6026
    5fe6:	12 96       	adiw	r26, 0x02	; 2
    5fe8:	8d 91       	ld	r24, X+
    5fea:	9c 91       	ld	r25, X
    5fec:	13 97       	sbiw	r26, 0x03	; 3
    5fee:	ad 01       	movw	r20, r26
    5ff0:	00 97       	sbiw	r24, 0x00	; 0
    5ff2:	11 f0       	breq	.+4      	;  0x5ff8
    5ff4:	dc 01       	movw	r26, r24
    5ff6:	d3 cf       	rjmp	.-90     	;  0x5f9e
    5ff8:	fa 01       	movw	r30, r20
    5ffa:	d3 83       	std	Z+3, r29	; 0x03
    5ffc:	c2 83       	std	Z+2, r28	; 0x02
    5ffe:	21 91       	ld	r18, Z+
    6000:	31 91       	ld	r19, Z+
    6002:	e2 0f       	add	r30, r18
    6004:	f3 1f       	adc	r31, r19
    6006:	ce 17       	cp	r28, r30
    6008:	df 07       	cpc	r29, r31
    600a:	69 f4       	brne	.+26     	;  0x6026
    600c:	88 81       	ld	r24, Y
    600e:	99 81       	ldd	r25, Y+1	; 0x01
    6010:	28 0f       	add	r18, r24
    6012:	39 1f       	adc	r19, r25
    6014:	2e 5f       	subi	r18, 0xFE	; 254
    6016:	3f 4f       	sbci	r19, 0xFF	; 255
    6018:	fa 01       	movw	r30, r20
    601a:	31 83       	std	Z+1, r19	; 0x01
    601c:	20 83       	st	Z, r18
    601e:	8a 81       	ldd	r24, Y+2	; 0x02
    6020:	9b 81       	ldd	r25, Y+3	; 0x03
    6022:	93 83       	std	Z+3, r25	; 0x03
    6024:	82 83       	std	Z+2, r24	; 0x02
    6026:	df 91       	pop	r29
    6028:	cf 91       	pop	r28
    602a:	08 95       	ret
    602c:	a0 e0       	ldi	r26, 0x00	; 0
    602e:	b0 e0       	ldi	r27, 0x00	; 0
    6030:	ec e1       	ldi	r30, 0x1C	; 28
    6032:	f0 e3       	ldi	r31, 0x30	; 48
    6034:	0c 94 43 31 	jmp	0x6286	;  0x6286
    6038:	8c 01       	movw	r16, r24
    603a:	00 97       	sbiw	r24, 0x00	; 0
    603c:	29 f4       	brne	.+10     	;  0x6048
    603e:	cb 01       	movw	r24, r22
    6040:	0e 94 11 2f 	call	0x5e22	;  0x5e22
    6044:	8c 01       	movw	r16, r24
    6046:	ba c0       	rjmp	.+372    	;  0x61bc
    6048:	9e ef       	ldi	r25, 0xFE	; 254
    604a:	e9 2e       	mov	r14, r25
    604c:	9f ef       	ldi	r25, 0xFF	; 255
    604e:	f9 2e       	mov	r15, r25
    6050:	e0 0e       	add	r14, r16
    6052:	f1 1e       	adc	r15, r17
    6054:	58 01       	movw	r10, r16
    6056:	a6 0e       	add	r10, r22
    6058:	b7 1e       	adc	r11, r23
    605a:	ae 14       	cp	r10, r14
    605c:	bf 04       	cpc	r11, r15
    605e:	08 f4       	brcc	.+2      	;  0x6062
    6060:	ab c0       	rjmp	.+342    	;  0x61b8
    6062:	8e ef       	ldi	r24, 0xFE	; 254
    6064:	88 2e       	mov	r8, r24
    6066:	8f ef       	ldi	r24, 0xFF	; 255
    6068:	98 2e       	mov	r9, r24
    606a:	8a 0c       	add	r8, r10
    606c:	9b 1c       	adc	r9, r11
    606e:	e7 01       	movw	r28, r14
    6070:	48 81       	ld	r20, Y
    6072:	59 81       	ldd	r21, Y+1	; 0x01
    6074:	46 17       	cp	r20, r22
    6076:	57 07       	cpc	r21, r23
    6078:	b8 f0       	brcs	.+46     	;  0x60a8
    607a:	45 30       	cpi	r20, 0x05	; 5
    607c:	51 05       	cpc	r21, r1
    607e:	08 f4       	brcc	.+2      	;  0x6082
    6080:	9d c0       	rjmp	.+314    	;  0x61bc
    6082:	ca 01       	movw	r24, r20
    6084:	04 97       	sbiw	r24, 0x04	; 4
    6086:	86 17       	cp	r24, r22
    6088:	97 07       	cpc	r25, r23
    608a:	08 f4       	brcc	.+2      	;  0x608e
    608c:	97 c0       	rjmp	.+302    	;  0x61bc
    608e:	42 50       	subi	r20, 0x02	; 2
    6090:	50 40       	sbci	r21, 0x00	; 0
    6092:	46 1b       	sub	r20, r22
    6094:	57 0b       	sbc	r21, r23
    6096:	f4 01       	movw	r30, r8
    6098:	51 83       	std	Z+1, r21	; 0x01
    609a:	40 83       	st	Z, r20
    609c:	79 83       	std	Y+1, r23	; 0x01
    609e:	68 83       	st	Y, r22
    60a0:	c5 01       	movw	r24, r10
    60a2:	0e 94 be 2f 	call	0x5f7c	;  0x5f7c
    60a6:	8a c0       	rjmp	.+276    	;  0x61bc
    60a8:	6b 01       	movw	r12, r22
    60aa:	c4 1a       	sub	r12, r20
    60ac:	d5 0a       	sbc	r13, r21
    60ae:	e0 91 53 07 	lds	r30, 0x0753
    60b2:	f0 91 54 07 	lds	r31, 0x0754
    60b6:	a0 e0       	ldi	r26, 0x00	; 0
    60b8:	b0 e0       	ldi	r27, 0x00	; 0
    60ba:	c0 e0       	ldi	r28, 0x00	; 0
    60bc:	d0 e0       	ldi	r29, 0x00	; 0
    60be:	42 c0       	rjmp	.+132    	;  0x6144
    60c0:	e8 15       	cp	r30, r8
    60c2:	f9 05       	cpc	r31, r9
    60c4:	a1 f5       	brne	.+104    	;  0x612e
    60c6:	20 81       	ld	r18, Z
    60c8:	31 81       	ldd	r19, Z+1	; 0x01
    60ca:	2c 15       	cp	r18, r12
    60cc:	3d 05       	cpc	r19, r13
    60ce:	78 f1       	brcs	.+94     	;  0x612e
    60d0:	c9 01       	movw	r24, r18
    60d2:	02 96       	adiw	r24, 0x02	; 2
    60d4:	8c 15       	cp	r24, r12
    60d6:	9d 05       	cpc	r25, r13
    60d8:	a8 f0       	brcs	.+42     	;  0x6104
    60da:	4e 5f       	subi	r20, 0xFE	; 254
    60dc:	5f 4f       	sbci	r21, 0xFF	; 255
    60de:	42 0f       	add	r20, r18
    60e0:	53 1f       	adc	r21, r19
    60e2:	e7 01       	movw	r28, r14
    60e4:	59 83       	std	Y+1, r21	; 0x01
    60e6:	48 83       	st	Y, r20
    60e8:	22 81       	ldd	r18, Z+2	; 0x02
    60ea:	33 81       	ldd	r19, Z+3	; 0x03
    60ec:	10 97       	sbiw	r26, 0x00	; 0
    60ee:	29 f0       	breq	.+10     	;  0x60fa
    60f0:	13 96       	adiw	r26, 0x03	; 3
    60f2:	3c 93       	st	X, r19
    60f4:	2e 93       	st	-X, r18
    60f6:	12 97       	sbiw	r26, 0x02	; 2
    60f8:	61 c0       	rjmp	.+194    	;  0x61bc
    60fa:	30 93 54 07 	sts	0x0754, r19
    60fe:	20 93 53 07 	sts	0x0753, r18
    6102:	5c c0       	rjmp	.+184    	;  0x61bc
    6104:	22 50       	subi	r18, 0x02	; 2
    6106:	30 40       	sbci	r19, 0x00	; 0
    6108:	2c 19       	sub	r18, r12
    610a:	3d 09       	sbc	r19, r13
    610c:	31 83       	std	Z+1, r19	; 0x01
    610e:	20 83       	st	Z, r18
    6110:	10 97       	sbiw	r26, 0x00	; 0
    6112:	29 f0       	breq	.+10     	;  0x611e
    6114:	13 96       	adiw	r26, 0x03	; 3
    6116:	fc 93       	st	X, r31
    6118:	ee 93       	st	-X, r30
    611a:	12 97       	sbiw	r26, 0x02	; 2
    611c:	04 c0       	rjmp	.+8      	;  0x6126
    611e:	f0 93 54 07 	sts	0x0754, r31
    6122:	e0 93 53 07 	sts	0x0753, r30
    6126:	f7 01       	movw	r30, r14
    6128:	71 83       	std	Z+1, r23	; 0x01
    612a:	60 83       	st	Z, r22
    612c:	47 c0       	rjmp	.+142    	;  0x61bc
    612e:	80 81       	ld	r24, Z
    6130:	91 81       	ldd	r25, Z+1	; 0x01
    6132:	c8 17       	cp	r28, r24
    6134:	d9 07       	cpc	r29, r25
    6136:	08 f4       	brcc	.+2      	;  0x613a
    6138:	ec 01       	movw	r28, r24
    613a:	df 01       	movw	r26, r30
    613c:	82 81       	ldd	r24, Z+2	; 0x02
    613e:	93 81       	ldd	r25, Z+3	; 0x03
    6140:	9c 01       	movw	r18, r24
    6142:	f9 01       	movw	r30, r18
    6144:	30 97       	sbiw	r30, 0x00	; 0
    6146:	09 f0       	breq	.+2      	;  0x614a
    6148:	bb cf       	rjmp	.-138    	;  0x60c0
    614a:	40 0f       	add	r20, r16
    614c:	51 1f       	adc	r21, r17
    614e:	80 91 51 07 	lds	r24, 0x0751
    6152:	90 91 52 07 	lds	r25, 0x0752
    6156:	84 17       	cp	r24, r20
    6158:	95 07       	cpc	r25, r21
    615a:	e9 f4       	brne	.+58     	;  0x6196
    615c:	c6 17       	cp	r28, r22
    615e:	d7 07       	cpc	r29, r23
    6160:	d0 f4       	brcc	.+52     	;  0x6196
    6162:	20 91 91 01 	lds	r18, 0x0191
    6166:	30 91 92 01 	lds	r19, 0x0192
    616a:	21 15       	cp	r18, r1
    616c:	31 05       	cpc	r19, r1
    616e:	41 f4       	brne	.+16     	;  0x6180
    6170:	2d b7       	in	r18, 0x3d	; 61
    6172:	3e b7       	in	r19, 0x3e	; 62
    6174:	80 91 8d 01 	lds	r24, 0x018D
    6178:	90 91 8e 01 	lds	r25, 0x018E
    617c:	28 1b       	sub	r18, r24
    617e:	39 0b       	sbc	r19, r25
    6180:	a2 16       	cp	r10, r18
    6182:	b3 06       	cpc	r11, r19
    6184:	c8 f4       	brcc	.+50     	;  0x61b8
    6186:	b0 92 52 07 	sts	0x0752, r11
    618a:	a0 92 51 07 	sts	0x0751, r10
    618e:	e7 01       	movw	r28, r14
    6190:	79 83       	std	Y+1, r23	; 0x01
    6192:	68 83       	st	Y, r22
    6194:	13 c0       	rjmp	.+38     	;  0x61bc
    6196:	cb 01       	movw	r24, r22
    6198:	0e 94 11 2f 	call	0x5e22	;  0x5e22
    619c:	ec 01       	movw	r28, r24
    619e:	00 97       	sbiw	r24, 0x00	; 0
    61a0:	59 f0       	breq	.+22     	;  0x61b8
    61a2:	f7 01       	movw	r30, r14
    61a4:	40 81       	ld	r20, Z
    61a6:	51 81       	ldd	r21, Z+1	; 0x01
    61a8:	b8 01       	movw	r22, r16
    61aa:	0e 94 18 31 	call	0x6230	;  0x6230
    61ae:	c8 01       	movw	r24, r16
    61b0:	0e 94 be 2f 	call	0x5f7c	;  0x5f7c
    61b4:	8e 01       	movw	r16, r28
    61b6:	02 c0       	rjmp	.+4      	;  0x61bc
    61b8:	00 e0       	ldi	r16, 0x00	; 0
    61ba:	10 e0       	ldi	r17, 0x00	; 0
    61bc:	c8 01       	movw	r24, r16
    61be:	cd b7       	in	r28, 0x3d	; 61
    61c0:	de b7       	in	r29, 0x3e	; 62
    61c2:	ec e0       	ldi	r30, 0x0C	; 12
    61c4:	0c 94 5f 31 	jmp	0x62be	;  0x62be
    61c8:	1f 93       	push	r17
    61ca:	fc 01       	movw	r30, r24
    61cc:	99 27       	eor	r25, r25
    61ce:	88 27       	eor	r24, r24
    61d0:	bc 01       	movw	r22, r24
    61d2:	e8 94       	clt
    61d4:	11 91       	ld	r17, Z+
    61d6:	10 32       	cpi	r17, 0x20	; 32
    61d8:	e9 f3       	breq	.-6      	;  0x61d4
    61da:	19 30       	cpi	r17, 0x09	; 9
    61dc:	10 f0       	brcs	.+4      	;  0x61e2
    61de:	1e 30       	cpi	r17, 0x0E	; 14
    61e0:	c8 f3       	brcs	.-14     	;  0x61d4
    61e2:	1b 32       	cpi	r17, 0x2B	; 43
    61e4:	51 f0       	breq	.+20     	;  0x61fa
    61e6:	1d 32       	cpi	r17, 0x2D	; 45
    61e8:	49 f4       	brne	.+18     	;  0x61fc
    61ea:	68 94       	set
    61ec:	06 c0       	rjmp	.+12     	;  0x61fa
    61ee:	0e 94 28 31 	call	0x6250	;  0x6250
    61f2:	61 0f       	add	r22, r17
    61f4:	71 1d       	adc	r23, r1
    61f6:	81 1d       	adc	r24, r1
    61f8:	91 1d       	adc	r25, r1
    61fa:	11 91       	ld	r17, Z+
    61fc:	10 53       	subi	r17, 0x30	; 48
    61fe:	1a 30       	cpi	r17, 0x0A	; 10
    6200:	b0 f3       	brcs	.-20     	;  0x61ee
    6202:	3e f4       	brtc	.+14     	;  0x6212
    6204:	90 95       	com	r25
    6206:	80 95       	com	r24
    6208:	70 95       	com	r23
    620a:	61 95       	neg	r22
    620c:	7f 4f       	sbci	r23, 0xFF	; 255
    620e:	8f 4f       	sbci	r24, 0xFF	; 255
    6210:	9f 4f       	sbci	r25, 0xFF	; 255
    6212:	1f 91       	pop	r17
    6214:	08 95       	ret
    6216:	fb 01       	movw	r30, r22
    6218:	dc 01       	movw	r26, r24
    621a:	04 c0       	rjmp	.+8      	;  0x6224
    621c:	8d 91       	ld	r24, X+
    621e:	01 90       	ld	r0, Z+
    6220:	80 19       	sub	r24, r0
    6222:	21 f4       	brne	.+8      	;  0x622c
    6224:	41 50       	subi	r20, 0x01	; 1
    6226:	50 40       	sbci	r21, 0x00	; 0
    6228:	c8 f7       	brcc	.-14     	;  0x621c
    622a:	88 1b       	sub	r24, r24
    622c:	99 0b       	sbc	r25, r25
    622e:	08 95       	ret
    6230:	fb 01       	movw	r30, r22
    6232:	dc 01       	movw	r26, r24
    6234:	02 c0       	rjmp	.+4      	;  0x623a
    6236:	01 90       	ld	r0, Z+
    6238:	0d 92       	st	X+, r0
    623a:	41 50       	subi	r20, 0x01	; 1
    623c:	50 40       	sbci	r21, 0x00	; 0
    623e:	d8 f7       	brcc	.-10     	;  0x6236
    6240:	08 95       	ret
    6242:	fb 01       	movw	r30, r22
    6244:	dc 01       	movw	r26, r24
    6246:	01 90       	ld	r0, Z+
    6248:	0d 92       	st	X+, r0
    624a:	00 20       	and	r0, r0
    624c:	e1 f7       	brne	.-8      	;  0x6246
    624e:	08 95       	ret
    6250:	59 2f       	mov	r21, r25
    6252:	48 2f       	mov	r20, r24
    6254:	37 2f       	mov	r19, r23
    6256:	26 2f       	mov	r18, r22
    6258:	66 0f       	add	r22, r22
    625a:	77 1f       	adc	r23, r23
    625c:	88 1f       	adc	r24, r24
    625e:	99 1f       	adc	r25, r25
    6260:	66 0f       	add	r22, r22
    6262:	77 1f       	adc	r23, r23
    6264:	88 1f       	adc	r24, r24
    6266:	99 1f       	adc	r25, r25
    6268:	62 0f       	add	r22, r18
    626a:	73 1f       	adc	r23, r19
    626c:	84 1f       	adc	r24, r20
    626e:	95 1f       	adc	r25, r21
    6270:	66 0f       	add	r22, r22
    6272:	77 1f       	adc	r23, r23
    6274:	88 1f       	adc	r24, r24
    6276:	99 1f       	adc	r25, r25
    6278:	08 95       	ret
    627a:	2f 92       	push	r2
    627c:	3f 92       	push	r3
    627e:	4f 92       	push	r4
    6280:	5f 92       	push	r5
    6282:	6f 92       	push	r6
    6284:	7f 92       	push	r7
    6286:	8f 92       	push	r8
    6288:	9f 92       	push	r9
    628a:	af 92       	push	r10
    628c:	bf 92       	push	r11
    628e:	cf 92       	push	r12
    6290:	df 92       	push	r13
    6292:	ef 92       	push	r14
    6294:	ff 92       	push	r15
    6296:	0f 93       	push	r16
    6298:	1f 93       	push	r17
    629a:	cf 93       	push	r28
    629c:	df 93       	push	r29
    629e:	cd b7       	in	r28, 0x3d	; 61
    62a0:	de b7       	in	r29, 0x3e	; 62
    62a2:	ca 1b       	sub	r28, r26
    62a4:	db 0b       	sbc	r29, r27
    62a6:	0f b6       	in	r0, 0x3f	; 63
    62a8:	f8 94       	cli
    62aa:	de bf       	out	0x3e, r29	; 62
    62ac:	0f be       	out	0x3f, r0	; 63
    62ae:	cd bf       	out	0x3d, r28	; 61
    62b0:	09 94       	ijmp
    62b2:	2a 88       	ldd	r2, Y+18	; 0x12
    62b4:	39 88       	ldd	r3, Y+17	; 0x11
    62b6:	48 88       	ldd	r4, Y+16	; 0x10
    62b8:	5f 84       	ldd	r5, Y+15	; 0x0f
    62ba:	6e 84       	ldd	r6, Y+14	; 0x0e
    62bc:	7d 84       	ldd	r7, Y+13	; 0x0d
    62be:	8c 84       	ldd	r8, Y+12	; 0x0c
    62c0:	9b 84       	ldd	r9, Y+11	; 0x0b
    62c2:	aa 84       	ldd	r10, Y+10	; 0x0a
    62c4:	b9 84       	ldd	r11, Y+9	; 0x09
    62c6:	c8 84       	ldd	r12, Y+8	; 0x08
    62c8:	df 80       	ldd	r13, Y+7	; 0x07
    62ca:	ee 80       	ldd	r14, Y+6	; 0x06
    62cc:	fd 80       	ldd	r15, Y+5	; 0x05
    62ce:	0c 81       	ldd	r16, Y+4	; 0x04
    62d0:	1b 81       	ldd	r17, Y+3	; 0x03
    62d2:	aa 81       	ldd	r26, Y+2	; 0x02
    62d4:	b9 81       	ldd	r27, Y+1	; 0x01
    62d6:	ce 0f       	add	r28, r30
    62d8:	d1 1d       	adc	r29, r1
    62da:	0f b6       	in	r0, 0x3f	; 63
    62dc:	f8 94       	cli
    62de:	de bf       	out	0x3e, r29	; 62
    62e0:	0f be       	out	0x3f, r0	; 63
    62e2:	cd bf       	out	0x3d, r28	; 61
    62e4:	ed 01       	movw	r28, r26
    62e6:	08 95       	ret
    62e8:	11 e0       	ldi	r17, 0x01	; 1
    62ea:	c8 e6       	ldi	r28, 0x68	; 104
    62ec:	d1 e0       	ldi	r29, 0x01	; 1
    62ee:	04 c0       	rjmp	.+8      	;  0x62f8
    62f0:	fe 01       	movw	r30, r28
    62f2:	0e 94 0d 2f 	call	0x5e1a	;  0x5e1a
    62f6:	22 96       	adiw	r28, 0x02	; 2
    62f8:	ca 36       	cpi	r28, 0x6A	; 106
    62fa:	d1 07       	cpc	r29, r17
    62fc:	c9 f7       	brne	.-14     	;  0x62f0
    62fe:	f8 94       	cli
    6300:	ff cf       	rjmp	.-2      	;  0x6300
